 ARKANOTRON

 Timestamp is 5f25aae6 (Sat Aug 01 19:48:22 2020)

 Preferred load address is 00400000

 Start         Length     Name                   Class
 0001:00000000 000b4c84H .textbss                DATA
 0002:00000000 000ae566H .text                   CODE
 0003:00000000 0003d510H D3D                     CODE
 0003:0003d510 0001f0beH D3D_RD                  CODE
 0003:0005c5d0 000098e8H D3D_URW                 CODE
 0004:00000000 00008e0bH D3DX                    CODE
 0004:00008e10 000026f9H D3DX_RD                 CODE
 0005:00000000 000288bdH DSOUND                  CODE
 0005:000288c0 000270edH DSOUND_RD               CODE
 0005:0004f9b0 00001c79H DSOUND_RW               CODE
 0005:00051630 00001294H DSOUND_URW              CODE
 0006:00000000 00001005H .XID$A                  CODE
 0006:00001008 00001005H .XID$Gamepad            CODE
 0006:00002010 00001005H .XID$IrRemote           CODE
 0006:00003018 00001005H .XID$Keyboard           CODE
 0006:00004020 00001005H .XID$Mouse              CODE
 0006:00005028 00001005H .XID$ZZZ                CODE
 0006:00006030 00001005H .XPP$ClassA             CODE
 0006:00007038 0000100aH .XPP$ClassXID           CODE
 0006:00008044 00001005H .XPP$ClassZZHub         CODE
 0006:0000904c 00001005H .XPP$ClassZZZ           CODE
 0006:0000a051 00001001H .XPP$DATA               CODE
 0006:0000b058 0000136cH .XPP$Data               CODE
 0006:0000c3c4 00002280H .XPPCINIT               CODE
 0006:0000e644 0000aba3H .XPPCODE                CODE
 0006:000191e8 0000381aH .XPPRDATA               CODE
 0006:0001ca08 00001159H .XPPRINIT               CODE
 0007:00000000 0000f8b4H .rdata                  DATA
 0007:0000f8b4 00000196H .rdata$debug            DATA
 0007:0000fa4c 00000104H .rtc$IAA                DATA
 0007:0000fb50 00000284H .rtc$IMZ                DATA
 0007:0000fdd4 00000104H .rtc$IZZ                DATA
 0007:0000fed8 00000104H .rtc$TAA                DATA
 0007:0000ffdc 00000284H .rtc$TMZ                DATA
 0007:00010260 00000104H .rtc$TZZ                DATA
 0007:00010364 00000000H .edata                  DATA
 0008:00000000 00000104H .CRT$RIA                DATA
 0008:00000104 00000104H .CRT$RII10              DATA
 0008:00000208 00000104H .CRT$RII15              DATA
 0008:0000030c 00000104H .CRT$RII20              DATA
 0008:00000410 00000104H .CRT$RIZ                DATA
 0008:00000514 00000104H .CRT$XCA                DATA
 0008:00000618 00000126H .CRT$XCU                DATA
 0008:00000740 00000104H .CRT$XCZ                DATA
 0008:00000844 00000104H .CRT$XIA                DATA
 0008:00000948 00000109H .CRT$XIC                DATA
 0008:00000a54 00000104H .CRT$XIZ                DATA
 0008:00000b58 00000104H .CRT$XPA                DATA
 0008:00000c5c 00000109H .CRT$XPX                DATA
 0008:00000d68 00000104H .CRT$XPZ                DATA
 0008:00000e6c 00000104H .CRT$XTA                DATA
 0008:00000f70 00000104H .CRT$XTZ                DATA
 0008:00001074 00000104H .XAPI$LNA               DATA
 0008:00001178 00000104H .XAPI$LNZ               DATA
 0008:00001280 00042402H .data                   DATA
 0008:000436a0 00018228H .bss                    DATA
 0009:00000000 00000014H .idata$2                DATA
 0009:00000014 00000014H .idata$3                DATA
 0009:00000028 0000031cH .idata$4                DATA
 0009:00000344 0000031cH .idata$5                DATA
 0009:00000660 0000010fH .idata$6                DATA
 000a:00000000 00008933H DOLBY                   DATA
 000b:00000000 00000113H .XBLD$A                 DATA
 000b:00000114 000001a2H .XBLD$V                 DATA
 000c:00000000 00000101H .tls                    DATA
 000c:00000108 000001a3H .tls$                   DATA
 000c:000002ab 00000101H .tls$ZZZ                DATA

  Address         Publics by Value              Rva+Base     Lib:Object

 0000:00000000       ___safe_se_handler_count   00000000     <absolute>
 0000:00000000       __except_list              00000000     <absolute>
 0000:00000000       ___safe_se_handler_table   00000000     <absolute>
 0000:00000004       __tls_array                00000004     <absolute>
 0001:00000000       __enc$textbss$begin        004003e0     <linker-defined>
 0001:000b4c84       __enc$textbss$end          004b5064     <linker-defined>
 0002:00008540       _main                      004bd5c0 f   ARKANOTRON.obj
 0002:000094d0       _BallRespown               004be550 f   GAME_Functions.obj
 0002:00009670       _ScaleLine                 004be6f0 f   GUI_Functions.obj
 0002:000096c0       _Scale                     004be740 f   GUI_Functions.obj
 0002:00009780       _IsRectColliding           004be800 f   GUI_Functions.obj
 0002:00009920       _Bounce                    004be9a0 f   GUI_Functions.obj
 0002:00009c00       _SDL_InitSubSystem         004bec80 f   libSDLx:SDL.obj
 0002:00009dd0       _SDL_Init                  004bee50 f   libSDLx:SDL.obj
 0002:00009e50       _SDL_QuitSubSystem         004beed0 f   libSDLx:SDL.obj
 0002:00009f60       _SDL_WasInit               004befe0 f   libSDLx:SDL.obj
 0002:00009fb0       _SDL_Quit                  004bf030 f   libSDLx:SDL.obj
 0002:0000a010       _SDL_Linked_Version        004bf090 f   libSDLx:SDL.obj
 0002:0000a050       _SDL_CreateRGBSurface      004bf0d0 f   libSDLx:SDL_surface.obj
 0002:0000a480       _SDL_CreateRGBSurfaceFrom  004bf500 f   libSDLx:SDL_surface.obj
 0002:0000a550       _SDL_SetColorKey           004bf5d0 f   libSDLx:SDL_surface.obj
 0002:0000a730       _SDL_SetAlpha              004bf7b0 f   libSDLx:SDL_surface.obj
 0002:0000a970       _SDL_SetAlphaChannel       004bf9f0 f   libSDLx:SDL_surface.obj
 0002:0000ab10       _SDL_SetClipRect           004bfb90 f   libSDLx:SDL_surface.obj
 0002:0000adc0       _SDL_GetClipRect           004bfe40 f   libSDLx:SDL_surface.obj
 0002:0000ae20       _SDL_LowerBlit             004bfea0 f   libSDLx:SDL_surface.obj
 0002:0000b020       _SDL_UpperBlit             004c00a0 f   libSDLx:SDL_surface.obj
 0002:0000b3e0       _SDL_FillRect              004c0460 f   libSDLx:SDL_surface.obj
 0002:0000be10       _SDL_LockSurface           004c0e90 f   libSDLx:SDL_surface.obj
 0002:0000bf10       _SDL_UnlockSurface         004c0f90 f   libSDLx:SDL_surface.obj
 0002:0000c010       _SDL_ConvertSurface        004c1090 f   libSDLx:SDL_surface.obj
 0002:0000c4e0       _SDL_FreeSurface           004c1560 f   libSDLx:SDL_surface.obj
 0002:0000c6a0       _SDL_JoystickInit          004c1720 f   libSDLx:SDL_joystick.obj
 0002:0000c780       _SDL_NumJoysticks          004c1800 f   libSDLx:SDL_joystick.obj
 0002:0000c7c0       _SDL_JoystickName          004c1840 f   libSDLx:SDL_joystick.obj
 0002:0000c850       _SDL_JoystickOpen          004c18d0 f   libSDLx:SDL_joystick.obj
 0002:0000cbe0       _SDL_JoystickOpened        004c1c60 f   libSDLx:SDL_joystick.obj
 0002:0000cc70       _SDL_JoystickIndex         004c1cf0 f   libSDLx:SDL_joystick.obj
 0002:0000cd40       _SDL_JoystickNumAxes       004c1dc0 f   libSDLx:SDL_joystick.obj
 0002:0000cda0       _SDL_JoystickNumHats       004c1e20 f   libSDLx:SDL_joystick.obj
 0002:0000ce00       _SDL_JoystickNumBalls      004c1e80 f   libSDLx:SDL_joystick.obj
 0002:0000ce60       _SDL_JoystickNumButtons    004c1ee0 f   libSDLx:SDL_joystick.obj
 0002:0000cec0       _SDL_JoystickGetAxis       004c1f40 f   libSDLx:SDL_joystick.obj
 0002:0000cf70       _SDL_JoystickGetHat        004c1ff0 f   libSDLx:SDL_joystick.obj
 0002:0000d010       _SDL_JoystickGetBall       004c2090 f   libSDLx:SDL_joystick.obj
 0002:0000d110       _SDL_JoystickGetButton     004c2190 f   libSDLx:SDL_joystick.obj
 0002:0000d1b0       _SDL_JoystickClose         004c2230 f   libSDLx:SDL_joystick.obj
 0002:0000d350       _SDL_JoystickQuit          004c23d0 f   libSDLx:SDL_joystick.obj
 0002:0000d460       _SDL_PrivateJoystickAxis   004c24e0 f   libSDLx:SDL_joystick.obj
 0002:0000d580       _SDL_PrivateJoystickHat    004c2600 f   libSDLx:SDL_joystick.obj
 0002:0000d6a0       _SDL_PrivateJoystickBall   004c2720 f   libSDLx:SDL_joystick.obj
 0002:0000d810       _SDL_PrivateJoystickButton 004c2890 f   libSDLx:SDL_joystick.obj
 0002:0000d970       _SDL_JoystickUpdate        004c29f0 f   libSDLx:SDL_joystick.obj
 0002:0000da00       _SDL_JoystickEventState    004c2a80 f   libSDLx:SDL_joystick.obj
 0002:0000db40       _SDL_VideoInit             004c2bc0 f   libSDLx:SDL_video.obj
 0002:0000e070       _SDL_VideoDriverName       004c30f0 f   libSDLx:SDL_video.obj
 0002:0000e0f0       _SDL_GetVideoSurface       004c3170 f   libSDLx:SDL_video.obj
 0002:0000e150       _SDL_GetVideoInfo          004c31d0 f   libSDLx:SDL_video.obj
 0002:0000e1b0       _SDL_ListModes             004c3230 f   libSDLx:SDL_video.obj
 0002:0000e270       _SDL_VideoModeOK           004c32f0 f   libSDLx:SDL_video.obj
 0002:0000e500       _SDL_SetVideoMode          004c3580 f   libSDLx:SDL_video.obj
 0002:0000f510       _SDL_DisplayFormat         004c4590 f   libSDLx:SDL_video.obj
 0002:0000f600       _SDL_DisplayFormatAlpha    004c4680 f   libSDLx:SDL_video.obj
 0002:0000f810       _SDL_UpdateRect            004c4890 f   libSDLx:SDL_video.obj
 0002:0000f920       _SDL_UpdateRects           004c49a0 f   libSDLx:SDL_video.obj
 0002:0000fd10       _SDL_Flip                  004c4d90 f   libSDLx:SDL_video.obj
 0002:0000ffe0       _SDL_SetPalette            004c5060 f   libSDLx:SDL_video.obj
 0002:000105c0       _SDL_SetColors             004c5640 f   libSDLx:SDL_video.obj
 0002:00010620       _SDL_VideoQuit             004c56a0 f   libSDLx:SDL_video.obj
 0002:000108b0       _SDL_GL_LoadLibrary        004c5930 f   libSDLx:SDL_video.obj
 0002:00010970       _SDL_GL_GetProcAddress     004c59f0 f   libSDLx:SDL_video.obj
 0002:00010a40       _SDL_GL_SetAttribute       004c5ac0 f   libSDLx:SDL_video.obj
 0002:00010c80       _SDL_GL_GetAttribute       004c5d00 f   libSDLx:SDL_video.obj
 0002:00010d40       _SDL_GL_SwapBuffers        004c5dc0 f   libSDLx:SDL_video.obj
 0002:00010de0       _SDL_GL_UpdateRectsLock    004c5e60 f   libSDLx:SDL_video.obj
 0002:00010e40       _SDL_GL_UpdateRects        004c5ec0 f   libSDLx:SDL_video.obj
 0002:00010e70       _SDL_GL_Lock               004c5ef0 f   libSDLx:SDL_video.obj
 0002:00010ea0       _SDL_GL_Unlock             004c5f20 f   libSDLx:SDL_video.obj
 0002:00010ed0       _SDL_WM_SetCaption         004c5f50 f   libSDLx:SDL_video.obj
 0002:00011030       _SDL_WM_GetCaption         004c60b0 f   libSDLx:SDL_video.obj
 0002:000110b0       _SDL_WM_SetIcon            004c6130 f   libSDLx:SDL_video.obj
 0002:00011860       _SDL_WM_GrabInput          004c68e0 f   libSDLx:SDL_video.obj
 0002:00011af0       _SDL_WM_IconifyWindow      004c6b70 f   libSDLx:SDL_video.obj
 0002:00011b90       _SDL_WM_ToggleFullScreen   004c6c10 f   libSDLx:SDL_video.obj
 0002:00011d60       _SDL_GetWMInfo             004c6de0 f   libSDLx:SDL_video.obj
 0002:00011e00       _SDL_Lock_EventThread      004c6e80 f   libSDLx:SDL_events.obj
 0002:00011e90       _SDL_Unlock_EventThread    004c6f10 f   libSDLx:SDL_events.obj
 0002:00011f00       _SDL_EventThreadID         004c6f80 f   libSDLx:SDL_events.obj
 0002:00011f40       _SDL_StopEventLoop         004c6fc0 f   libSDLx:SDL_events.obj
 0002:00012090       _SDL_StartEventLoop        004c7110 f   libSDLx:SDL_events.obj
 0002:00012400       _SDL_PeepEvents            004c7480 f   libSDLx:SDL_events.obj
 0002:000128b0       _SDL_PumpEvents            004c7930 f   libSDLx:SDL_events.obj
 0002:00012960       _SDL_PollEvent             004c79e0 f   libSDLx:SDL_events.obj
 0002:000129d0       _SDL_WaitEvent             004c7a50 f   libSDLx:SDL_events.obj
 0002:00012a80       _SDL_PushEvent             004c7b00 f   libSDLx:SDL_events.obj
 0002:00012af0       _SDL_SetEventFilter        004c7b70 f   libSDLx:SDL_events.obj
 0002:00012b90       _SDL_GetEventFilter        004c7c10 f   libSDLx:SDL_events.obj
 0002:00012bd0       _SDL_EventState            004c7c50 f   libSDLx:SDL_events.obj
 0002:00012db0       _SDL_PrivateSysWMEvent     004c7e30 f   libSDLx:SDL_events.obj
 0002:00012eb0       _SDL_KeyboardInit          004c7f30 f   libSDLx:SDL_keyboard.obj
 0002:00013b50       _SDL_KeyboardQuit          004c8bd0 f   libSDLx:SDL_keyboard.obj
 0002:00013b80       _SDL_ResetKeyboard         004c8c00 f   libSDLx:SDL_keyboard.obj
 0002:00013c70       _SDL_EnableUNICODE         004c8cf0 f   libSDLx:SDL_keyboard.obj
 0002:00013cc0       _SDL_GetKeyState           004c8d40 f   libSDLx:SDL_keyboard.obj
 0002:00013d10       _SDL_GetModState           004c8d90 f   libSDLx:SDL_keyboard.obj
 0002:00013d50       _SDL_SetModState           004c8dd0 f   libSDLx:SDL_keyboard.obj
 0002:00013d90       _SDL_GetKeyName            004c8e10 f   libSDLx:SDL_keyboard.obj
 0002:00013e00       _SDL_PrivateKeyboard       004c8e80 f   libSDLx:SDL_keyboard.obj
 0002:00014430       _SDL_CheckKeyRepeat        004c94b0 f   libSDLx:SDL_keyboard.obj
 0002:00014520       _SDL_EnableKeyRepeat       004c95a0 f   libSDLx:SDL_keyboard.obj
 0002:000145c0       _SDL_GetKeyRepeat          004c9640 f   libSDLx:SDL_keyboard.obj
 0002:00014610       _SDL_SetError              004c9690 f   libSDLx:SDL_error.obj
 0002:000149d0       _SDL_GetErrorMsg           004c9a50 f   libSDLx:SDL_error.obj
 0002:00014eb0       _SDL_GetError              004c9f30 f   libSDLx:SDL_error.obj
 0002:00014f10       _SDL_ClearError            004c9f90 f   libSDLx:SDL_error.obj
 0002:00014f70       _SDL_Error                 004c9ff0 f   libSDLx:SDL_error.obj
 0002:00015050       _SDL_CDROMInit             004ca0d0 f   libSDLx:SDL_cdrom.obj
 0002:000150d0       _SDL_CDNumDrives           004ca150 f   libSDLx:SDL_cdrom.obj
 0002:000151e0       _SDL_CDName                004ca260 f   libSDLx:SDL_cdrom.obj
 0002:00015290       _SDL_CDOpen                004ca310 f   libSDLx:SDL_cdrom.obj
 0002:000153a0       _SDL_CDStatus              004ca420 f   libSDLx:SDL_cdrom.obj
 0002:00015540       _SDL_CDPlayTracks          004ca5c0 f   libSDLx:SDL_cdrom.obj
 0002:00015780       _SDL_CDPlay                004ca800 f   libSDLx:SDL_cdrom.obj
 0002:00015800       _SDL_CDPause               004ca880 f   libSDLx:SDL_cdrom.obj
 0002:000158d0       _SDL_CDResume              004ca950 f   libSDLx:SDL_cdrom.obj
 0002:000159a0       _SDL_CDStop                004caa20 f   libSDLx:SDL_cdrom.obj
 0002:00015a70       _SDL_CDEject               004caaf0 f   libSDLx:SDL_cdrom.obj
 0002:00015af0       _SDL_CDClose               004cab70 f   libSDLx:SDL_cdrom.obj
 0002:00015b80       _SDL_CDROMQuit             004cac00 f   libSDLx:SDL_cdrom.obj
 0002:00015be0       _SDL_RunAudio              004cac60 f   libSDLx:SDL_audio.obj
 0002:00015ee0       _SDL_AudioInit             004caf60 f   libSDLx:SDL_audio.obj
 0002:00016200       _SDL_AudioDriverName       004cb280 f   libSDLx:SDL_audio.obj
 0002:00016280       _SDL_OpenAudio             004cb300 f   libSDLx:SDL_audio.obj
 0002:00016a10       _SDL_GetAudioStatus        004cba90 f   libSDLx:SDL_audio.obj
 0002:00016a90       _SDL_PauseAudio            004cbb10 f   libSDLx:SDL_audio.obj
 0002:00016ae0       _SDL_LockAudio             004cbb60 f   libSDLx:SDL_audio.obj
 0002:00016b60       _SDL_UnlockAudio           004cbbe0 f   libSDLx:SDL_audio.obj
 0002:00016be0       _SDL_CloseAudio            004cbc60 f   libSDLx:SDL_audio.obj
 0002:00016c30       _SDL_AudioQuit             004cbcb0 f   libSDLx:SDL_audio.obj
 0002:00016d90       _SDL_FirstAudioFormat      004cbe10 f   libSDLx:SDL_audio.obj
 0002:00016e30       _SDL_NextAudioFormat       004cbeb0 f   libSDLx:SDL_audio.obj
 0002:00016ec0       _SDL_CalculateAudioSpec    004cbf40 f   libSDLx:SDL_audio.obj
 0002:00016f80       _SDL_Audio_SetCaption      004cc000 f   libSDLx:SDL_audio.obj
 0002:00017000       _SDL_putenv                004cc080 f   libSDLx:SDL_getenv.obj
 0002:00017240       _SDL_getenv                004cc2c0 f   libSDLx:SDL_getenv.obj
 0002:00017350       _SDL_SetTimerThreaded      004cc3d0 f   libSDLx:SDL_timer.obj
 0002:000173d0       _SDL_TimerInit             004cc450 f   libSDLx:SDL_timer.obj
 0002:00017470       _SDL_TimerQuit             004cc4f0 f   libSDLx:SDL_timer.obj
 0002:00017520       _SDL_ThreadedTimerCheck    004cc5a0 f   libSDLx:SDL_timer.obj
 0002:00017770       _SDL_AddTimer              004cc7f0 f   libSDLx:SDL_timer.obj
 0002:00017930       _SDL_RemoveTimer           004cc9b0 f   libSDLx:SDL_timer.obj
 0002:00017a40       _SDL_SetTimer              004ccac0 f   libSDLx:SDL_timer.obj
 0002:00017c10       _SDL_StartTicks            004ccc90 f   libSDLx:SDL_systimer.obj
 0002:00017c70       _SDL_GetTicks              004cccf0 f   libSDLx:SDL_systimer.obj
 0002:00017db0       _SDL_Delay                 004cce30 f   libSDLx:SDL_systimer.obj
 0002:00017e00       _SDL_SYS_TimerInit         004cce80 f   libSDLx:SDL_systimer.obj
 0002:00017ee0       _SDL_SYS_TimerQuit         004ccf60 f   libSDLx:SDL_systimer.obj
 0002:00017f40       _SDL_SYS_StartTimer        004ccfc0 f   libSDLx:SDL_systimer.obj
 0002:00017fa0       _SDL_SYS_StopTimer         004cd020 f   libSDLx:SDL_systimer.obj
 0002:00017fd0       _SDL_InstallParachute      004cd050 f   libSDLx:SDL_fatal.obj
 0002:00018000       _SDL_UninstallParachute    004cd080 f   libSDLx:SDL_fatal.obj
 0002:00018030       _SDL_AllocFormat           004cd0b0 f   libSDLx:SDL_pixels.obj
 0002:000188d0       _SDL_ReallocFormat         004cd950 f   libSDLx:SDL_pixels.obj
 0002:00018970       _SDL_FormatChanged         004cd9f0 f   libSDLx:SDL_pixels.obj
 0002:000189f0       _SDL_FreeFormat            004cda70 f   libSDLx:SDL_pixels.obj
 0002:00018a90       _SDL_DitherColors          004cdb10 f   libSDLx:SDL_pixels.obj
 0002:00018bb0       _SDL_CalculatePitch        004cdc30 f   libSDLx:SDL_pixels.obj
 0002:00018c70       _SDL_FindColor             004cdcf0 f   libSDLx:SDL_pixels.obj
 0002:00018d80       _SDL_MapRGB                004cde00 f   libSDLx:SDL_pixels.obj
 0002:00018e50       _SDL_MapRGBA               004cded0 f   libSDLx:SDL_pixels.obj
 0002:00018f40       _SDL_GetRGBA               004cdfc0 f   libSDLx:SDL_pixels.obj
 0002:00019130       _SDL_GetRGB                004ce1b0 f   libSDLx:SDL_pixels.obj
 0002:000192b0       _SDL_ApplyGamma            004ce330 f   libSDLx:SDL_pixels.obj
 0002:00019380       _SDL_AllocBlitMap          004ce400 f   libSDLx:SDL_pixels.obj
 0002:00019460       _SDL_InvalidateMap         004ce4e0 f   libSDLx:SDL_pixels.obj
 0002:000194f0       _SDL_MapSurface            004ce570 f   libSDLx:SDL_pixels.obj
 0002:00019e10       _SDL_FreeBlitMap           004cee90 f   libSDLx:SDL_pixels.obj
 0002:00019ea0       _SDL_RLEBlit               004cef20 f   libSDLx:SDL_RLEaccel.obj
 0002:00020ea0       _SDL_RLEAlphaBlit          004d5f20 f   libSDLx:SDL_RLEaccel.obj
 0002:00022b80       _SDL_RLESurface            004d7c00 f   libSDLx:SDL_RLEaccel.obj
 0002:00024620       _SDL_UnRLESurface          004d96a0 f   libSDLx:SDL_RLEaccel.obj
 0002:00024fd0       _xfabsf                    004da050 f   libSDLx:SDL_sysjoystick.obj
 0002:00025070       _SDL_SYS_JoystickInit      004da0f0 f   libSDLx:SDL_sysjoystick.obj
 0002:000250b0       _SDL_SYS_JoystickName      004da130 f   libSDLx:SDL_sysjoystick.obj
 0002:000250f0       _SDL_SYS_JoystickOpen      004da170 f   libSDLx:SDL_sysjoystick.obj
 0002:00025310       _SDL_SYS_JoystickUpdate    004da390 f   libSDLx:SDL_sysjoystick.obj
 0002:00025e60       _SDL_SYS_JoystickClose     004daee0 f   libSDLx:SDL_sysjoystick.obj
 0002:00025ec0       _SDL_SYS_JoystickQuit      004daf40 f   libSDLx:SDL_sysjoystick.obj
 0002:00025ef0       _XBInput_RefreshDeviceList 004daf70 f   libSDLx:SDL_sysjoystick.obj
 0002:00026140       _SDL_XBOX_SetScreenPosition 004db1c0 f   libSDLx:SDL_xboxvideo.obj
 0002:000261c0       _SDL_XBOX_SetScreenStretch 004db240 f   libSDLx:SDL_xboxvideo.obj
 0002:00026240       _SDL_XBOX_GetScreenPosition 004db2c0 f   libSDLx:SDL_xboxvideo.obj
 0002:000262a0       _SDL_XBOX_GetScreenStretch 004db320 f   libSDLx:SDL_xboxvideo.obj
 0002:00026300       _SDL_XBOX_SetFlickerFilter 004db380 f   libSDLx:SDL_xboxvideo.obj
 0002:00026360       _SDL_XBOX_SetSoftDisplayFilter 004db3e0 f   libSDLx:SDL_xboxvideo.obj
 0002:00028f10       _SDL_CursorQuit            004ddf90 f   libSDLx:SDL_cursor.obj
 0002:00029000       _SDL_CursorInit            004de080 f   libSDLx:SDL_cursor.obj
 0002:000290b0       _SDL_CreateCursor          004de130 f   libSDLx:SDL_cursor.obj
 0002:00029390       _SDL_SetCursor             004de410 f   libSDLx:SDL_cursor.obj
 0002:000296c0       _SDL_GetCursor             004de740 f   libSDLx:SDL_cursor.obj
 0002:00029700       _SDL_FreeCursor            004de780 f   libSDLx:SDL_cursor.obj
 0002:00029830       _SDL_ShowCursor            004de8b0 f   libSDLx:SDL_cursor.obj
 0002:00029970       _SDL_WarpMouse             004de9f0 f   libSDLx:SDL_cursor.obj
 0002:00029b30       _SDL_MoveCursor            004debb0 f   libSDLx:SDL_cursor.obj
 0002:00029c80       _SDL_CursorPaletteChanged  004ded00 f   libSDLx:SDL_cursor.obj
 0002:00029cc0       _SDL_MouseRect             004ded40 f   libSDLx:SDL_cursor.obj
 0002:00029e60       _SDL_DrawCursorNoLock      004deee0 f   libSDLx:SDL_cursor.obj
 0002:0002ace0       _SDL_DrawCursor            004dfd60 f   libSDLx:SDL_cursor.obj
 0002:0002ae50       _SDL_EraseCursorNoLock     004dfed0 f   libSDLx:SDL_cursor.obj
 0002:0002b1c0       _SDL_EraseCursor           004e0240 f   libSDLx:SDL_cursor.obj
 0002:0002b330       _SDL_ResetCursor           004e03b0 f   libSDLx:SDL_cursor.obj
 0002:0002b3e0       _SDL_revcpy                004e0460 f   libSDLx:SDL_string.obj
 0002:0002b490       _SDL_strlcpy               004e0510 f   libSDLx:SDL_string.obj
 0002:0002b550       _SDL_strlcat               004e05d0 f   libSDLx:SDL_string.obj
 0002:0002b5f0       _SDL_strdup                004e0670 f   libSDLx:SDL_string.obj
 0002:0002b680       _SDL_lltoa                 004e0700 f   libSDLx:SDL_string.obj
 0002:0002b7d0       _SDL_ulltoa                004e0850 f   libSDLx:SDL_string.obj
 0002:0002b8c0       _SDL_strtoull              004e0940 f   libSDLx:SDL_string.obj
 0002:0002bb50       _SDL_snprintf              004e0bd0 f   libSDLx:SDL_string.obj
 0002:0002bbd0       _SDL_vsnprintf             004e0c50 f   libSDLx:SDL_string.obj
 0002:0002c820       _SDL_MouseInit             004e18a0 f   libSDLx:SDL_mouse.obj
 0002:0002c8a0       _SDL_MouseQuit             004e1920 f   libSDLx:SDL_mouse.obj
 0002:0002c8d0       _SDL_ResetMouse            004e1950 f   libSDLx:SDL_mouse.obj
 0002:0002c970       _SDL_GetMouseState         004e19f0 f   libSDLx:SDL_mouse.obj
 0002:0002c9e0       _SDL_GetRelativeMouseState 004e1a60 f   libSDLx:SDL_mouse.obj
 0002:0002ca60       _SDL_SetMouseRange         004e1ae0 f   libSDLx:SDL_mouse.obj
 0002:0002cab0       _SDL_PrivateMouseMotion    004e1b30 f   libSDLx:SDL_mouse.obj
 0002:0002ce80       _SDL_PrivateMouseButton    004e1f00 f   libSDLx:SDL_mouse.obj
 0002:0002d140       _SDL_CreateMutex           004e21c0 f   libSDLx:SDL_sysmutex.obj
 0002:0002d1f0       _SDL_DestroyMutex          004e2270 f   libSDLx:SDL_sysmutex.obj
 0002:0002d270       _SDL_mutexP                004e22f0 f   libSDLx:SDL_sysmutex.obj
 0002:0002d300       _SDL_mutexV                004e2380 f   libSDLx:SDL_sysmutex.obj
 0002:0002d390       _SDL_PrivateResize         004e2410 f   libSDLx:SDL_resize.obj
 0002:0002d530       _SDL_SYS_CreateThread      004e25b0 f   libSDLx:SDL_systhread.obj
 0002:0002d660       _SDL_SYS_SetupThread       004e26e0 f   libSDLx:SDL_systhread.obj
 0002:0002d690       _SDL_ThreadID              004e2710 f   libSDLx:SDL_systhread.obj
 0002:0002d6e0       _SDL_SYS_WaitThread        004e2760 f   libSDLx:SDL_systhread.obj
 0002:0002d740       _SDL_SYS_KillThread        004e27c0 f   libSDLx:SDL_systhread.obj
 0002:0002d7a0       _SDL_QuitInit              004e2820 f   libSDLx:SDL_quit.obj
 0002:0002d7d0       _SDL_QuitQuit              004e2850 f   libSDLx:SDL_quit.obj
 0002:0002d800       _SDL_PrivateQuit           004e2880 f   libSDLx:SDL_quit.obj
 0002:0002d8e0       _SDL_AppActiveInit         004e2960 f   libSDLx:SDL_active.obj
 0002:0002d920       _SDL_AppActiveQuit         004e29a0 f   libSDLx:SDL_active.obj
 0002:0002d950       _SDL_GetAppState           004e29d0 f   libSDLx:SDL_active.obj
 0002:0002d990       _SDL_PrivateAppActive      004e2a10 f   libSDLx:SDL_active.obj
 0002:0002db20       _SDL_ThreadsInit           004e2ba0 f   libSDLx:SDL_thread.obj
 0002:0002db90       _SDL_ThreadsQuit           004e2c10 f   libSDLx:SDL_thread.obj
 0002:0002dc00       _SDL_GetErrBuf             004e2c80 f   libSDLx:SDL_thread.obj
 0002:0002dce0       _SDL_RunThread             004e2d60 f   libSDLx:SDL_thread.obj
 0002:0002dda0       _SDL_CreateThread          004e2e20 f   libSDLx:SDL_thread.obj
 0002:0002e1d0       _SDL_WaitThread            004e3250 f   libSDLx:SDL_thread.obj
 0002:0002e260       _SDL_GetThreadID           004e32e0 f   libSDLx:SDL_thread.obj
 0002:0002e2c0       _SDL_KillThread            004e3340 f   libSDLx:SDL_thread.obj
 0002:0002e330       _SDL_SYS_CDInit            004e33b0 f   libSDLx:SDL_syscdrom.obj
 0002:0002e6f0       _SDL_SYS_CDQuit            004e3770 f   libSDLx:SDL_syscdrom.obj
 0002:0002e8d0       _Remount                   004e3950 f   libSDLx:SDL_syscdrom.obj
 0002:0002eac0       _Mount                     004e3b40 f   libSDLx:SDL_syscdrom.obj
 0002:0002ebf0       _Unmount                   004e3c70 f   libSDLx:SDL_syscdrom.obj
 0002:0002f1d0       _TocValToFrames            004e4250 f i libSDLx:SDL_syscdrom.obj
 0002:0002f230       _MsfToFrames               004e42b0 f i libSDLx:SDL_syscdrom.obj
 0002:0002f290       _TocValToMsf               004e4310 f i libSDLx:SDL_syscdrom.obj
 0002:0002f670       _cdrom_cdda_play           004e46f0 f   libSDLx:SDL_syscdrom.obj
 0002:0002f7b0       _cddapause                 004e4830 f   libSDLx:SDL_syscdrom.obj
 0002:0002f8c0       _cddaprocess               004e4940 f   libSDLx:SDL_syscdrom.obj
 0002:0002fd60       _ReadSectorCDDA            004e4de0 f   libSDLx:SDL_syscdrom.obj
 0002:00030140       _XboxDX_SoundFocus         004e51c0 f   libSDLx:SDL_xboxaudio.obj
 0002:00031030       _SDL_ConvertMono           004e60b0 f   libSDLx:SDL_audiocvt.obj
 0002:000315b0       _SDL_ConvertStrip          004e6630 f   libSDLx:SDL_audiocvt.obj
 0002:00031bc0       _SDL_ConvertStrip_2        004e6c40 f   libSDLx:SDL_audiocvt.obj
 0002:000321d0       _SDL_ConvertStereo         004e7250 f   libSDLx:SDL_audiocvt.obj
 0002:00032390       _SDL_ConvertSurround       004e7410 f   libSDLx:SDL_audiocvt.obj
 0002:000330c0       _SDL_ConvertSurround_4     004e8140 f   libSDLx:SDL_audiocvt.obj
 0002:00033bf0       _SDL_Convert16LSB          004e8c70 f   libSDLx:SDL_audiocvt.obj
 0002:00033d20       _SDL_Convert16MSB          004e8da0 f   libSDLx:SDL_audiocvt.obj
 0002:00033e50       _SDL_Convert8              004e8ed0 f   libSDLx:SDL_audiocvt.obj
 0002:00033f90       _SDL_ConvertSign           004e9010 f   libSDLx:SDL_audiocvt.obj
 0002:00034100       _SDL_ConvertEndian         004e9180 f   libSDLx:SDL_audiocvt.obj
 0002:00034210       _SDL_RateMUL2              004e9290 f   libSDLx:SDL_audiocvt.obj
 0002:000343e0       _SDL_RateMUL2_c2           004e9460 f   libSDLx:SDL_audiocvt.obj
 0002:00034620       _SDL_RateMUL2_c4           004e96a0 f   libSDLx:SDL_audiocvt.obj
 0002:00034920       _SDL_RateMUL2_c6           004e99a0 f   libSDLx:SDL_audiocvt.obj
 0002:00034ce0       _SDL_RateDIV2              004e9d60 f   libSDLx:SDL_audiocvt.obj
 0002:00034e80       _SDL_RateDIV2_c2           004e9f00 f   libSDLx:SDL_audiocvt.obj
 0002:00035050       _SDL_RateDIV2_c4           004ea0d0 f   libSDLx:SDL_audiocvt.obj
 0002:00035280       _SDL_RateDIV2_c6           004ea300 f   libSDLx:SDL_audiocvt.obj
 0002:00035510       _SDL_RateSLOW              004ea590 f   libSDLx:SDL_audiocvt.obj
 0002:00035830       _SDL_ConvertAudio          004ea8b0 f   libSDLx:SDL_audiocvt.obj
 0002:000358f0       _SDL_BuildAudioCVT         004ea970 f   libSDLx:SDL_audiocvt.obj
 0002:000360c0       _SDL_CalculateBlit         004eb140 f   libSDLx:SDL_blit.obj
 0002:00036b20       _XBOX_PumpEvents           004ebba0 f   libSDLx:SDL_xboxevents.obj
 0002:00036b70       _XBOX_InitOSKeymap         004ebbf0 f   libSDLx:SDL_xboxevents.obj
 0002:00037340       _XBInput_GetKeyboardInput  004ec3c0 f   libSDLx:SDL_xboxevents.obj
 0002:000378c0       _Mouse_RefreshDeviceList   004ec940 f   libSDLx:SDL_xboxevents.obj
 0002:00037ad0       _SDL_CreateSemaphore       004ecb50 f   libSDLx:SDL_syssem.obj
 0002:00037ba0       _SDL_DestroySemaphore      004ecc20 f   libSDLx:SDL_syssem.obj
 0002:00037c20       _SDL_SemWaitTimeout        004ecca0 f   libSDLx:SDL_syssem.obj
 0002:00037d20       _SDL_SemTryWait            004ecda0 f   libSDLx:SDL_syssem.obj
 0002:00037d70       _SDL_SemWait               004ecdf0 f   libSDLx:SDL_syssem.obj
 0002:00037dc0       _SDL_SemValue              004ece40 f   libSDLx:SDL_syssem.obj
 0002:00037e30       _SDL_SemPost               004eceb0 f   libSDLx:SDL_syssem.obj
 0002:0003ad40       _SDL_CalculateBlitN        004efdc0 f   libSDLx:SDL_blit_N.obj
 0002:00047210       _SDL_CalculateBlit1        004fc290 f   libSDLx:SDL_blit_1.obj
 0002:0004bc10       _SDL_CalculateBlit0        00500c90 f   libSDLx:SDL_blit_0.obj
 0002:0004c9b0       _SDL_HasRDTSC              00501a30 f   libSDLx:SDL_cpuinfo.obj
 0002:0004cf90       _SDL_HasMMX                00502010 f   libSDLx:SDL_cpuinfo.obj
 0002:0004cff0       _SDL_HasMMXExt             00502070 f   libSDLx:SDL_cpuinfo.obj
 0002:0004d050       _SDL_Has3DNow              005020d0 f   libSDLx:SDL_cpuinfo.obj
 0002:0004d0b0       _SDL_Has3DNowExt           00502130 f   libSDLx:SDL_cpuinfo.obj
 0002:0004d110       _SDL_HasSSE                00502190 f   libSDLx:SDL_cpuinfo.obj
 0002:0004d170       _SDL_HasSSE2               005021f0 f   libSDLx:SDL_cpuinfo.obj
 0002:0004d1d0       _SDL_HasAltiVec            00502250 f   libSDLx:SDL_cpuinfo.obj
 0002:0004d230       _SDL_CalculateAlphaBlit    005022b0 f   libSDLx:SDL_blit_A.obj
 0002:00058a60       _IMG_Linked_Version        0050dae0 f   SDL_Image:IMG.obj
 0002:00058ab0       _IMG_Init                  0050db30 f   SDL_Image:IMG.obj
 0002:00058bd0       _IMG_Quit                  0050dc50 f   SDL_Image:IMG.obj
 0002:00058c70       _IMG_Load                  0050dcf0 f   SDL_Image:IMG.obj
 0002:00058d20       _IMG_Load_RW               0050dda0 f   SDL_Image:IMG.obj
 0002:00058d80       _IMG_LoadTyped_RW          0050de00 f   SDL_Image:IMG.obj
 0002:00059040       _IMG_InvertAlpha           0050e0c0 f   SDL_Image:IMG.obj
 0002:00059080       _IMG_InitWEBP              0050e100 f   SDL_Image:IMG_webp.obj
 0002:000590e0       _IMG_QuitWEBP              0050e160 f   SDL_Image:IMG_webp.obj
 0002:00059110       _IMG_isWEBP                0050e190 f   SDL_Image:IMG_webp.obj
 0002:00059140       _IMG_LoadWEBP_RW           0050e1c0 f   SDL_Image:IMG_webp.obj
 0002:00059170       _IMG_isXV                  0050e1f0 f   SDL_Image:IMG_xv.obj
 0002:000591a0       _IMG_LoadXV_RW             0050e220 f   SDL_Image:IMG_xv.obj
 0002:000591d0       _IMG_isXPM                 0050e250 f   SDL_Image:IMG_xpm.obj
 0002:00059300       _IMG_LoadXPM_RW            0050e380 f   SDL_Image:IMG_xpm.obj
 0002:0005a570       _IMG_ReadXPMFromArray      0050f5f0 f   SDL_Image:IMG_xpm.obj
 0002:0005a5c0       _IMG_isXCF                 0050f640 f   SDL_Image:IMG_xcf.obj
 0002:0005a5f0       _IMG_LoadXCF_RW            0050f670 f   SDL_Image:IMG_xcf.obj
 0002:0005a620       _IMG_InitTIF               0050f6a0 f   SDL_Image:IMG_tif.obj
 0002:0005a680       _IMG_QuitTIF               0050f700 f   SDL_Image:IMG_tif.obj
 0002:0005a6b0       _IMG_isTIF                 0050f730 f   SDL_Image:IMG_tif.obj
 0002:0005a6e0       _IMG_LoadTIF_RW            0050f760 f   SDL_Image:IMG_tif.obj
 0002:0005a710       _IMG_isPNM                 0050f790 f   SDL_Image:IMG_pnm.obj
 0002:0005a840       _IMG_LoadPNM_RW            0050f8c0 f   SDL_Image:IMG_pnm.obj
 0002:0005b100       _IMG_InitPNG               00510180 f   SDL_Image:IMG_png.obj
 0002:0005b230       _IMG_QuitPNG               005102b0 f   SDL_Image:IMG_png.obj
 0002:0005b280       _IMG_isPNG                 00510300 f   SDL_Image:IMG_png.obj
 0002:0005b3c0       _IMG_LoadPNG_RW            00510440 f   SDL_Image:IMG_png.obj
 0002:0005bf00       _IMG_isPCX                 00510f80 f   SDL_Image:IMG_pcx.obj
 0002:0005c070       _IMG_LoadPCX_RW            005110f0 f   SDL_Image:IMG_pcx.obj
 0002:0005cc00       _IMG_isLBM                 00511c80 f   SDL_Image:IMG_lbm.obj
 0002:0005cd60       _IMG_LoadLBM_RW            00511de0 f   SDL_Image:IMG_lbm.obj
 0002:0005e400       _IMG_InitJPG               00513480 f   SDL_Image:IMG_jpg.obj
 0002:0005e4c0       _IMG_QuitJPG               00513540 f   SDL_Image:IMG_jpg.obj
 0002:0005e510       _IMG_isJPG                 00513590 f   SDL_Image:IMG_jpg.obj
 0002:0005e810       _IMG_LoadJPG_RW            00513890 f   SDL_Image:IMG_jpg.obj
 0002:0005efd0       _IMG_isGIF                 00514050 f   SDL_Image:IMG_gif.obj
 0002:0005f130       _IMG_LoadGIF_RW            005141b0 f   SDL_Image:IMG_gif.obj
 0002:00060880       _IMG_isBMP                 00515900 f   SDL_Image:IMG_bmp.obj
 0002:000609b0       _IMG_isICO                 00515a30 f   SDL_Image:IMG_bmp.obj
 0002:00060b10       _IMG_isCUR                 00515b90 f   SDL_Image:IMG_bmp.obj
 0002:00060b60       _IMG_LoadBMP_RW            00515be0 f   SDL_Image:IMG_bmp.obj
 0002:00061ff0       _IMG_LoadICO_RW            00517070 f   SDL_Image:IMG_bmp.obj
 0002:00062e80       _IMG_LoadCUR_RW            00517f00 f   SDL_Image:IMG_bmp.obj
 0002:00062ee0       _IMG_LoadTGA_RW            00517f60 f   SDL_Image:IMG_tga.obj
 0002:00063d00       _jpeg_std_error            00518d80 f   SDL_Image:jerror.obj
 0002:00064220       _jpeg_start_decompress     005192a0 f   SDL_Image:jdapistd.obj
 0002:00064620       _jpeg_read_scanlines       005196a0 f   SDL_Image:jdapistd.obj
 0002:000647e0       _jpeg_read_raw_data        00519860 f   SDL_Image:jdapistd.obj
 0002:000649b0       _jpeg_start_output         00519a30 f   SDL_Image:jdapistd.obj
 0002:00064ab0       _jpeg_finish_output        00519b30 f   SDL_Image:jdapistd.obj
 0002:00064c10       _jpeg_resync_to_restart    00519c90 f   SDL_Image:jdmarker.obj
 0002:00065130       _jinit_marker_reader       0051a1b0 f   SDL_Image:jdmarker.obj
 0002:00068ab0       _jpeg_save_markers         0051db30 f   SDL_Image:jdmarker.obj
 0002:00069170       _jpeg_set_marker_processor 0051e1f0 f   SDL_Image:jdmarker.obj
 0002:00069240       _jpeg_CreateDecompress     0051e2c0 f   SDL_Image:jdapimin.obj
 0002:00069490       _jpeg_destroy_decompress   0051e510 f   SDL_Image:jdapimin.obj
 0002:000694e0       _jpeg_abort_decompress     0051e560 f   SDL_Image:jdapimin.obj
 0002:00069530       _jpeg_read_header          0051e5b0 f   SDL_Image:jdapimin.obj
 0002:00069670       _jpeg_consume_input        0051e6f0 f   SDL_Image:jdapimin.obj
 0002:00069c90       _jpeg_input_complete       0051ed10 f   SDL_Image:jdapimin.obj
 0002:00069d40       _jpeg_has_multiple_scans   0051edc0 f   SDL_Image:jdapimin.obj
 0002:00069df0       _jpeg_finish_decompress    0051ee70 f   SDL_Image:jdapimin.obj
 0002:00069fb0       _jpeg_calc_output_dimensions 0051f030 f   SDL_Image:jdmaster.obj
 0002:0006a590       _jpeg_new_colormap         0051f610 f   SDL_Image:jdmaster.obj
 0002:0006a6c0       _jinit_master_decompress   0051f740 f   SDL_Image:jdmaster.obj
 0002:0006b190       _jpeg_abort                00520210 f   SDL_Image:jcomapi.obj
 0002:0006b260       _jpeg_destroy              005202e0 f   SDL_Image:jcomapi.obj
 0002:0006b2f0       _jpeg_alloc_quant_table    00520370 f   SDL_Image:jcomapi.obj
 0002:0006b370       _jpeg_alloc_huff_table     005203f0 f   SDL_Image:jcomapi.obj
 0002:0006b3f0       _jdiv_round_up             00520470 f   SDL_Image:jutils.obj
 0002:0006b430       _jround_up                 005204b0 f   SDL_Image:jutils.obj
 0002:0006b480       _jcopy_sample_rows         00520500 f   SDL_Image:jutils.obj
 0002:0006b550       _jcopy_block_row           005205d0 f   SDL_Image:jutils.obj
 0002:0006b5b0       _jzero_far                 00520630 f   SDL_Image:jutils.obj
 0002:0006b610       _jinit_input_controller    00520690 f   SDL_Image:jdinput.obj
 0002:0006c400       _jinit_memory_mgr          00521480 f   SDL_Image:jmemmgr.obj
 0002:0006e0c0       _jinit_d_main_controller   00523140 f   SDL_Image:jdmainct.obj
 0002:0006eec0       _jinit_d_coef_controller   00523f40 f   SDL_Image:jdcoefct.obj
 0002:00070dc0       _jpeg_make_d_derived_tbl   00525e40 f   SDL_Image:jdhuff.obj
 0002:00071360       _jpeg_fill_bit_buffer      005263e0 f   SDL_Image:jdhuff.obj
 0002:000715e0       _jpeg_huff_decode          00526660 f   SDL_Image:jdhuff.obj
 0002:000717c0       _jinit_huff_decoder        00526840 f   SDL_Image:jdhuff.obj
 0002:00072630       _jinit_phuff_decoder       005276b0 f   SDL_Image:jdphuff.obj
 0002:00074190       _jinit_inverse_dct         00529210 f   SDL_Image:jddctmgr.obj
 0002:00074710       _jinit_d_post_controller   00529790 f   SDL_Image:jdpostct.obj
 0002:00074ee0       _jinit_upsampler           00529f60 f   SDL_Image:jdsample.obj
 0002:00075db0       _jinit_color_deconverter   0052ae30 f   SDL_Image:jdcolor.obj
 0002:00076a70       _jinit_merged_upsampler    0052baf0 f   SDL_Image:jdmerge.obj
 0002:00077850       _jinit_2pass_quantizer     0052c8d0 f   SDL_Image:jquant2.obj
 0002:0007a400       _jinit_1pass_quantizer     0052f480 f   SDL_Image:jquant1.obj
 0002:0007bd50       _jpeg_get_small            00530dd0 f   SDL_Image:jmemansi.obj
 0002:0007bda0       _jpeg_free_small           00530e20 f   SDL_Image:jmemansi.obj
 0002:0007bdf0       _jpeg_get_large            00530e70 f   SDL_Image:jmemansi.obj
 0002:0007be40       _jpeg_free_large           00530ec0 f   SDL_Image:jmemansi.obj
 0002:0007be90       _jpeg_mem_available        00530f10 f   SDL_Image:jmemansi.obj
 0002:0007bed0       _jpeg_open_backing_store   00530f50 f   SDL_Image:jmemansi.obj
 0002:0007c1c0       _jpeg_mem_init             00531240 f   SDL_Image:jmemansi.obj
 0002:0007c200       _jpeg_mem_term             00531280 f   SDL_Image:jmemansi.obj
 0002:0007c230       _jpeg_idct_float           005312b0 f   SDL_Image:jidctflt.obj
 0002:0007cca0       _jpeg_idct_ifast           00531d20 f   SDL_Image:jidctfst.obj
 0002:0007d750       _jpeg_idct_islow           005327d0 f   SDL_Image:jidctint.obj
 0002:0007e340       _jpeg_idct_4x4             005333c0 f   SDL_Image:jidctred.obj
 0002:0007e9a0       _jpeg_idct_2x2             00533a20 f   SDL_Image:jidctred.obj
 0002:0007ed90       _jpeg_idct_1x1             00533e10 f   SDL_Image:jidctred.obj
 0002:0007ee4b       _mainXapiStartup@4         00533ecb f   xapilibd:xapi0.obj
 0002:0007eeeb       _mainCRTStartup            00533f6b f   xapilibd:xapi0.obj
 0002:0007ef79       _XboxTimeZoneNameToWstr@8  00533ff9 f i xapilibd:datetime.obj
 0002:0007efa4       _XboxTimeZoneDateToSystemTime@8 00534024 f i xapilibd:datetime.obj
 0002:0007efec       _XapipQueryTimeZoneInformation@8 0053406c f   xapilibd:datetime.obj
 0002:0007f0c0       _XapipUseDaylightSavingTime@0 00534140 f   xapilibd:datetime.obj
 0002:0007f0f7       _GetSystemTime@4           00534177 f   xapilibd:datetime.obj
 0002:0007f174       _GetTickCount@0            005341f4 f   xapilibd:datetime.obj
 0002:0007f17e       _FileTimeToSystemTime@8    005341fe f   xapilibd:datetime.obj
 0002:0007f221       _SystemTimeToFileTime@8    005342a1 f   xapilibd:datetime.obj
 0002:0007f2b3       _CompareFileTime@8         00534333 f   xapilibd:datetime.obj
 0002:0007f2fa       _RtlpCutoverTimeToSystemTime@16 0053437a f   xapilibd:datetime.obj
 0002:0007f586       _GetTimeZoneInformation@4  00534606 f   xapilibd:datetime.obj
 0002:0007f739       _XapipGetTimeZoneBias@4    005347b9 f   xapilibd:datetime.obj
 0002:0007f7a9       _GetLocalTime@4            00534829 f   xapilibd:datetime.obj
 0002:0007f847       _FileTimeToLocalFileTime@8 005348c7 f   xapilibd:datetime.obj
 0002:0007f87c       _LocalFileTimeToFileTime@8 005348fc f   xapilibd:datetime.obj
 0002:0007f8b1       _QueryPerformanceCounter@4 00534931 f   xapilibd:perfctr.obj
 0002:0007f8c6       _QueryPerformanceFrequency@4 00534946 f   xapilibd:perfctr.obj
 0002:0007f8e2       _CreateEventA@16           00534962 f   xapilibd:synch.obj
 0002:0007f95b       _OpenEventA@12             005349db f   xapilibd:synch.obj
 0002:0007f9ce       _SetEvent@4                00534a4e f   xapilibd:synch.obj
 0002:0007f9f9       _ResetEvent@4              00534a79 f   xapilibd:synch.obj
 0002:0007fa22       _PulseEvent@4              00534aa2 f   xapilibd:synch.obj
 0002:0007fa4d       _CreateSemaphoreA@16       00534acd f   xapilibd:synch.obj
 0002:0007fabe       _OpenSemaphoreA@12         00534b3e f   xapilibd:synch.obj
 0002:0007fb31       _ReleaseSemaphore@12       00534bb1 f   xapilibd:synch.obj
 0002:0007fb61       _CreateMutexA@12           00534be1 f   xapilibd:synch.obj
 0002:0007fbcf       _OpenMutexA@12             00534c4f f   xapilibd:synch.obj
 0002:0007fc42       _ReleaseMutex@4            00534cc2 f   xapilibd:synch.obj
 0002:0007fc6d       _WaitForSingleObjectEx@12  00534ced f   xapilibd:synch.obj
 0002:0007fcc2       _SignalObjectAndWait@16    00534d42 f   xapilibd:synch.obj
 0002:0007fd1a       _WaitForMultipleObjectsEx@20 00534d9a f   xapilibd:synch.obj
 0002:0007fdba       _SleepEx@8                 00534e3a f   xapilibd:synch.obj
 0002:0007fe20       _CreateWaitableTimerA@12   00534ea0 f   xapilibd:synch.obj
 0002:0007fe95       _OpenWaitableTimerA@12     00534f15 f   xapilibd:synch.obj
 0002:0007ff08       _SetWaitableTimer@24       00534f88 f   xapilibd:synch.obj
 0002:0007ff5f       _CancelWaitableTimer@4     00534fdf f   xapilibd:synch.obj
 0002:0007ff8a       _WaitForSingleObject@8     0053500a f   xapilibd:synch.obj
 0002:0007ffa3       _WaitForMultipleObjects@16 00535023 f   xapilibd:synch.obj
 0002:0007ffc3       _Sleep@4                   00535043 f   xapilibd:synch.obj
 0002:0007ffd8       _XapiMmTimerThread@4       00535058 f   xapilibd:mmtimer.obj
 0002:00080262       _timeSetEvent@20           005352e2 f   xapilibd:mmtimer.obj
 0002:00080408       _timeKillEvent@4           00535488 f   xapilibd:mmtimer.obj
 0002:00080495       _timeGetSystemTime@8       00535515 f   xapilibd:mmtimer.obj
 0002:000804c3       _XGetVideoStandard@0       00535543 f   xapilibd:xgetvideostandard.obj
 0002:000804f6       _XGetVideoFlags@0          00535576 f   xapilibd:xgetvideoflags.obj
 0002:00080551       _CloseHandle@4             005355d1 f   xapilibd:handle.obj
 0002:0008057a       _DuplicateHandle@28        005355fa f   xapilibd:handle.obj
 0002:000805aa       _XapiCallThreadNotifyRoutines@4 0053562a f   xapilibd:thread.obj
 0002:000805f3       _SetThreadPriority@8       00535673 f   xapilibd:thread.obj
 0002:00080659       _GetThreadPriority@4       005356d9 f   xapilibd:thread.obj
 0002:000806c2       _SetThreadPriorityBoost@8  00535742 f   xapilibd:thread.obj
 0002:00080719       _GetThreadPriorityBoost@8  00535799 f   xapilibd:thread.obj
 0002:0008076a       _SuspendThread@4           005357ea f   xapilibd:thread.obj
 0002:00080799       _ResumeThread@4            00535819 f   xapilibd:thread.obj
 0002:000807c8       _RaiseException@16         00535848 f   xapilibd:thread.obj
 0002:00080833       _XapiDispatchAPC@12        005358b3 f   xapilibd:thread.obj
 0002:00080843       _QueueUserAPC@12           005358c3 f   xapilibd:thread.obj
 0002:00080872       _SwitchToThread@0          005358f2 f   xapilibd:thread.obj
 0002:00080890       _ExitThread@4              00535910 f   xapilibd:thread.obj
 0002:000808b4       _GetExitCodeThread@8       00535934 f   xapilibd:thread.obj
 0002:00080921       _SetUnhandledExceptionFilter@4 005359a1 f   xapilibd:thread.obj
 0002:0008093b       _GetThreadTimes@20         005359bb f   xapilibd:thread.obj
 0002:000809e6       _XRegisterThreadNotifyRoutine@8 00535a66 f   xapilibd:thread.obj
 0002:00080a42       _XSetProcessQuantumLength@4 00535ac2 f   xapilibd:thread.obj
 0002:00080a84       _XGetProcessQuantumLength@0 00535b04 f   xapilibd:thread.obj
 0002:00080ae5       _UnhandledExceptionFilter@4 00535b65 f   xapilibd:thread.obj
 0002:00080b6d       _XapiThreadStartup@8       00535bed f   xapilibd:thread.obj
 0002:00080cf5       _CreateThread@24           00535d75 f   xapilibd:thread.obj
 0002:00080d7e       _GetCurrentThreadId@0      00535dfe f   xapilibd:thread.obj
 0002:00080d8e       _ReadFile@20               00535e0e f   xapilibd:filehops.obj
 0002:00080eb6       _WriteFile@20              00535f36 f   xapilibd:filehops.obj
 0002:00080fc1       _SetEndOfFile@4            00536041 f   xapilibd:filehops.obj
 0002:00081066       _SetFilePointer@16         005360e6 f   xapilibd:filehops.obj
 0002:000811b2       _SetFilePointerEx@20       00536232 f   xapilibd:filehops.obj
 0002:000812bd       _GetFileInformationByHandle@8 0053633d f   xapilibd:filehops.obj
 0002:000813cc       _GetFileTime@16            0053644c f   xapilibd:filehops.obj
 0002:0008144b       _SetFileTime@16            005364cb f   xapilibd:filehops.obj
 0002:000814d9       _FlushFileBuffers@4        00536559 f   xapilibd:filehops.obj
 0002:00081509       _GetFileSizeEx@8           00536589 f   xapilibd:filehops.obj
 0002:00081556       _ReadFileEx@20             005365d6 f   xapilibd:filehops.obj
 0002:000815bb       _WriteFileEx@20            0053663b f   xapilibd:filehops.obj
 0002:00081620       _DeviceIoControl@32        005366a0 f   xapilibd:filehops.obj
 0002:0008175d       _ReadFileScatter@20        005367dd f   xapilibd:filehops.obj
 0002:00081885       _WriteFileGather@20        00536905 f   xapilibd:filehops.obj
 0002:00081990       _XGetFilePhysicalSortKey@4 00536a10 f   xapilibd:filehops.obj
 0002:00081a60       _GetFileSize@8             00536ae0 f   xapilibd:filehops.obj
 0002:00081aa9       _XAutoPowerDownResetTimer@0 00536b29 f   xapilibd:powerdwn.obj
 0002:00081acd       _XAutoPowerDownTimeRemaining@0 00536b4d f   xapilibd:powerdwn.obj
 0002:00081b3d       _XapiAutoPowerDownTimeout@16 00536bbd f   xapilibd:powerdwn.obj
 0002:00081b53       _XapiInitAutoPowerDown@0   00536bd3 f   xapilibd:powerdwn.obj
 0002:00081bfd       _XapiValidateDiskPartitionEx@8 00536c7d f   xapilibd:xapiinit.obj
 0002:00081c93       _XapiCopySectionToFile@16  00536d13 f   xapilibd:xapiinit.obj
 0002:00081e15       _XapiMapLetterToDirectory@24 00536e95 f   xapilibd:xapiinit.obj
 0002:00082349       _XapiSetupPerTitleDriveLetters@8 005373c9 f   xapilibd:xapiinit.obj
 0002:000823b3       _XapiBootToDash@12         00537433 f   xapilibd:xapiinit.obj
 0002:00082431       _XapiValidateDiskPartition@4 005374b1 f   xapilibd:xapiinit.obj
 0002:0008244a       _XapiInitProcess@0         005374ca f   xapilibd:xapiinit.obj
 0002:000826ed       __cinit@0                  0053776d f   xapilibd:xapi0dat.obj
 0002:00082740       __rtinit@0                 005377c0 f   xapilibd:xapi0dat.obj
 0002:0008278c       _GetLastError@0            0053780c f   xapilibd:error.obj
 0002:000827da       _SetLastError@4            0053785a f   xapilibd:error.obj
 0002:00082834       _XapiSetLastNTError@4      005378b4 f   xapilibd:error.obj
 0002:00082857       _CreateIoCompletionPort@16 005378d7 f   xapilibd:error.obj
 0002:00082906       _PostQueuedCompletionStatus@16 00537986 f   xapilibd:error.obj
 0002:0008293f       _GetQueuedCompletionStatus@20 005379bf f   xapilibd:error.obj
 0002:000829cd       _GetOverlappedResult@16    00537a4d f   xapilibd:error.obj
 0002:00082a52       _XapiRestrictCodeSelectorLimit@0 00537ad2 f   xapilibd:krnlptch.obj
 0002:00082acf       _XapiApplyKernelPatches@0  00537b4f f   xapilibd:krnlptch.obj
 0002:00082bc6       _XQueryValue@20            00537c46 f   xapilibd:xqueryvalue.obj
 0002:00082bf0       _XapiFormatObjectAttributes@12 00537c70 f   xapilibd:support.obj
 0002:00082c23       _XapiFormatTimeOut@8       00537ca3 f   xapilibd:support.obj
 0002:00082c5f       _OutputDebugStringA@4      00537cdf f   xapilibd:outputdebugstringa.obj
 0002:00082c9d       _vXDebugPrint@16           00537d1d f   xapilibd:outputdebugstringa.obj
 0002:00082d1f       _XDebugPrint               00537d9f f   xapilibd:outputdebugstringa.obj
 0002:00082d3b       _XDebugError               00537dbb f   xapilibd:outputdebugstringa.obj
 0002:00082d56       _XDebugWarning             00537dd6 f   xapilibd:outputdebugstringa.obj
 0002:00082d71       _XDebugTrace               00537df1 f   xapilibd:outputdebugstringa.obj
 0002:00082d8c       _XDebugEntry               00537e0c f   xapilibd:outputdebugstringa.obj
 0002:00082da7       _XDebugExit                00537e27 f   xapilibd:outputdebugstringa.obj
 0002:00082e14       _XGetAVPack@0              00537e94 f   xapilibd:xgetavpack.obj
 0002:00082e1e       _XGetSectionHandleA@4      00537e9e f   xapilibd:xemodule.obj
 0002:00082ebb       _XLoadSectionByHandle@4    00537f3b f   xapilibd:xemodule.obj
 0002:00082f1b       _XFreeSectionByHandle@4    00537f9b f   xapilibd:xemodule.obj
 0002:00082f7a       _XLoadSectionA@4           00537ffa f   xapilibd:xemodule.obj
 0002:00082fbc       _XFreeSectionA@4           0053803c f   xapilibd:xemodule.obj
 0002:00082ffe       _XGetSectionSize@4         0053807e f   xapilibd:xemodule.obj
 0002:00083044       _lstrcmpA@8                005380c4 f   xapilibd:lcompata.obj
 0002:000830c1       _lstrcmpiA@8               00538141 f   xapilibd:lcompata.obj
 0002:00083117       _lstrcpyA@8                00538197 f   xapilibd:lcompata.obj
 0002:00083164       _lstrcpynA@12              005381e4 f   xapilibd:lcompata.obj
 0002:000831e2       _lstrcatA@8                00538262 f   xapilibd:lcompata.obj
 0002:00083252       _lstrlenA@4                005382d2 f   xapilibd:lcompata.obj
 0002:0008329f       _XLaunchNewImageA@8        0053831f f   xapilibd:launch.obj
 0002:000832f1       _XWriteTitleInfoNoReboot@24 00538371 f   xapilibd:launch.obj
 0002:0008340a       _XGetLaunchInfo@8          0053848a f   xapilibd:launch.obj
 0002:000834e6       _XWriteTitleInfoAndRebootA@20 00538566 f   xapilibd:launch.obj
 0002:00083561       _BuildUpdateFilePath@12    005385e1 f   xapilibd:bootutil.obj
 0002:000835bd       _XapipUpdateMountDashPartition@0 0053863d f   xapilibd:bootutil.obj
 0002:0008365b       _XoUpdateLoadXBEInfo@8     005386db f   xapilibd:bootutil.obj
 0002:0008375a       _XoRebootToUpdaterWhilePreservingDDrive@12 005387da f   xapilibd:bootutil.obj
 0002:00083850       _XoUpdateGetSavedDataFromLaunchPage@12 005388d0 f   xapilibd:bootutil.obj
 0002:0008391f       _XapipUpdateGetCurrentDDriveMapping@8 0053899f f   xapilibd:bootutil.obj
 0002:00083a15       _XapipUpdateSaveDDriveMappingToLaunchPage@8 00538a95 f   xapilibd:bootutil.obj
 0002:00083b19       _XapipUpdateDetectAndVerify@16 00538b99 f   xapilibd:bootutil.obj
 0002:00083db5       _XapipUpdateDashIfNecessary@4 00538e35 f   xapilibd:bootutil.obj
 0002:00083e6d       _XapipLaunchNewImageInternal@16 00538eed f   xapilibd:bootutil.obj
 0002:000840b1       _XapipUpdateRebootIfNecessary@0 00539131 f   xapilibd:bootutil.obj
 0002:00084379       _XGetParentalControlSetting@0 005393f9 f   xapilibd:xgetparentalcontrolsetting.obj
 0002:000843a7       _GetDiskFreeSpaceExA@16    00539427 f   xapilibd:pathmisc.obj
 0002:000844f2       _GetVolumeInformationA@32  00539572 f   xapilibd:pathmisc.obj
 0002:000847f9       _XapiSelectCachePartition@12 00539879 f   xapilibd:pathmisc.obj
 0002:00084b6e       _XMountUtilityDrive@4      00539bee f   xapilibd:pathmisc.obj
 0002:00084ce2       _XFormatUtilityDrive@0     00539d62 f   xapilibd:pathmisc.obj
 0002:00084db0       _XMountSecondaryUtilityDrive@0 00539e30 f   xapilibd:pathmisc.obj
 0002:00085111       _XSwapUtilityDrives@0      0053a191 f   xapilibd:pathmisc.obj
 0002:000853d4       _XFormatSecondaryUtilityDrive@0 0053a454 f   xapilibd:pathmisc.obj
 0002:000854a2       _XMountAlternateTitleA@12  0053a522 f   xapilibd:pathmisc.obj
 0002:000857be       _XUnmountAlternateTitleA@4 0053a83e f   xapilibd:pathmisc.obj
 0002:00085852       _XGetDiskClusterSizeA@4    0053a8d2 f   xapilibd:pathmisc.obj
 0002:00085960       _XGetDiskSectorSizeA@4     0053a9e0 f   xapilibd:pathmisc.obj
 0002:00085a62       _XMUNameFromDriveLetter@12 0053aae2 f   xapilibd:pathmisc.obj
 0002:00085b8b       _HeapCreate@12             0053ac0b f   xapilibd:xapiheap.obj
 0002:00085bed       _HeapDestroy@4             0053ac6d f   xapilibd:xapiheap.obj
 0002:00085c13       _HeapFree@12               0053ac93 f   xapilibd:xapiheap.obj
 0002:00085c31       _HeapValidate@12           0053acb1 f   xapilibd:xapiheap.obj
 0002:00085c4f       _GetProcessHeap@0          0053accf f   xapilibd:xapiheap.obj
 0002:00085c55       _HeapCompact@8             0053acd5 f   xapilibd:xapiheap.obj
 0002:00085c60       _HeapLock@4                0053ace0 f   xapilibd:xapiheap.obj
 0002:00085c76       _HeapUnlock@4              0053acf6 f   xapilibd:xapiheap.obj
 0002:00085c8c       _HeapWalk@8                0053ad0c f   xapilibd:xapiheap.obj
 0002:00085da0       _LocalAlloc@8              0053ae20 f   xapilibd:xapiheap.obj
 0002:00085de3       _LocalReAlloc@12           0053ae63 f   xapilibd:xapiheap.obj
 0002:00085e3b       _LocalSize@4               0053aebb f   xapilibd:xapiheap.obj
 0002:00085e57       _LocalFree@4               0053aed7 f   xapilibd:xapiheap.obj
 0002:00085e7f       _LocalLock@4               0053aeff f   xapilibd:xapiheap.obj
 0002:00085e8b       _LocalHandle@4             0053af0b f   xapilibd:xapiheap.obj
 0002:00085e97       _LocalUnlock@4             0053af17 f   xapilibd:xapiheap.obj
 0002:00085e9d       _GlobalAlloc@8             0053af1d f   xapilibd:xapiheap.obj
 0002:00085ee0       _GlobalReAlloc@12          0053af60 f   xapilibd:xapiheap.obj
 0002:00085f38       _XSetAttributesOnHeapAlloc@8 0053afb8 f   xapilibd:xapiheap.obj
 0002:00085f4c       _XGetAttributesOnHeapAlloc@4 0053afcc f   xapilibd:xapiheap.obj
 0002:0008601a       _RtlZeroHeap@8             0053b09a f   xapilibd:heap.obj
 0002:000861ce       _RtlpCreateUnCommittedRange@4 0053b24e f   xapilibd:heap.obj
 0002:0008637e       _RtlpDestroyUnCommittedRange@8 0053b3fe f   xapilibd:heap.obj
 0002:000863f3       _RtlpInsertUnCommittedPages@12 0053b473 f   xapilibd:heap.obj
 0002:0008650c       _RtlpFindAndCommitPages@16 0053b58c f   xapilibd:heap.obj
 0002:0008676f       _RtlpDestroyHeapSegment@4  0053b7ef f   xapilibd:heap.obj
 0002:000867f8       _RtlpCoalesceFreeBlocks@16 0053b878 f   xapilibd:heap.obj
 0002:00086e1b       _RtlpInsertFreeBlock@12    0053be9b f   xapilibd:heap.obj
 0002:0008702d       _RtlpGetExtraStuffPointer@4 0053c0ad f   xapilibd:heap.obj
 0002:00087053       _RtlpGetSizeOfBigBlock@4   0053c0d3 f   xapilibd:heap.obj
 0002:000870b3       _RtlpCheckBusyBlockTail@4  0053c133 f   xapilibd:heap.obj
 0002:00087180       _RtlpCheckHeapSignature@8  0053c200 f   xapilibd:heap.obj
 0002:000871e9       _RtlpValidateHeapHeaders@8 0053c269 f   xapilibd:heap.obj
 0002:000872fa       _RtlpValidateHeapSegment@32 0053c37a f   xapilibd:heap.obj
 0002:000875da       _RtlpValidateHeapEntry@12  0053c65a f   xapilibd:heap.obj
 0002:000876cb       _RtlpValidateHeap@8        0053c74b f   xapilibd:heap.obj
 0002:00087b0b       _RtlDebugWalkHeap@8        0053cb8b f   xapilibd:heap.obj
 0002:00087b66       _RtlWalkHeap@8             0053cbe6 f   xapilibd:heap.obj
 0002:00087e5c       _RtlLockHeap@4             0053cedc f   xapilibd:heap.obj
 0002:00087ee0       _RtlUnlockHeap@4           0053cf60 f   xapilibd:heap.obj
 0002:00087f64       _RtlValidateHeap@12        0053cfe4 f   xapilibd:heap.obj
 0002:00088037       _RtlDebugCompactHeap@8     0053d0b7 f   xapilibd:heap.obj
 0002:00088110       _RtlDestroyHeap@4          0053d190 f   xapilibd:heap.obj
 0002:0008821e       _RtlpGrowBlockInPlace@20   0053d29e f   xapilibd:heap.obj
 0002:00088ab7       _RtlSizeHeap@12            0053db37 f   xapilibd:heap.obj
 0002:00088af4       _RtlpInitializeHeapSegment@28 0053db74 f   xapilibd:heap.obj
 0002:00088ca3       _RtlpExtendHeap@8          0053dd23 f   xapilibd:heap.obj
 0002:00088ed5       _RtlpDeCommitFreeBlock@12  0053df55 f   xapilibd:heap.obj
 0002:000893c7       _RtlpCoalesceHeap@4        0053e447 f   xapilibd:heap.obj
 0002:000894f1       _RtlCompactHeap@8          0053e571 f   xapilibd:heap.obj
 0002:000895d3       _RtlCreateHeap@24          0053e653 f   xapilibd:heap.obj
 0002:00089ba0       _RtlAllocateHeapSlowly@12  0053ec20 f   xapilibd:heap.obj
 0002:0008aab5       _RtlFreeHeapSlowly@12      0053fb35 f   xapilibd:heap.obj
 0002:0008ae07       _RtlAllocateHeap@12        0053fe87 f   xapilibd:heap.obj
 0002:0008bc80       _RtlFreeHeap@12            00540d00 f   xapilibd:heap.obj
 0002:0008c17d       _RtlReAllocateHeap@16      005411fd f   xapilibd:heap.obj
 0002:0008cdc3       _XapiShutdownChannelStartNextPacket@0 00541e43 f   xapilibd:xapiterm.obj
 0002:0008ce0a       _XapiShutdownChannelStartPacket@8 00541e8a f   xapilibd:xapiterm.obj
 0002:0008ce1f       _XapiShutdownNotification@4 00541e9f f   xapilibd:xapiterm.obj
 0002:0008ce8c       _XapiChangeCodeSelectorLimit@8 00541f0c f   xapilibd:xapidlla.obj
 0002:0008cf0c       _xCompareStringA@20        00541f8c f   xapilibd:compstra.obj
 0002:0008d0f7       _CreateFileA@28            00542177 f   xapilibd:fileopcr.obj
 0002:0008d2fc       _CopyFileExA@24            0054237c f   xapilibd:fileopcr.obj
 0002:0008d6b2       _CopyFileA@12              00542732 f   xapilibd:fileopcr.obj
 0002:0008d6da       _XapiComputeContentMetadataFileName@8 0054275a f   xapilibd:contsig.obj
 0002:0008d74a       _XComputeContentSignatureKey@8 005427ca f   xapilibd:contsig.obj
 0002:0008d773       _XapiComputeContentHeaderSignature@16 005427f3 f   xapilibd:contsig.obj
 0002:0008d89a       _XapiLoadContentMetadataHeader@16 0054291a f   xapilibd:contsig.obj
 0002:0008d9b3       _XapiVerifyAndLoadOptionalSectionData@12 00542a33 f   xapilibd:contsig.obj
 0002:0008dab2       _XapipGetAlternateTitleID@0 00542b32 f   xapilibd:contsig.obj
 0002:0008dbb6       _XGetContentInstallLocationFromIDs@16 00542c36 f   xapilibd:contsig.obj
 0002:0008dc33       _XGetContentInstallLocation@12 00542cb3 f   xapilibd:contsig.obj
 0002:0008dcb5       _XInstallContentSignaturesWithFileName@16 00542d35 f   xapilibd:contsig.obj
 0002:0008df67       _XInstallContentSignaturesEx@16 00542fe7 f   xapilibd:contsig.obj
 0002:0008dfa4       _XInstallContentSignatures@12 00543024 f   xapilibd:contsig.obj
 0002:0008dfde       _XCreateContentSimple@24   0054305e f   xapilibd:contsig.obj
 0002:0008e224       _XRemoveContent@4          005432a4 f   xapilibd:contsig.obj
 0002:0008e290       _XLoadContentSignaturesWithFileName@8 00543310 f   xapilibd:contsig.obj
 0002:0008e457       _XLoadContentSignaturesEx@8 005434d7 f   xapilibd:contsig.obj
 0002:0008e48c       _XLocateSignatureByIndex@16 0054350c f   xapilibd:contsig.obj
 0002:0008e545       _XLocateSignatureByNameEx@24 005435c5 f   xapilibd:contsig.obj
 0002:0008e6ae       _XLocateSignatureByName@24 0054372e f   xapilibd:contsig.obj
 0002:0008e6d4       _XLocateNextSignature@28   00543754 f   xapilibd:contsig.obj
 0002:0008e7fd       _XCalculateContentSignature@16 0054387d f   xapilibd:contsig.obj
 0002:0008e887       _XLocateLiveSignature@12   00543907 f   xapilibd:contsig.obj
 0002:0008e904       _XCloseContentSignatures@4 00543984 f   xapilibd:contsig.obj
 0002:0008e945       _XMemAlloc@8               005439c5 f   xapilibd:xmem.obj
 0002:0008ea73       _XMemFree@8                00543af3 f   xapilibd:xmem.obj
 0002:0008ec04       _XMemSize@8                00543c84 f   xapilibd:xmem.obj
 0002:0008ec27       _XapiFormatFATVolumeEx@8   00543ca7 f   xapilibd:format.obj
 0002:0008f014       _XapiFormatFATVolume@4     00544094 f   xapilibd:format.obj
 0002:0008f02d       _lstrcmpW@8                005440ad f   xapilibd:lcompat.obj
 0002:0008f083       _lstrcmpiW@8               00544103 f   xapilibd:lcompat.obj
 0002:0008f0d9       _lstrcpyW@8                00544159 f   xapilibd:lcompat.obj
 0002:0008f11f       _lstrcpynW@12              0054419f f   xapilibd:lcompat.obj
 0002:0008f1a6       _lstrcatW@8                00544226 f   xapilibd:lcompat.obj
 0002:0008f1ec       _lstrlenW@4                0054426c f   xapilibd:lcompat.obj
 0002:0008f240       @RtlFindFirstSetRightMember@4 005442c0 f   xapilibd:bitmapa.obj
 0002:0008f278       _RootHubPortToPortNumber@4 005442f8 f i xapilibd:roothub.obj
 0002:0008f288       _PortNumberToRootHubPort@4 00544308 f i xapilibd:roothub.obj
 0002:0008f31b       _XShaHmacInitialize@12     0054439b f   xapilibd:xcalcsig.obj
 0002:0008f3dc       _XShaHmacUpdate@12         0054445c f   xapilibd:xcalcsig.obj
 0002:0008f434       _XShaHmacComputeFinal@16   005444b4 f   xapilibd:xcalcsig.obj
 0002:0008f4f7       _XapiConvertSignatureToNonRoamable@12 00544577 f   xapilibd:xcalcsig.obj
 0002:0008f5b2       _XapipCalculateSaveGameSignatureBegin@8 00544632 f   xapilibd:xcalcsig.obj
 0002:0008f69a       _XapipCalculateSaveGameSignatureUpdate@12 0054471a f   xapilibd:xcalcsig.obj
 0002:0008f6db       _XapipCalculateSaveGameSignatureEnd@8 0054475b f   xapilibd:xcalcsig.obj
 0002:0008f77e       _XapipCalculateContentSignatureBegin@0 005447fe f   xapilibd:xcalcsig.obj
 0002:0008f7c1       _XapipCalculateContentSignatureUpdate@12 00544841 f   xapilibd:xcalcsig.obj
 0002:0008f7e2       _XapipCalculateContentSignatureEnd@8 00544862 f   xapilibd:xcalcsig.obj
 0002:0008f817       _XCalculateSignatureGetSize@4 00544897 f   xapilibd:xcalcsig.obj
 0002:0008f855       _XCalculateSignatureBeginEx@8 005448d5 f   xapilibd:xcalcsig.obj
 0002:0008f8dc       _XCalculateSignatureBegin@4 0054495c f   xapilibd:xcalcsig.obj
 0002:0008f8f8       _XCalculateSignatureUpdate@12 00544978 f   xapilibd:xcalcsig.obj
 0002:0008f9c6       _XCalculateSignatureEnd@8  00544a46 f   xapilibd:xcalcsig.obj
 0002:0008fa69       _XapiNukeDirectoryFromHandle@8 00544ae9 f   xapilibd:xclndrv.obj
 0002:0008fc45       _XapiNukeDirectory@8       00544cc5 f   xapilibd:xclndrv.obj
 0002:0008fcf4       _SetFileAttributesA@8      00544d74 f   xapilibd:filemisc.obj
 0002:0008fdc3       _GetFileAttributesA@4      00544e43 f   xapilibd:filemisc.obj
 0002:0008fe20       _GetFileAttributesExA@12   00544ea0 f   xapilibd:filemisc.obj
 0002:0008fee6       _MoveFileA@8               00544f66 f   xapilibd:filemisc.obj
 0002:0008ffa1       _DeleteFileA@4             00545021 f   xapilibd:filemisc.obj
 0002:00090052       _XSetFileCacheSize@4       005450d2 f   xapilibd:filemisc.obj
 0002:0009008b       _XGetFileCacheSize@0       0054510b f   xapilibd:filemisc.obj
 0002:00090097       _XapiGetDirectoryDisplayBlocks@12 00545117 f   xapilibd:filemisc.obj
 0002:00090219       _XGetDisplayBlocks@4       00545299 f   xapilibd:filemisc.obj
 0002:00090327       _MoveFileWithProgressA@20  005453a7 f   xapilibd:filemisc.obj
 0002:00090453       _MoveFileExA@12            005454d3 f   xapilibd:filemisc.obj
 0002:00090472       _XPhysicalAlloc@16         005454f2 f   xapilibd:physical.obj
 0002:00090535       _XPhysicalAllocEx@20       005455b5 f   xapilibd:physical.obj
 0002:000905c3       _XPhysicalSize@4           00545643 f   xapilibd:physical.obj
 0002:000905f0       _XPhysicalProtect@12       00545670 f   xapilibd:physical.obj
 0002:00090648       _XPhysicalFree@4           005456c8 f   xapilibd:physical.obj
 0002:00090675       _XQueryMemoryProtect@4     005456f5 f   xapilibd:physical.obj
 0002:00090681       _xCompareStringW@20        00545701 f   xapilibd:compstr.obj
 0002:00090880       ??_ECDirectSound@DirectSound@@W7AEPAXI@Z 00545900 f i dsoundd:dsapi.obj
 0002:0009088a       ??_ECDirectSoundBuffer@DirectSound@@W7AEPAXI@Z 0054590a f i dsoundd:dsapi.obj
 0002:00090894       ??_ECDirectSoundStream@DirectSound@@W3AEPAXI@Z 00545914 f i dsoundd:dsapi.obj
 0002:0009089e       ??_ECDirectSoundStream@DirectSound@@WM@AEPAXI@Z 0054591e f i dsoundd:dsapi.obj
 0002:000908a8       ??_ECMcpxAPU@DirectSound@@W7AEPAXI@Z 00545928 f i dsoundd:mcpapu.obj
 0002:000908b2       ??_ECWaveFileMediaObject@DirectSound@@W3AEPAXI@Z 00545932 f i dsoundd:wavexmo.obj
 0002:000908bc       ??_ECFileMediaObject@DirectSound@@W3AEPAXI@Z 0054593c f i dsoundd:wavexmo.obj
 0002:000908c6       ??_ECAc97MediaObject@DirectSound@@W3AEPAXI@Z 00545946 f i dsoundd:ac97xmo.obj
 0002:000908d0       ??_ECAc97MediaObject@DirectSound@@WM@AEPAXI@Z 00545950 f i dsoundd:ac97xmo.obj
 0002:000908da       _HalWriteSMBusValue@16     0054595a f   xboxkrnl:xboxkrnl.exe
 0002:000908e0       _NtCreateFile@36           00545960 f   xboxkrnl:xboxkrnl.exe
 0002:000908e6       _RtlInitAnsiString@8       00545966 f   xboxkrnl:xboxkrnl.exe
 0002:000908ec       _IoCreateSymbolicLink@8    0054596c f   xboxkrnl:xboxkrnl.exe
 0002:000908f2       _IoDeleteSymbolicLink@4    00545972 f   xboxkrnl:xboxkrnl.exe
 0002:000908f8       @KfLowerIrql@4             00545978 f   xboxkrnl:xboxkrnl.exe
 0002:000908fe       _KeRaiseIrqlToDpcLevel@0   0054597e f   xboxkrnl:xboxkrnl.exe
 0002:00090904       _ExAllocatePoolWithTag@8   00545984 f   xboxkrnl:xboxkrnl.exe
 0002:0009090a       _RtlRip@12                 0054598a f   xboxkrnl:xboxkrnl.exe
 0002:00090910       _RtlTimeToTimeFields@8     00545990 f   xboxkrnl:xboxkrnl.exe
 0002:00090916       _KeQuerySystemTime@4       00545996 f   xboxkrnl:xboxkrnl.exe
 0002:0009091c       _RtlTimeFieldsToTime@8     0054599c f   xboxkrnl:xboxkrnl.exe
 0002:00090922       _NtCreateEvent@16          005459a2 f   xboxkrnl:xboxkrnl.exe
 0002:00090928       _ObOpenObjectByName@16     005459a8 f   xboxkrnl:xboxkrnl.exe
 0002:0009092e       _NtSetEvent@8              005459ae f   xboxkrnl:xboxkrnl.exe
 0002:00090934       _NtClearEvent@4            005459b4 f   xboxkrnl:xboxkrnl.exe
 0002:0009093a       _NtPulseEvent@8            005459ba f   xboxkrnl:xboxkrnl.exe
 0002:00090940       _NtCreateSemaphore@16      005459c0 f   xboxkrnl:xboxkrnl.exe
 0002:00090946       _NtReleaseSemaphore@12     005459c6 f   xboxkrnl:xboxkrnl.exe
 0002:0009094c       _NtCreateMutant@12         005459cc f   xboxkrnl:xboxkrnl.exe
 0002:00090952       _NtReleaseMutant@8         005459d2 f   xboxkrnl:xboxkrnl.exe
 0002:00090958       _NtWaitForSingleObjectEx@16 005459d8 f   xboxkrnl:xboxkrnl.exe
 0002:0009095e       _NtSignalAndWaitForSingleObjectEx@20 005459de f   xboxkrnl:xboxkrnl.exe
 0002:00090964       _NtWaitForMultipleObjectsEx@24 005459e4 f   xboxkrnl:xboxkrnl.exe
 0002:0009096a       _KeDelayExecutionThread@12 005459ea f   xboxkrnl:xboxkrnl.exe
 0002:00090970       _NtCreateTimer@12          005459f0 f   xboxkrnl:xboxkrnl.exe
 0002:00090976       _NtSetTimerEx@32           005459f6 f   xboxkrnl:xboxkrnl.exe
 0002:0009097c       _NtCancelTimer@8           005459fc f   xboxkrnl:xboxkrnl.exe
 0002:00090982       _KeSetTimerEx@20           00545a02 f   xboxkrnl:xboxkrnl.exe
 0002:00090988       _KeQueryInterruptTime@0    00545a08 f   xboxkrnl:xboxkrnl.exe
 0002:0009098e       _RtlLeaveCriticalSection@4 00545a0e f   xboxkrnl:xboxkrnl.exe
 0002:00090994       _RtlEnterCriticalSection@4 00545a14 f   xboxkrnl:xboxkrnl.exe
 0002:0009099a       _KeWaitForMultipleObjects@32 00545a1a f   xboxkrnl:xboxkrnl.exe
 0002:000909a0       _KeSetEvent@12             00545a20 f   xboxkrnl:xboxkrnl.exe
 0002:000909a6       _KeInitializeTimerEx@8     00545a26 f   xboxkrnl:xboxkrnl.exe
 0002:000909ac       _RtlAssert@16              00545a2c f   xboxkrnl:xboxkrnl.exe
 0002:000909b2       _KeWaitForSingleObject@20  00545a32 f   xboxkrnl:xboxkrnl.exe
 0002:000909b8       _KeCancelTimer@4           00545a38 f   xboxkrnl:xboxkrnl.exe
 0002:000909be       @KfRaiseIrql@4             00545a3e f   xboxkrnl:xboxkrnl.exe
 0002:000909c4       _DbgBreakPoint@0           00545a44 f   xboxkrnl:xboxkrnl.exe
 0002:000909ca       _DbgPrint                  00545a4a f   xboxkrnl:xboxkrnl.exe
 0002:000909d0       _ExQueryNonVolatileSetting@20 00545a50 f   xboxkrnl:xboxkrnl.exe
 0002:000909d6       _NtClose@4                 00545a56 f   xboxkrnl:xboxkrnl.exe
 0002:000909dc       _NtDuplicateObject@12      00545a5c f   xboxkrnl:xboxkrnl.exe
 0002:000909e2       @ObfDereferenceObject@4    00545a62 f   xboxkrnl:xboxkrnl.exe
 0002:000909e8       _KeSetBasePriorityThread@8 00545a68 f   xboxkrnl:xboxkrnl.exe
 0002:000909ee       _ObReferenceObjectByHandle@12 00545a6e f   xboxkrnl:xboxkrnl.exe
 0002:000909f4       _KeQueryBasePriorityThread@4 00545a74 f   xboxkrnl:xboxkrnl.exe
 0002:000909fa       _KeSetDisableBoostThread@8 00545a7a f   xboxkrnl:xboxkrnl.exe
 0002:00090a00       _NtSuspendThread@8         00545a80 f   xboxkrnl:xboxkrnl.exe
 0002:00090a06       _NtResumeThread@8          00545a86 f   xboxkrnl:xboxkrnl.exe
 0002:00090a0c       _RtlRaiseException@4       00545a8c f   xboxkrnl:xboxkrnl.exe
 0002:00090a12       _NtQueueApcThread@20       00545a92 f   xboxkrnl:xboxkrnl.exe
 0002:00090a18       _NtYieldExecution@0        00545a98 f   xboxkrnl:xboxkrnl.exe
 0002:00090a1e       _PsTerminateSystemThread@4 00545a9e f   xboxkrnl:xboxkrnl.exe
 0002:00090a24       _PsCreateSystemThreadEx@40 00545aa4 f   xboxkrnl:xboxkrnl.exe
 0002:00090a2a       _NtWaitForSingleObject@12  00545aaa f   xboxkrnl:xboxkrnl.exe
 0002:00090a30       _NtReadFile@32             00545ab0 f   xboxkrnl:xboxkrnl.exe
 0002:00090a36       _NtWriteFile@32            00545ab6 f   xboxkrnl:xboxkrnl.exe
 0002:00090a3c       _NtSetInformationFile@20   00545abc f   xboxkrnl:xboxkrnl.exe
 0002:00090a42       _NtQueryInformationFile@20 00545ac2 f   xboxkrnl:xboxkrnl.exe
 0002:00090a48       _NtQueryVolumeInformationFile@20 00545ac8 f   xboxkrnl:xboxkrnl.exe
 0002:00090a4e       _NtFlushBuffersFile@8      00545ace f   xboxkrnl:xboxkrnl.exe
 0002:00090a54       _NtUserIoApcDispatcher@12  00545ad4 f   xboxkrnl:xboxkrnl.exe
 0002:00090a5a       _NtFsControlFile@40        00545ada f   xboxkrnl:xboxkrnl.exe
 0002:00090a60       _NtDeviceIoControlFile@40  00545ae0 f   xboxkrnl:xboxkrnl.exe
 0002:00090a66       _NtReadFileScatter@32      00545ae6 f   xboxkrnl:xboxkrnl.exe
 0002:00090a6c       _NtWriteFileGather@32      00545aec f   xboxkrnl:xboxkrnl.exe
 0002:00090a72       _IoQueryVolumeInformation@20 00545af2 f   xboxkrnl:xboxkrnl.exe
 0002:00090a78       _KeSetTimer@16             00545af8 f   xboxkrnl:xboxkrnl.exe
 0002:00090a7e       _HalInitiateShutdown@0     00545afe f   xboxkrnl:xboxkrnl.exe
 0002:00090a84       _KeInitializeDpc@12        00545b04 f   xboxkrnl:xboxkrnl.exe
 0002:00090a8a       _NtOpenFile@24             00545b0a f   xboxkrnl:xboxkrnl.exe
 0002:00090a90       _HalReturnToFirmware@4     00545b10 f   xboxkrnl:xboxkrnl.exe
 0002:00090a96       _MmFreeContiguousMemory@4  00545b16 f   xboxkrnl:xboxkrnl.exe
 0002:00090a9c       _HalRegisterShutdownNotification@8 00545b1c f   xboxkrnl:xboxkrnl.exe
 0002:00090aa2       _RtlNtStatusToDosError@4   00545b22 f   xboxkrnl:xboxkrnl.exe
 0002:00090aa8       _NtCreateIoCompletion@16   00545b28 f   xboxkrnl:xboxkrnl.exe
 0002:00090aae       _NtSetIoCompletion@20      00545b2e f   xboxkrnl:xboxkrnl.exe
 0002:00090ab4       _NtRemoveIoCompletion@20   00545b34 f   xboxkrnl:xboxkrnl.exe
 0002:00090aba       _MmSetAddressProtect@12    00545b3a f   xboxkrnl:xboxkrnl.exe
 0002:00090ac0       _MmQueryAddressProtect@4   00545b40 f   xboxkrnl:xboxkrnl.exe
 0002:00090ac6       _RtlEqualString@12         00545b46 f   xboxkrnl:xboxkrnl.exe
 0002:00090acc       _XeLoadSection@4           00545b4c f   xboxkrnl:xboxkrnl.exe
 0002:00090ad2       _XeUnloadSection@4         00545b52 f   xboxkrnl:xboxkrnl.exe
 0002:00090ad8       _MmPersistContiguousMemory@12 00545b58 f   xboxkrnl:xboxkrnl.exe
 0002:00090ade       _MmAllocateContiguousMemory@4 00545b5e f   xboxkrnl:xboxkrnl.exe
 0002:00090ae4       _NtQuerySymbolicLinkObject@12 00545b64 f   xboxkrnl:xboxkrnl.exe
 0002:00090aea       _NtOpenSymbolicLinkObject@8 00545b6a f   xboxkrnl:xboxkrnl.exe
 0002:00090af0       _XcSHAFinal@8              00545b70 f   xboxkrnl:xboxkrnl.exe
 0002:00090af6       _XcSHAUpdate@12            00545b76 f   xboxkrnl:xboxkrnl.exe
 0002:00090afc       _XcSHAInit@4               00545b7c f   xboxkrnl:xboxkrnl.exe
 0002:00090b02       _RtlFillMemoryUlong@12     00545b82 f   xboxkrnl:xboxkrnl.exe
 0002:00090b08       _NtFreeVirtualMemory@12    00545b88 f   xboxkrnl:xboxkrnl.exe
 0002:00090b0e       _NtAllocateVirtualMemory@20 00545b8e f   xboxkrnl:xboxkrnl.exe
 0002:00090b14       _RtlCompareMemoryUlong@12  00545b94 f   xboxkrnl:xboxkrnl.exe
 0002:00090b1a       _RtlCompareMemory@12       00545b9a f   xboxkrnl:xboxkrnl.exe
 0002:00090b20       _RtlInitializeCriticalSection@4 00545ba0 f   xboxkrnl:xboxkrnl.exe
 0002:00090b26       _NtQueryVirtualMemory@8    00545ba6 f   xboxkrnl:xboxkrnl.exe
 0002:00090b2c       _ExFreePool@4              00545bac f   xboxkrnl:xboxkrnl.exe
 0002:00090b32       _HalGetInterruptVector@8   00545bb2 f   xboxkrnl:xboxkrnl.exe
 0002:00090b38       _KeConnectInterrupt@4      00545bb8 f   xboxkrnl:xboxkrnl.exe
 0002:00090b3e       _KeInitializeInterrupt@28  00545bbe f   xboxkrnl:xboxkrnl.exe
 0002:00090b44       _KeStallExecutionProcessor@4 00545bc4 f   xboxkrnl:xboxkrnl.exe
 0002:00090b4a       _MmFreeSystemMemory@8      00545bca f   xboxkrnl:xboxkrnl.exe
 0002:00090b50       _MmAllocateSystemMemory@8  00545bd0 f   xboxkrnl:xboxkrnl.exe
 0002:00090b56       _XcHMAC@28                 00545bd6 f   xboxkrnl:xboxkrnl.exe
 0002:00090b5c       _RtlCompareString@12       00545bdc f   xboxkrnl:xboxkrnl.exe
 0002:00090b62       _MmGetPhysicalAddress@4    00545be2 f   xboxkrnl:xboxkrnl.exe
 0002:00090b68       _MmLockUnlockBufferPages@12 00545be8 f   xboxkrnl:xboxkrnl.exe
 0002:00090b6e       _KeInsertQueueDpc@12       00545bee f   xboxkrnl:xboxkrnl.exe
 0002:00090b74       _MmLockUnlockPhysicalPage@8 00545bf4 f   xboxkrnl:xboxkrnl.exe
 0002:00090b7a       _NtQueryDirectoryFile@40   00545bfa f   xboxkrnl:xboxkrnl.exe
 0002:00090b80       _NtQueryFullAttributesFile@8 00545c00 f   xboxkrnl:xboxkrnl.exe
 0002:00090b86       _FscSetCacheSize@4         00545c06 f   xboxkrnl:xboxkrnl.exe
 0002:00090b8c       _FscGetCacheSize@0         00545c0c f   xboxkrnl:xboxkrnl.exe
 0002:00090b92       _MmAllocateContiguousMemoryEx@20 00545c12 f   xboxkrnl:xboxkrnl.exe
 0002:00090b98       _MmQueryAllocationSize@4   00545c18 f   xboxkrnl:xboxkrnl.exe
 0002:00090b9e       _AvGetSavedDataAddress@0   00545c1e f   xboxkrnl:xboxkrnl.exe
 0002:00090ba4       _AvSendTVEncoderOption@16  00545c24 f   xboxkrnl:xboxkrnl.exe
 0002:00090baa       _AvSetDisplayMode@24       00545c2a f   xboxkrnl:xboxkrnl.exe
 0002:00090bb0       _AvSetSavedDataAddress@4   00545c30 f   xboxkrnl:xboxkrnl.exe
 0002:00090bb6       _MmQueryStatistics@4       00545c36 f   xboxkrnl:xboxkrnl.exe
 0002:00090bbc       _RtlWalkFrameChain@12      00545c3c f   xboxkrnl:xboxkrnl.exe
 0002:00090bc2       _NtDeleteFile@4            00545c42 f   xboxkrnl:xboxkrnl.exe
 0002:00090bc8       _HalReadWritePCISpace@24   00545c48 f   xboxkrnl:xboxkrnl.exe
 0002:00090bce       _KeDisconnectInterrupt@4   00545c4e f   xboxkrnl:xboxkrnl.exe
 0002:00090bd4       _MmClaimGpuInstanceMemory@8 00545c54 f   xboxkrnl:xboxkrnl.exe
 0002:00090bda       _KeSaveFloatingPointState@4 00545c5a f   xboxkrnl:xboxkrnl.exe
 0002:00090be0       _KeRestoreFloatingPointState@4 00545c60 f   xboxkrnl:xboxkrnl.exe
 0002:00090be6       _ExQueryPoolBlockSize@4    00545c66 f   xboxkrnl:xboxkrnl.exe
 0002:00090bec       _KeRemoveQueueDpc@4        00545c6c f   xboxkrnl:xboxkrnl.exe
 0002:00090bf2       _KeSynchronizeExecution@12 00545c72 f   xboxkrnl:xboxkrnl.exe
 0002:00090c00       _SDL_RWFromFile            00545c80 f   libSDLx:SDL_rwops.obj
 0002:00091710       _SDL_RWFromFP              00546790 f   libSDLx:SDL_rwops.obj
 0002:000919f0       _SDL_RWFromMem             00546a70 f   libSDLx:SDL_rwops.obj
 0002:00091da0       _SDL_RWFromConstMem        00546e20 f   libSDLx:SDL_rwops.obj
 0002:00091ec0       _SDL_AllocRW               00546f40 f   libSDLx:SDL_rwops.obj
 0002:00091f30       _SDL_FreeRW                00546fb0 f   libSDLx:SDL_rwops.obj
 0002:00091f80       _SDL_ReadLE16              00547000 f   libSDLx:SDL_rwops.obj
 0002:00092020       _SDL_ReadBE16              005470a0 f   libSDLx:SDL_rwops.obj
 0002:00092120       _SDL_ReadLE32              005471a0 f   libSDLx:SDL_rwops.obj
 0002:000921c0       _SDL_ReadBE32              00547240 f   libSDLx:SDL_rwops.obj
 0002:000922e0       _SDL_ReadLE64              00547360 f   libSDLx:SDL_rwops.obj
 0002:00092390       _SDL_ReadBE64              00547410 f   libSDLx:SDL_rwops.obj
 0002:00092510       _SDL_WriteLE16             00547590 f   libSDLx:SDL_rwops.obj
 0002:00092580       _SDL_WriteBE16             00547600 f   libSDLx:SDL_rwops.obj
 0002:00092600       _SDL_WriteLE32             00547680 f   libSDLx:SDL_rwops.obj
 0002:00092670       _SDL_WriteBE32             005476f0 f   libSDLx:SDL_rwops.obj
 0002:000926f0       _SDL_WriteLE64             00547770 f   libSDLx:SDL_rwops.obj
 0002:00092770       _SDL_WriteBE64             005477f0 f   libSDLx:SDL_rwops.obj
 0002:000927f0       _SDL_iconv_open            00547870 f   libSDLx:SDL_iconv.obj
 0002:00092b40       _SDL_iconv                 00547bc0 f   libSDLx:SDL_iconv.obj
 0002:00094230       _SDL_iconv_close           005492b0 f   libSDLx:SDL_iconv.obj
 0002:00094290       _SDL_iconv_string          00549310 f   libSDLx:SDL_iconv.obj
 0002:00094570       _srand                     005495f0 f   LIBCMTD:rand.obj
 0002:00094590       _rand                      00549610 f   LIBCMTD:rand.obj
 0002:000945e0       _printf                    00549660 f   LIBCMTD:printf.obj
 0002:000946f0       _fprintf                   00549770 f   LIBCMTD:fprintf.obj
 0002:00094820       ___iob_func                005498a0 f   LIBCMTD:_file.obj
 0002:00094830       ___initstdio               005498b0 f   LIBCMTD:_file.obj
 0002:000949b0       ___endstdio                00549a30 f   LIBCMTD:_file.obj
 0002:000949d0       __lock_file                00549a50 f   LIBCMTD:_file.obj
 0002:00094a20       __lock_file2               00549aa0 f   LIBCMTD:_file.obj
 0002:00094a60       __unlock_file              00549ae0 f   LIBCMTD:_file.obj
 0002:00094ab0       __unlock_file2             00549b30 f   LIBCMTD:_file.obj
 0002:00094af0       _time                      00549b70 f   LIBCMTD:time.obj
 0002:00094b48       __fpclear                  00549bc8 f   LIBCMTD:fpinit.obj
 0002:00094b49       __cfltcvt_init             00549bc9 f   LIBCMTD:fpinit.obj
 0002:00094b8f       ___setfflag                00549c0f f   LIBCMTD:fpinit.obj
 0002:00094ba6       __fpmath                   00549c26 f   LIBCMTD:fpinit.obj
 0002:00094bd0       __RTC_CheckEsp             00549c50 f   LIBCMTD:stack.obj
 0002:00094c00       @_RTC_CheckStackVars@8     00549c80 f   LIBCMTD:stack.obj
 0002:00094c80       __RTC_InitBase             00549d00 f   LIBCMTD:init.obj
 0002:00094cc0       __RTC_Shutdown             00549d40 f   LIBCMTD:init.obj
 0002:00094cd8       __CIsin                    00549d58 f   LIBCMTD:sin.obj
 0002:00094cec       _sin                       00549d6c     LIBCMTD:sin.obj
 0002:00094db4       __CIcos                    00549e34 f   LIBCMTD:cos.obj
 0002:00094dc8       _cos                       00549e48     LIBCMTD:cos.obj
 0002:00094e90       _memset                    00549f10 f   LIBCMTD:memset.obj
 0002:00094f10       _malloc                    00549f90 f   LIBCMTD:dbgheap.obj
 0002:00094f40       __malloc_dbg               00549fc0 f   LIBCMTD:dbgheap.obj
 0002:00094f80       __nh_malloc                0054a000 f   LIBCMTD:dbgheap.obj
 0002:00094fb0       __nh_malloc_dbg            0054a030 f   LIBCMTD:dbgheap.obj
 0002:00095080       __heap_alloc               0054a100 f   LIBCMTD:dbgheap.obj
 0002:000950a0       __heap_alloc_dbg           0054a120 f   LIBCMTD:dbgheap.obj
 0002:00095480       _calloc                    0054a500 f   LIBCMTD:dbgheap.obj
 0002:000954b0       __calloc_dbg               0054a530 f   LIBCMTD:dbgheap.obj
 0002:00095530       _realloc                   0054a5b0 f   LIBCMTD:dbgheap.obj
 0002:00095560       __realloc_dbg              0054a5e0 f   LIBCMTD:dbgheap.obj
 0002:00095c70       __expand                   0054acf0 f   LIBCMTD:dbgheap.obj
 0002:00095ca0       __expand_dbg               0054ad20 f   LIBCMTD:dbgheap.obj
 0002:00095d50       _free                      0054add0 f   LIBCMTD:dbgheap.obj
 0002:00095d70       __free_lk                  0054adf0 f   LIBCMTD:dbgheap.obj
 0002:00095d90       __free_dbg                 0054ae10 f   LIBCMTD:dbgheap.obj
 0002:00095e20       __free_dbg_lk              0054aea0 f   LIBCMTD:dbgheap.obj
 0002:00096340       __msize                    0054b3c0 f   LIBCMTD:dbgheap.obj
 0002:00096360       __msize_dbg                0054b3e0 f   LIBCMTD:dbgheap.obj
 0002:00096530       __CrtSetBreakAlloc         0054b5b0 f   LIBCMTD:dbgheap.obj
 0002:00096560       __CrtSetDbgBlockType       0054b5e0 f   LIBCMTD:dbgheap.obj
 0002:00096670       __CrtSetAllocHook          0054b6f0 f   LIBCMTD:dbgheap.obj
 0002:00096700       __CrtCheckMemory           0054b780 f   LIBCMTD:dbgheap.obj
 0002:00096b40       __CrtSetDbgFlag            0054bbc0 f   LIBCMTD:dbgheap.obj
 0002:00096c10       __CrtDoForAllClientObjects 0054bc90 f   LIBCMTD:dbgheap.obj
 0002:00096ce0       __CrtIsValidPointer        0054bd60 f   LIBCMTD:dbgheap.obj
 0002:00096d40       __CrtIsValidHeapPointer    0054bdc0 f   LIBCMTD:dbgheap.obj
 0002:00096dc0       __CrtIsMemoryBlock         0054be40 f   LIBCMTD:dbgheap.obj
 0002:00096f30       __CrtReportBlockType       0054bfb0 f   LIBCMTD:dbgheap.obj
 0002:00096f70       __CrtSetDumpClient         0054bff0 f   LIBCMTD:dbgheap.obj
 0002:00096fa0       __CrtMemCheckpoint         0054c020 f   LIBCMTD:dbgheap.obj
 0002:000971a0       __CrtMemDifference         0054c220 f   LIBCMTD:dbgheap.obj
 0002:00097300       __CrtMemDumpAllObjectsSince 0054c380 f   LIBCMTD:dbgheap.obj
 0002:000977b0       __CrtDumpMemoryLeaks       0054c830 f   LIBCMTD:dbgheap.obj
 0002:00097830       __CrtMemDumpStatistics     0054c8b0 f   LIBCMTD:dbgheap.obj
 0002:00097910       __aligned_malloc           0054c990 f   LIBCMTD:dbgheap.obj
 0002:00097940       __aligned_malloc_dbg       0054c9c0 f   LIBCMTD:dbgheap.obj
 0002:00097970       __aligned_realloc          0054c9f0 f   LIBCMTD:dbgheap.obj
 0002:000979a0       __aligned_realloc_dbg      0054ca20 f   LIBCMTD:dbgheap.obj
 0002:000979d0       __aligned_offset_malloc    0054ca50 f   LIBCMTD:dbgheap.obj
 0002:00097a00       __aligned_offset_malloc_dbg 0054ca80 f   LIBCMTD:dbgheap.obj
 0002:00097b90       __aligned_offset_realloc   0054cc10 f   LIBCMTD:dbgheap.obj
 0002:00097bc0       __aligned_offset_realloc_dbg 0054cc40 f   LIBCMTD:dbgheap.obj
 0002:00097eb0       __aligned_free             0054cf30 f   LIBCMTD:dbgheap.obj
 0002:00097ed0       __aligned_free_dbg         0054cf50 f   LIBCMTD:dbgheap.obj
 0002:00097fa0       _memcpy                    0054d020 f   LIBCMTD:memcpy.obj
 0002:000983b0       _memmove                   0054d430 f   LIBCMTD:memmove.obj
 0002:000987c0       __stricmp                  0054d840 f   LIBCMTD:stricmp.obj
 0002:00098860       _atol                      0054d8e0 f   LIBCMTD:atox.obj
 0002:00098950       _atoi                      0054d9d0 f   LIBCMTD:atox.obj
 0002:00098970       __atoi64                   0054d9f0 f   LIBCMTD:atox.obj
 0002:00098a94       __ftol2                    0054db14 f   LIBCMTD:ftol2.obj
 0002:00098b30       _strcmp                    0054dbb0 f   LIBCMTD:strcmp.obj
 0002:00098be0       _strncmp                   0054dc60 f   LIBCMTD:strncmp.obj
 0002:00098c30       _strlen                    0054dcb0 f   LIBCMTD:strlen.obj
 0002:00098ce0       __alldiv                   0054dd60 f   LIBCMTD:lldiv.obj
 0002:00098dc0       __allmul                   0054de40 f   LIBCMTD:llmul.obj
 0002:00098e10       _memcmp                    0054de90 f   LIBCMTD:memcmp.obj
 0002:00098f00       ?_RTC_GetSrcLine@@YAHKPADHPAHPAPAD@Z 0054df80 f   LIBCMTD:error.obj
 0002:00098f50       ?_RTC_Failure@@YAXPAXH@Z   0054dfd0 f   LIBCMTD:error.obj
 0002:00099230       ?_RTC_MemFailure@@YAXPAXHPBX@Z 0054e2b0 f   LIBCMTD:error.obj
 0002:00099510       ?_RTC_StackFailure@@YAXPAXPBD@Z 0054e590 f   LIBCMTD:error.obj
 0002:00099600       __RTC_UninitUse            0054e680 f   LIBCMTD:error.obj
 0002:00099720       __strrev                   0054e7a0 f   LIBCMTD:strrev.obj
 0002:00099770       __allrem                   0054e7f0 f   LIBCMTD:llrem.obj
 0002:00099850       __aulldiv                  0054e8d0 f   LIBCMTD:ulldiv.obj
 0002:000998e0       __aullrem                  0054e960 f   LIBCMTD:ullrem.obj
 0002:00099980       _isalpha                   0054ea00 f   LIBCMTD:_ctype.obj
 0002:000999d0       _isupper                   0054ea50 f   LIBCMTD:_ctype.obj
 0002:00099a20       _islower                   0054eaa0 f   LIBCMTD:_ctype.obj
 0002:00099a70       _isdigit                   0054eaf0 f   LIBCMTD:_ctype.obj
 0002:00099ac0       _isxdigit                  0054eb40 f   LIBCMTD:_ctype.obj
 0002:00099b10       _isspace                   0054eb90 f   LIBCMTD:_ctype.obj
 0002:00099b60       _ispunct                   0054ebe0 f   LIBCMTD:_ctype.obj
 0002:00099bb0       _isalnum                   0054ec30 f   LIBCMTD:_ctype.obj
 0002:00099c00       _isprint                   0054ec80 f   LIBCMTD:_ctype.obj
 0002:00099c50       _isgraph                   0054ecd0 f   LIBCMTD:_ctype.obj
 0002:00099ca0       _iscntrl                   0054ed20 f   LIBCMTD:_ctype.obj
 0002:00099cf0       ___isascii                 0054ed70 f   LIBCMTD:_ctype.obj
 0002:00099d10       ___toascii                 0054ed90 f   LIBCMTD:_ctype.obj
 0002:00099d20       ___iscsymf                 0054eda0 f   LIBCMTD:_ctype.obj
 0002:00099da0       ___iscsym                  0054ee20 f   LIBCMTD:_ctype.obj
 0002:00099e20       __strlwr                   0054eea0 f   LIBCMTD:strlwr.obj
 0002:00099e80       __itoa                     0054ef00 f   LIBCMTD:xtoa.obj
 0002:00099fe0       __ltoa                     0054f060 f   LIBCMTD:xtoa.obj
 0002:0009a030       __ultoa                    0054f0b0 f   LIBCMTD:xtoa.obj
 0002:0009a060       __i64toa                   0054f0e0 f   LIBCMTD:xtoa.obj
 0002:0009a1f0       __ui64toa                  0054f270 f   LIBCMTD:xtoa.obj
 0002:0009a220       _strcpy                    0054f2a0 f   LIBCMTD:strcat.obj
 0002:0009a230       _strcat                    0054f2b0 f   LIBCMTD:strcat.obj
 0002:0009a360       __alloca_probe             0054f3e0     LIBCMTD:chkstk.obj
 0002:0009a360       __chkstk                   0054f3e0 f   LIBCMTD:chkstk.obj
 0002:0009a3c0       _sprintf                   0054f440 f   LIBCMTD:sprintf.obj
 0002:0009a4f0       __scprintf                 0054f570 f   LIBCMTD:sprintf.obj
 0002:0009a590       _strrchr                   0054f610 f   LIBCMTD:strrchr.obj
 0002:0009a5d0       __toupper                  0054f650 f   LIBCMTD:toupper.obj
 0002:0009a5e0       _toupper                   0054f660 f   LIBCMTD:toupper.obj
 0002:0009a650       _sscanf                    0054f6d0 f   LIBCMTD:sscanf.obj
 0002:0009a730       _strtol                    0054f7b0 f   LIBCMTD:strtol.obj
 0002:0009aaf0       _strtoul                   0054fb70 f   LIBCMTD:strtol.obj
 0002:0009ab14       __setjmp3                  0054fb94 f   LIBCMTD:setjmp3.obj
 0002:0009abb0       _longjmp                   0054fc30 f   LIBCMTD:longjmp.obj
 0002:0009ac50       _exit                      0054fcd0 f   LIBCMTD:crt0dat.obj
 0002:0009ac70       __exit                     0054fcf0 f   LIBCMTD:crt0dat.obj
 0002:0009ac90       __cexit                    0054fd10 f   LIBCMTD:crt0dat.obj
 0002:0009acb0       __c_exit                   0054fd30 f   LIBCMTD:crt0dat.obj
 0002:0009ae30       __lockexit                 0054feb0 f   LIBCMTD:crt0dat.obj
 0002:0009ae50       __unlockexit               0054fed0 f   LIBCMTD:crt0dat.obj
 0002:0009aea0       _strncpy                   0054ff20 f   LIBCMTD:strncpy.obj
 0002:0009b010       _tmpnam                    00550090 f   LIBCMTD:tmpfile.obj
 0002:0009b1b0       _tmpfile                   00550230 f   LIBCMTD:tmpfile.obj
 0002:0009b560       ___inc_tmpoff              005505e0 f   LIBCMTD:tmpfile.obj
 0002:0009b580       _fread                     00550600 f   LIBCMTD:fread.obj
 0002:0009b620       __fread_lk                 005506a0 f   LIBCMTD:fread.obj
 0002:0009b860       _fseek                     005508e0 f   LIBCMTD:fseek.obj
 0002:0009b930       __fseek_lk                 005509b0 f   LIBCMTD:fseek.obj
 0002:0009ba90       _fwrite                    00550b10 f   LIBCMTD:fwrite.obj
 0002:0009bb30       __fwrite_lk                00550bb0 f   LIBCMTD:fwrite.obj
 0002:0009bdd0       _fclose                    00550e50 f   LIBCMTD:fclose.obj
 0002:0009bec0       __fclose_lk                00550f40 f   LIBCMTD:fclose.obj
 0002:0009bfa0       __SEH_prolog               00551020 f   LIBCMTD:sehprolg.obj
 0002:0009bfdb       __SEH_epilog               0055105b f   LIBCMTD:sehprolg.obj
 0002:0009c008       __except_handler3          00551088 f   LIBCMTD:exsup3.obj
 0002:0009c0da       __seh_longjmp_unwind@4     0055115a f   LIBCMTD:exsup3.obj
 0002:0009c140       __snwprintf                005511c0 f   LIBCMTD:snwprint.obj
 0002:0009c2d0       __RTC_Initialize           00551350 f   LIBCMTD:initsect.obj
 0002:0009c370       __RTC_Terminate            005513f0 f   LIBCMTD:initsect.obj
 0002:0009c410       __vsnprintf                00551490 f   LIBCMTD:vsnprint.obj
 0002:0009c510       __snprintf                 00551590 f   LIBCMTD:snprintf.obj
 0002:0009c640       __strnicmp                 005516c0 f   LIBCMTD:strnicmp.obj
 0002:0009c700       __global_unwind2           00551780 f   LIBCMTD:exsup.obj
 0002:0009c742       __local_unwind2            005517c2 f   LIBCMTD:exsup.obj
 0002:0009c79a       __NLG_Return2              0055181a     LIBCMTD:exsup.obj
 0002:0009c7aa       __abnormal_termination     0055182a f   LIBCMTD:exsup.obj
 0002:0009c7cd       __NLG_Notify1              0055184d f   LIBCMTD:exsup.obj
 0002:0009c7d6       __NLG_Notify               00551856 f   LIBCMTD:exsup.obj
 0002:0009c7e9       __NLG_Dispatch             00551869     LIBCMTD:exsup.obj
 0002:0009c830       _wcsncpy                   005518b0 f   LIBCMTD:wcsncpy.obj
 0002:0009c8c0       _wcscat                    00551940 f   LIBCMTD:wcscat.obj
 0002:0009c930       _wcscpy                    005519b0 f   LIBCMTD:wcscat.obj
 0002:0009c980       _wcslen                    00551a00 f   LIBCMTD:wcslen.obj
 0002:0009c9c0       _wcscmp                    00551a40 f   LIBCMTD:wcscmp.obj
 0002:0009ca40       __wcsicmp                  00551ac0 f   LIBCMTD:wcsicmp.obj
 0002:0009cbb0       _strchr                    00551c30 f   LIBCMTD:strchr.obj
 0002:0009cbb6       ___from_strstr_to_strchr   00551c36     LIBCMTD:strchr.obj
 0002:0009cca4       _pow                       00551d24 f   LIBCMTD:pow.obj
 0002:0009cca8       __CIpow                    00551d28 f   LIBCMTD:pow.obj
 0002:0009ccaa       __CIpow_default            00551d2a f   LIBCMTD:pow.obj
 0002:0009ccc3       __pow_default              00551d43     LIBCMTD:pow.obj
 0002:0009cf40       _sinh                      00551fc0 f   LIBCMTD:87ctrigh.obj
 0002:0009cf4a       _cosh                      00551fca f   LIBCMTD:87ctrigh.obj
 0002:0009cf51       _tanh                      00551fd1 f   LIBCMTD:87ctrigh.obj
 0002:0009cf58       __CIsinh                   00551fd8 f   LIBCMTD:87ctrigh.obj
 0002:0009cf62       __CIcosh                   00551fe2 f   LIBCMTD:87ctrigh.obj
 0002:0009cf69       __CItanh                   00551fe9 f   LIBCMTD:87ctrigh.obj
 0002:0009cf80       _vsprintf                  00552000 f   LIBCMTD:vsprintf.obj
 0002:0009d0a0       __vscprintf                00552120 f   LIBCMTD:vsprintf.obj
 0002:0009d136       __copysign                 005521b6 f   LIBCMTD:ieeemisc.obj
 0002:0009d15f       __chgsign                  005521df f   LIBCMTD:ieeemisc.obj
 0002:0009d18e       __scalb                    0055220e f   LIBCMTD:ieeemisc.obj
 0002:0009d1ac       __logb                     0055222c f   LIBCMTD:ieeemisc.obj
 0002:0009d2d1       __nextafter                00552351 f   LIBCMTD:ieeemisc.obj
 0002:0009d5fe       __finite                   0055267e f   LIBCMTD:ieeemisc.obj
 0002:0009d61c       __isnan                    0055269c f   LIBCMTD:ieeemisc.obj
 0002:0009d658       __fpclass                  005526d8 f   LIBCMTD:ieeemisc.obj
 0002:0009d720       __purecall                 005527a0 f   LIBCMTD:purevirt.obj
 0002:0009d750       __set_purecall_handler     005527d0 f   LIBCMTD:purevirt.obj
 0002:0009d780       _ftell                     00552800 f   LIBCMTD:ftell.obj
 0002:0009d840       __ftell_lk                 005528c0 f   LIBCMTD:ftell.obj
 0002:0009db60       __allshl                   00552be0 f   LIBCMTD:llshl.obj
 0002:0009db90       __aullshr                  00552c10 f   LIBCMTD:ullshr.obj
 0002:0009dbc0       ___crtTlsAlloc@4           00552c40 f   LIBCMTD:tidtable.obj
 0002:0009dbd0       __mtinit                   00552c50 f   LIBCMTD:tidtable.obj
 0002:0009dc90       __mtterm                   00552d10 f   LIBCMTD:tidtable.obj
 0002:0009dca0       __initptd                  00552d20 f   LIBCMTD:tidtable.obj
 0002:0009dcc0       __getptd                   00552d40 f   LIBCMTD:tidtable.obj
 0002:0009ddd0       __freefls@4                00552e50 f   LIBCMTD:tidtable.obj
 0002:0009dfb0       __freeptd                  00553030 f   LIBCMTD:tidtable.obj
 0002:0009e040       ___threadid                005530c0 f   LIBCMTD:tidtable.obj
 0002:0009e050       ___threadhandle            005530d0 f   LIBCMTD:tidtable.obj
 0002:0009e060       __stbuf                    005530e0 f   LIBCMTD:_sftbuf.obj
 0002:0009e200       __ftbuf                    00553280 f   LIBCMTD:_sftbuf.obj
 0002:0009e2b0       __output                   00553330 f   LIBCMTD:output.obj
 0002:0009f600       __CrtDbgBreak              00554680 f   LIBCMTD:dbgrpt.obj
 0002:0009f610       __CrtSetReportMode         00554690 f   LIBCMTD:dbgrpt.obj
 0002:0009f680       __CrtSetReportFile         00554700 f   LIBCMTD:dbgrpt.obj
 0002:0009f6e0       __CrtSetReportHook         00554760 f   LIBCMTD:dbgrpt.obj
 0002:0009f710       __CrtSetReportHook2        00554790 f   LIBCMTD:dbgrpt.obj
 0002:0009f9f0       __CrtDbgReport             00554a70 f   LIBCMTD:dbgrpt.obj
 0002:000a03b0       __ioinit                   00555430 f   LIBCMTD:ioinit.obj
 0002:000a04b0       __ioterm                   00555530 f   LIBCMTD:ioinit.obj
 0002:000a0560       __fcloseall                005555e0 f   LIBCMTD:closeall.obj
 0002:000a06a0       _fflush                    00555720 f   LIBCMTD:fflush.obj
 0002:000a0750       __fflush_lk                005557d0 f   LIBCMTD:fflush.obj
 0002:000a07a0       __flush                    00555820 f   LIBCMTD:fflush.obj
 0002:000a0880       __flushall                 00555900 f   LIBCMTD:fflush.obj
 0002:000a0aa0       __mtinitlocks              00555b20 f   LIBCMTD:mlock.obj
 0002:000a0b50       __mtdeletelocks            00555bd0 f   LIBCMTD:mlock.obj
 0002:000a0c30       __mtinitlocknum            00555cb0 f   LIBCMTD:mlock.obj
 0002:000a0da0       __lock                     00555e20 f   LIBCMTD:mlock.obj
 0002:000a0df0       __unlock                   00555e70 f   LIBCMTD:mlock.obj
 0002:000a0e10       __lockerr_exit             00555e90 f   LIBCMTD:mlock.obj
 0002:000a0e2e       __forcdecpt                00555eae f   LIBCMTD:cvt.obj
 0002:000a0e94       __cropzeros                00555f14 f   LIBCMTD:cvt.obj
 0002:000a0ef5       __positive                 00555f75 f   LIBCMTD:cvt.obj
 0002:000a0f1a       __fassign                  00555f9a f   LIBCMTD:cvt.obj
 0002:000a1065       __cftoe                    005560e5 f   LIBCMTD:cvt.obj
 0002:000a11aa       __cftof                    0055622a f   LIBCMTD:cvt.obj
 0002:000a1210       __cftog                    00556290 f   LIBCMTD:cvt.obj
 0002:000a12c0       __cfltcvt                  00556340 f   LIBCMTD:cvt.obj
 0002:000a1330       __setdefaultprecision      005563b0 f   LIBCMTD:fp8.obj
 0002:000a1350       __RTC_NumErrors            005563d0 f   LIBCMTD:userapi.obj
 0002:000a1360       __RTC_GetErrDesc           005563e0 f   LIBCMTD:userapi.obj
 0002:000a1390       __RTC_SetErrorType         00556410 f   LIBCMTD:userapi.obj
 0002:000a13c0       __RTC_SetErrorFunc         00556440 f   LIBCMTD:userapi.obj
 0002:000a13e0       ?_RTC_GetErrorFunc@@YAP6AHHPBDH00ZZPBX@Z 00556460 f   LIBCMTD:userapi.obj
 0002:000a13f0       __chkesp                   00556470 f   LIBCMTD:chkesp.obj
 0002:000a1440       __CRT_RTC_INIT             005564c0 f   LIBCMTD:chkesp.obj
 0002:000a144c       __trandisp1                005564cc f   LIBCMTD:87disp.obj
 0002:000a14b3       __trandisp2                00556533 f   LIBCMTD:87disp.obj
 0002:000a153f       __rttospopde               005565bf     LIBCMTD:87disp.obj
 0002:000a1544       __rttospop                 005565c4     LIBCMTD:87disp.obj
 0002:000a1546       __rtnospop                 005565c6     LIBCMTD:87disp.obj
 0002:000a1548       __rttosnpop                005565c8     LIBCMTD:87disp.obj
 0002:000a1549       __rtnospopde               005565c9     LIBCMTD:87disp.obj
 0002:000a1550       __rtzeropop                005565d0     LIBCMTD:87disp.obj
 0002:000a1552       __rtzeronpop               005565d2     LIBCMTD:87disp.obj
 0002:000a1557       __rtonepop                 005565d7     LIBCMTD:87disp.obj
 0002:000a1559       __rtonenpop                005565d9     LIBCMTD:87disp.obj
 0002:000a155e       __tosnan1                  005565de     LIBCMTD:87disp.obj
 0002:000a1589       __nosnan2                  00556609     LIBCMTD:87disp.obj
 0002:000a158b       __tosnan2                  0055660b     LIBCMTD:87disp.obj
 0002:000a15b3       __nan2                     00556633     LIBCMTD:87disp.obj
 0002:000a15f2       __rtindfpop                00556672     LIBCMTD:87disp.obj
 0002:000a15f4       __rtindfnpop               00556674     LIBCMTD:87disp.obj
 0002:000a1605       __rttosnpopde              00556685     LIBCMTD:87disp.obj
 0002:000a160f       __rtchsifneg               0055668f     LIBCMTD:87disp.obj
 0002:000a1688       __twoToTOS                 00556708 f   LIBCMTD:common.obj
 0002:000a169d       __load_CW                  0055671d f   LIBCMTD:common.obj
 0002:000a16b4       __convertTOStoQNaN         00556734 f   LIBCMTD:common.obj
 0002:000a16cd       __fload_withFB             0055674d f   LIBCMTD:common.obj
 0002:000a1710       __checkTOS_withFB          00556790 f   LIBCMTD:common.obj
 0002:000a1726       __fast_exit                005567a6 f   LIBCMTD:common.obj
 0002:000a1733       __math_exit                005567b3 f   LIBCMTD:common.obj
 0002:000a175d       __check_overflow_exit      005567dd f   LIBCMTD:common.obj
 0002:000a1771       __check_range_exit         005567f1 f   LIBCMTD:common.obj
 0002:000a1878       __startTwoArgErrorHandling 005568f8 f   LIBCMTD:genexcep.obj
 0002:000a188f       __startOneArgErrorHandling 0055690f f   LIBCMTD:genexcep.obj
 0002:000a18e0       ?_set_new_handler@@YAP6AHI@ZP6AHI@Z@Z 00556960 f   LIBCMTD:handler.obj
 0002:000a1920       ?_query_new_handler@@YAP6AHI@ZXZ 005569a0 f   LIBCMTD:handler.obj
 0002:000a1930       __callnewh                 005569b0 f   LIBCMTD:handler.obj
 0002:000a1970       __malloc_base              005569f0 f   LIBCMTD:malloc.obj
 0002:000a19a0       __nh_malloc_base           00556a20 f   LIBCMTD:malloc.obj
 0002:000a1a10       __heap_alloc_base          00556a90 f   LIBCMTD:malloc.obj
 0002:000a1a60       __CrtDefaultAllocHook      00556ae0 f   LIBCMTD:dbghook.obj
 0002:000a1a70       __expand_base              00556af0 f   LIBCMTD:expand.obj
 0002:000a1b90       __realloc_base             00556c10 f   LIBCMTD:realloc.obj
 0002:000a1d70       __free_base                00556df0 f   LIBCMTD:free.obj
 0002:000a1e40       __heapchk                  00556ec0 f   LIBCMTD:heapchk.obj
 0002:000a1f20       __heapset                  00556fa0 f   LIBCMTD:heapchk.obj
 0002:000a1f30       ___heap_select             00556fb0 f   LIBCMTD:heapinit.obj
 0002:000a1f50       __get_heap_handle          00556fd0 f   LIBCMTD:heapinit.obj
 0002:000a1f60       __chvalidator              00556fe0 f   LIBCMTD:isctype.obj
 0002:000a1fb0       __isctype                  00557030 f   LIBCMTD:isctype.obj
 0002:000a1ff0       __dosmaperr                00557070 f   LIBCMTD:dosmap.obj
 0002:000a20b0       __errno                    00557130 f   LIBCMTD:dosmap.obj
 0002:000a20c0       ___doserrno                00557140 f   LIBCMTD:dosmap.obj
 0002:000a20d0       __tolower                  00557150 f   LIBCMTD:tolower.obj
 0002:000a20e0       _tolower                   00557160 f   LIBCMTD:tolower.obj
 0002:000a2150       ___ascii_stricmp           005571d0 f   LIBCMTD:_stricmp.obj
 0002:000a21c0       __ismbcspace               00557240 f   LIBCMTD:ismbspc.obj
 0002:000a2220       __flsbuf                   005572a0 f   LIBCMTD:_flsbuf.obj
 0002:000a2510       __input                    00557590 f   LIBCMTD:input.obj
 0002:000a40f0       __rt_probe_read4@4         00559170 f   LIBCMTD:sehsupp.obj
 0002:000a41a0       __access                   00559220 f   LIBCMTD:access.obj
 0002:000a4210       __close                    00559290 f   LIBCMTD:close.obj
 0002:000a4340       __close_lk                 005593c0 f   LIBCMTD:close.obj
 0002:000a4420       __open                     005594a0 f   LIBCMTD:open.obj
 0002:000a44f0       __sopen                    00559570 f   LIBCMTD:open.obj
 0002:000a4b50       __getstream                00559bd0 f   LIBCMTD:stream.obj
 0002:000a4e00       __mbsrchr                  00559e80 f   LIBCMTD:mbsrchr.obj
 0002:000a4f00       __rmtmp                    00559f80 f   LIBCMTD:rmtmp.obj
 0002:000a50a0       __filbuf                   0055a120 f   LIBCMTD:_filbuf.obj
 0002:000a52f0       __read                     0055a370 f   LIBCMTD:read.obj
 0002:000a5440       __read_lk                  0055a4c0 f   LIBCMTD:read.obj
 0002:000a5990       __lseek                    0055aa10 f   LIBCMTD:lseek.obj
 0002:000a5ae0       __lseek_lk                 0055ab60 f   LIBCMTD:lseek.obj
 0002:000a5bc0       __write                    0055ac40 f   LIBCMTD:write.obj
 0002:000a5d10       __write_lk                 0055ad90 f   LIBCMTD:write.obj
 0002:000a60a0       __freebuf                  0055b120 f   LIBCMTD:_freebuf.obj
 0002:000a6150       __woutput                  0055b1d0 f   LIBCMTD:woutput.obj
 0002:000a73c0       ___ascii_strnicmp          0055c440 f   LIBCMTD:_strnicm.obj
 0002:000a7440       _towlower                  0055c4c0 f   LIBCMTD:towlower.obj
 0002:000a74e9       __fFEXP                    0055c569     LIBCMTD:87tran.obj
 0002:000a7540       __rtinfpopse               0055c5c0     LIBCMTD:87tran.obj
 0002:000a7542       __rtinfnpopse              0055c5c2     LIBCMTD:87tran.obj
 0002:000a7552       __fFLN                     0055c5d2     LIBCMTD:87tran.obj
 0002:000a7607       __rtinfpop                 0055c687     LIBCMTD:87tran.obj
 0002:000a7609       __rtinfnpop                0055c689     LIBCMTD:87tran.obj
 0002:000a7626       __ffexpm1                  0055c6a6     LIBCMTD:87tran.obj
 0002:000a774c       __d_inttype                0055c7cc f   LIBCMTD:powhlp.obj
 0002:000a77ca       __powhlp                   0055c84a f   LIBCMTD:powhlp.obj
 0002:000a7970       __fFSINH                   0055c9f0     LIBCMTD:87trigh.obj
 0002:000a79c2       __fFCOSH                   0055ca42     LIBCMTD:87trigh.obj
 0002:000a7aac       __cintrindisp2             0055cb2c f   LIBCMTD:87cdisp.obj
 0002:000a7aea       __cintrindisp1             0055cb6a f   LIBCMTD:87cdisp.obj
 0002:000a7b27       __ctrandisp2               0055cba7 f   LIBCMTD:87cdisp.obj
 0002:000a7cbd       __ctrandisp1               0055cd3d f   LIBCMTD:87cdisp.obj
 0002:000a7cf0       __fload                    0055cd70 f   LIBCMTD:87cdisp.obj
 0002:000a7dcc       _ldexp                     0055ce4c f   LIBCMTD:ldexp.obj
 0002:000a7fe0       __set_exp                  0055d060 f   LIBCMTD:util.obj
 0002:000a8014       __get_exp                  0055d094 f   LIBCMTD:util.obj
 0002:000a8032       __add_exp                  0055d0b2 f   LIBCMTD:util.obj
 0002:000a8067       __set_bexp                 0055d0e7 f   LIBCMTD:util.obj
 0002:000a8095       __sptype                   0055d115 f   LIBCMTD:util.obj
 0002:000a8106       __decomp                   0055d186 f   LIBCMTD:util.obj
 0002:000a81e7       __raise_exc                0055d267 f   LIBCMTD:fpexcept.obj
 0002:000a8534       __handle_exc               0055d5b4 f   LIBCMTD:fpexcept.obj
 0002:000a879c       __set_errno                0055d81c f   LIBCMTD:fpexcept.obj
 0002:000a87fe       __errcode                  0055d87e f   LIBCMTD:fpexcept.obj
 0002:000a883c       __umatherr                 0055d8bc f   LIBCMTD:fpexcept.obj
 0002:000a8901       __handle_qnan1             0055d981 f   LIBCMTD:fpexcept.obj
 0002:000a8968       __handle_qnan2             0055d9e8 f   LIBCMTD:fpexcept.obj
 0002:000a89de       __except1                  0055da5e f   LIBCMTD:fpexcept.obj
 0002:000a8aba       __except2                  0055db3a f   LIBCMTD:fpexcept.obj
 0002:000a8ba8       __statfp                   0055dc28 f   LIBCMTD:fpctrl.obj
 0002:000a8bb9       __clrfp                    0055dc39 f   LIBCMTD:fpctrl.obj
 0002:000a8bcb       __ctrlfp                   0055dc4b f   LIBCMTD:fpctrl.obj
 0002:000a8bf8       __set_statfp               0055dc78 f   LIBCMTD:fpctrl.obj
 0002:000a8c70       __amsg_exit                0055dcf0 f   LIBCMTD:crt0.obj
 0002:000a8ca0       __beginthread              0055dd20 f   LIBCMTD:thread.obj
 0002:000a8f00       __endthread                0055df80 f   LIBCMTD:thread.obj
 0002:000a8f50       __mtxthreadnotification@4  0055dfd0 f   LIBCMTD:thread.obj
 0002:000a8fa0       ___CppXcptFilter           0055e020 f   LIBCMTD:winxfltr.obj
 0002:000a8fd0       __XcptFilter               0055e050 f   LIBCMTD:winxfltr.obj
 0002:000a9270       ___updatetmbcinfo          0055e2f0 f   LIBCMTD:mbctype.obj
 0002:000a9370       __setmbcp                  0055e3f0 f   LIBCMTD:mbctype.obj
 0002:000a9940       __getmbcp                  0055e9c0 f   LIBCMTD:mbctype.obj
 0002:000a9960       ___initmbctable            0055e9e0 f   LIBCMTD:mbctype.obj
 0002:000a99a0       __isatty                   0055ea20 f   LIBCMTD:isatty.obj
 0002:000a99e0       _wctomb                    0055ea60 f   LIBCMTD:wctomb.obj
 0002:000a9a30       ___pwctype_func            0055eab0 f   LIBCMTD:ctype.obj
 0002:000a9a40       ___pctype_func             0055eac0 f   LIBCMTD:ctype.obj
 0002:000a9a50       _signal                    0055ead0 f   LIBCMTD:winsig.obj
 0002:000a9cf0       _raise                     0055ed70 f   LIBCMTD:winsig.obj
 0002:000aa050       ___fpecode                 0055f0d0 f   LIBCMTD:winsig.obj
 0002:000aa060       ___pxcptinfoptrs           0055f0e0 f   LIBCMTD:winsig.obj
 0002:000aa070       __commit                   0055f0f0 f   LIBCMTD:commit.obj
 0002:000aa1d0       ___crtInitCritSecAndSpinCount 0055f250 f   LIBCMTD:initcrit.obj
 0002:000aa2bb       __ZeroTail                 0055f33b f   LIBCMTD:intrncvt.obj
 0002:000aa2fd       __IncMan                   0055f37d f   LIBCMTD:intrncvt.obj
 0002:000aa35f       __RoundMan                 0055f3df f   LIBCMTD:intrncvt.obj
 0002:000aa3ed       __CopyMan                  0055f46d f   LIBCMTD:intrncvt.obj
 0002:000aa411       __FillZeroMan              0055f491 f   LIBCMTD:intrncvt.obj
 0002:000aa423       __IsZeroMan                0055f4a3 f   LIBCMTD:intrncvt.obj
 0002:000aa447       __ShrMan                   0055f4c7 f   LIBCMTD:intrncvt.obj
 0002:000aa4e0       __ld12cvt                  0055f560 f   LIBCMTD:intrncvt.obj
 0002:000aa68e       __ld12tod                  0055f70e f   LIBCMTD:intrncvt.obj
 0002:000aa6ac       __ld12tof                  0055f72c f   LIBCMTD:intrncvt.obj
 0002:000aa6ca       __ld12told                 0055f74a f   LIBCMTD:intrncvt.obj
 0002:000aa765       __atodbl                   0055f7e5 f   LIBCMTD:intrncvt.obj
 0002:000aa79d       __atoldbl                  0055f81d f   LIBCMTD:intrncvt.obj
 0002:000aa7d6       __atoflt                   0055f856 f   LIBCMTD:intrncvt.obj
 0002:000aa810       __fptostr                  0055f890 f   LIBCMTD:_fptostr.obj
 0002:000aa949       ___dtold                   0055f9c9 f   LIBCMTD:cfout.obj
 0002:000aaa31       __fltout2                  0055fab1 f   LIBCMTD:cfout.obj
 0002:000aaab0       __fptrap                   0055fb30 f   LIBCMTD:crt0fp.obj
 0002:000aaac2       __fpreset                  0055fb42 f   LIBCMTD:ieee87.obj
 0002:000aacb3       __statusfp                 0055fd33 f   LIBCMTD:ieee87.obj
 0002:000aacca       __clearfp                  0055fd4a f   LIBCMTD:ieee87.obj
 0002:000aace3       __control87                0055fd63 f   LIBCMTD:ieee87.obj
 0002:000aad22       __controlfp                0055fda2 f   LIBCMTD:ieee87.obj
 0002:000aad40       __87except                 0055fdc0 f   LIBCMTD:87except.obj
 0002:000aae90       __getbuf                   0055ff10 f   LIBCMTD:_getbuf.obj
 0002:000aaf80       _mbtowc                    00560000 f   LIBCMTD:mbtowc.obj
 0002:000ab020       _ungetc                    005600a0 f   LIBCMTD:ungetc.obj
 0002:000ab0f0       __ungetc_lk                00560170 f   LIBCMTD:ungetc.obj
 0002:000ab270       __alloc_osfhnd             005602f0 f   LIBCMTD:osfinfo.obj
 0002:000ab590       __set_osfhnd               00560610 f   LIBCMTD:osfinfo.obj
 0002:000ab610       __free_osfhnd              00560690 f   LIBCMTD:osfinfo.obj
 0002:000ab6c0       __get_osfhandle            00560740 f   LIBCMTD:osfinfo.obj
 0002:000ab740       __open_osfhandle           005607c0 f   LIBCMTD:osfinfo.obj
 0002:000ab880       __lock_fhandle             00560900 f   LIBCMTD:osfinfo.obj
 0002:000ab9b0       __unlock_fhandle           00560a30 f   LIBCMTD:osfinfo.obj
 0002:000ab9e0       __chsize                   00560a60 f   LIBCMTD:chsize.obj
 0002:000abb00       __chsize_lk                00560b80 f   LIBCMTD:chsize.obj
 0002:000abd40       __lseeki64                 00560dc0 f   LIBCMTD:lseeki64.obj
 0002:000abea0       __lseeki64_lk              00560f20 f   LIBCMTD:lseeki64.obj
 0002:000abf90       _fputwc                    00561010 f   LIBCMTD:fputwc.obj
 0002:000ac060       __putwc_lk                 005610e0 f   LIBCMTD:fputwc.obj
 0002:000ac230       _putwc                     005612b0 f   LIBCMTD:fputwc.obj
 0002:000ac250       _iswctype                  005612d0 f   LIBCMTD:iswctype.obj
 0002:000ac2b0       _is_wctype                 00561330 f   LIBCMTD:iswctype.obj
 0002:000ac2cc       __frnd                     0056134c f   LIBCMTD:frnd.obj
 0002:000ac2e2       __matherr                  00561362 f   LIBCMTD:matherr.obj
 0002:000ac2f0       __FF_MSGBANNER             00561370 f   LIBCMTD:crt0msg.obj
 0002:000ac330       __NMSG_WRITE               005613b0 f   LIBCMTD:crt0msg.obj
 0002:000ac3e0       __GET_RTERRMSG             00561460 f   LIBCMTD:crt0msg.obj
 0002:000ac444       ___addl                    005614c4 f   LIBCMTD:mantold.obj
 0002:000ac46e       ___add_12                  005614ee f   LIBCMTD:mantold.obj
 0002:000ac4e6       ___shl_12                  00561566 f   LIBCMTD:mantold.obj
 0002:000ac523       ___shr_12                  005615a3 f   LIBCMTD:mantold.obj
 0002:000ac55f       ___mtold12                 005615df f   LIBCMTD:mantold.obj
 0002:000ac660       ___strgtold12              005616e0 f   LIBCMTD:strgtold.obj
 0002:000acbf9       ___STRINGTOLD              00561c79 f   LIBCMTD:strgtold.obj
 0002:000acc44       _$I10_OUTPUT               00561cc4 f   LIBCMTD:x10fout.obj
 0002:000acf60       __setmode                  00561fe0 f   LIBCMTD:setmode.obj
 0002:000ad080       __setmode_lk               00562100 f   LIBCMTD:setmode.obj
 0002:000ad190       __flswbuf                  00562210 f   LIBCMTD:_flswbuf.obj
 0002:000ad499       ___ld12mul                 00562519 f   LIBCMTD:tenpow.obj
 0002:000ad743       ___multtenpow12            005627c3 f   LIBCMTD:tenpow.obj
 0002:000ad7d6       _XapiGetKernelExportAddress@4 00562856 f   xapilibd:delaybnd.obj
 0002:000ad81e       _XGetAudioFlags@0          0056289e f   xapilibd:xgetaudioflags.obj
 0002:000ad870       _XapiDpcForCancelIo@16     005628f0 f   xapilibd:cancelio.obj
 0002:000ad8af       _CancelIo@4                0056292f f   xapilibd:cancelio.obj
 0002:000ad9d2       _UTF8ToUnicode@16          00562a52 f   xapilibd:widechar.obj
 0002:000adb7d       _UnicodeToUTF8@16          00562bfd f   xapilibd:widechar.obj
 0002:000adc63       _MultiByteToWideChar@24    00562ce3 f   xapilibd:widechar.obj
 0002:000add65       _WideCharToMultiByte@32    00562de5 f   xapilibd:widechar.obj
 0002:000ade9d       _DebugBreak@0              00562f1d f   xapilibd:kthunks.obj
 0002:000adea2       _GetSystemTimeAsFileTime@4 00562f22 f   xapilibd:kthunks.obj
 0002:000adeae       _wvsprintfW@12             00562f2e f   xapilibd:kthunks.obj
 0002:000adecc       _wvsprintfA@12             00562f4c f   xapilibd:kthunks.obj
 0002:000adeea       _DebugPrint                00562f6a f   xapilibd:kthunks.obj
 0002:000adf30       _wsprintfW                 00562fb0 f   xapilibd:kthunks.obj
 0002:000adf49       _wsprintfA                 00562fc9 f   xapilibd:kthunks.obj
 0002:000adf62       _IsBadReadPtr@8            00562fe2 f   xapilibd:process.obj
 0002:000adfe0       _IsBadWritePtr@8           00563060 f   xapilibd:process.obj
 0002:000ae063       _IsBadCodePtr@4            005630e3 f   xapilibd:process.obj
 0002:000ae078       _IsBadStringPtrW@8         005630f8 f   xapilibd:process.obj
 0002:000ae0ec       _IsBadStringPtrA@8         0056316c f   xapilibd:process.obj
 0002:000ae158       _TlsAlloc@0                005631d8 f   xapilibd:tls.obj
 0002:000ae1c1       _TlsGetValue@4             00563241 f   xapilibd:tls.obj
 0002:000ae207       _TlsSetValue@8             00563287 f   xapilibd:tls.obj
 0002:000ae25b       _TlsFree@4                 005632db f   xapilibd:tls.obj
 0002:000ae32e       _KeBugCheck@4              005633ae f   xboxkrnl:xboxkrnl.exe
 0002:000ae334       _RtlUnwind@16              005633b4 f   xboxkrnl:xboxkrnl.exe
 0002:000ae33a       @IofCompleteRequest@8      005633ba f   xboxkrnl:xboxkrnl.exe
 0002:000ae340       _RtlAnsiStringToUnicodeString@12 005633c0 f   xboxkrnl:xboxkrnl.exe
 0002:000ae346       _RtlUnicodeStringToAnsiString@12 005633c6 f   xboxkrnl:xboxkrnl.exe
 0002:000ae350       _vswprintf                 005633d0 f   LIBCMTD:vswprint.obj
 0002:000ae4d0       __vscwprintf               00563550 f   LIBCMTD:vswprint.obj
 0003:00000000       _Direct3DCreate8@4         00563600 f   d3d8d:enum.obj
 0003:00000040       _Direct3D_GetAdapterIdentifier@12 00563640 f   d3d8d:enum.obj
 0003:00000090       _Direct3D_GetAdapterModeCount@4 00563690 f   d3d8d:enum.obj
 0003:00000170       _Direct3D_EnumAdapterModes@12 00563770 f   d3d8d:enum.obj
 0003:00000340       _Direct3D_GetDeviceCaps@12 00563940 f   d3d8d:enum.obj
 0003:00000390       ?GetRefreshRate@CMiniport@D3D@@QAEKXZ 00563990 f i d3d8d:enum.obj
 0003:000003f0       ?DecodeD3DFORMAT@D3D@@YG?AW4_D3DFORMAT@@K@Z 005639f0 f i d3d8d:enum.obj
 0003:00000410       ?DecodeLogWidth@D3D@@YGKK@Z 00563a10 f i d3d8d:enum.obj
 0003:00000430       ?DecodeLogHeight@D3D@@YGKK@Z 00563a30 f i d3d8d:enum.obj
 0003:00000450       ?IsValidRenderTargetD3DFORMAT@D3D@@YGHW4_D3DFORMAT@@@Z 00563a50 f i d3d8d:enum.obj
 0003:00000470       ?IsValidDepthBufferD3DFORMAT@D3D@@YGHW4_D3DFORMAT@@@Z 00563a70 f i d3d8d:enum.obj
 0003:00000490       ?BitsPerPixelOfD3DFORMAT@D3D@@YGKW4_D3DFORMAT@@@Z 00563a90 f i d3d8d:enum.obj
 0003:000004b0       ?GetLogWidth@PixelJar@D3D@@YGKPAUD3DPixelContainer@@@Z 00563ab0 f i d3d8d:enum.obj
 0003:000004d0       ?GetLogHeight@PixelJar@D3D@@YGKPAUD3DPixelContainer@@@Z 00563ad0 f i d3d8d:enum.obj
 0003:000004f0       ?GetLinearWidth@PixelJar@D3D@@YGKPAUD3DPixelContainer@@@Z 00563af0 f i d3d8d:enum.obj
 0003:00000530       ?GetLinearHeight@PixelJar@D3D@@YGKPAUD3DPixelContainer@@@Z 00563b30 f i d3d8d:enum.obj
 0003:00000570       ?GetWidth@PixelJar@D3D@@YGKPAUD3DPixelContainer@@@Z 00563b70 f i d3d8d:enum.obj
 0003:000005b0       ?GetHeight@PixelJar@D3D@@YGKPAUD3DPixelContainer@@@Z 00563bb0 f i d3d8d:enum.obj
 0003:000005f0       ?CheckDisplayFormat@D3D@@YGHW4_D3DFORMAT@@@Z 00563bf0 f i d3d8d:enum.obj
 0003:00000610       _Direct3D_GetAdapterDisplayMode@8 00563c10 f   d3d8d:enum.obj
 0003:00000710       _Direct3D_CheckDeviceType@20 00563d10 f   d3d8d:enum.obj
 0003:000007a0       _Direct3D_CheckDeviceFormat@24 00563da0 f   d3d8d:enum.obj
 0003:00000850       _Direct3D_CheckDeviceMultiSampleType@20 00563e50 f   d3d8d:enum.obj
 0003:00000900       _Direct3D_CheckDepthStencilMatch@20 00563f00 f   d3d8d:enum.obj
 0003:00000980       _Direct3D_SetPushBufferSize@8 00563f80 f   d3d8d:d3ddev.obj
 0003:00000a60       _Direct3D_CreateDevice@24  00564060 f   d3d8d:d3ddev.obj
 0003:00000c40       ?CleanPrivateData@D3D@@YGXPAX@Z 00564240 f   d3d8d:resource.obj
 0003:00000ca0       _IsEqualGUID@8             005642a0 f i d3d8d:resource.obj
 0003:00000cd0       _==@8                      005642d0 f i d3d8d:resource.obj
 0003:00000d00       ?ExceptionFilter@D3D@@YGJXZ 00564300 f   d3d8d:resource.obj
 0003:00000d20       ?AddRef@D3DDevice@@SGKXZ   00564320 f i d3d8d:resource.obj
 0003:00000d30       ?AssertContiguous@D3D@@YGXPAXPAD@Z 00564330 f i d3d8d:resource.obj
 0003:00000d60       ?AssertPhysical@D3D@@YGXKPAD@Z 00564360 f i d3d8d:resource.obj
 0003:00000d90       ?AssertCached@D3D@@YGXPAXPAD@Z 00564390 f i d3d8d:resource.obj
 0003:00000dc0       ?GetGPUAddress@D3D@@YGKPAX@Z 005643c0 f i d3d8d:resource.obj
 0003:00000e00       ?GetWriteCombinedAddress@D3D@@YGPAXK@Z 00564400 f i d3d8d:resource.obj
 0003:00000ea0       ?IsValidD3DFORMAT@D3D@@YGHW4_D3DFORMAT@@@Z 005644a0 f i d3d8d:resource.obj
 0003:00000ed0       ?IsLinearD3DFORMAT@D3D@@YGHW4_D3DFORMAT@@@Z 005644d0 f i d3d8d:resource.obj
 0003:00000ef0       ?CalcPitch@D3D@@YGKKK@Z    005644f0 f i d3d8d:resource.obj
 0003:00000f10       ?IsSurface@PixelJar@D3D@@YG_NPAUD3DResource@@@Z 00564510 f i d3d8d:resource.obj
 0003:00000f40       ?GetFormat@PixelJar@D3D@@YG?AW4_D3DFORMAT@@PAUD3DPixelContainer@@@Z 00564540 f i d3d8d:resource.obj
 0003:00000f60       ?GetParent@PixelJar@D3D@@YGPAUD3DBaseTexture@@PAUD3DResource@@@Z 00564560 f i d3d8d:resource.obj
 0003:00000f90       ?PitchFromSize@PixelJar@D3D@@YGKK@Z 00564590 f i d3d8d:resource.obj
 0003:00000fb0       ?GetLinearPitch@PixelJar@D3D@@YGKPAUD3DPixelContainer@@@Z 005645b0 f i d3d8d:resource.obj
 0003:00000ff0       ?IsChildSurface@D3D@@YGHPAUD3DResource@@@Z 005645f0 f i d3d8d:resource.obj
 0003:00001030       ?GpuTime@CDevice@D3D@@QAEKXZ 00564630 f i d3d8d:resource.obj
 0003:00001040       ?Age@CDevice@D3D@@QAEKK@Z  00564640 f i d3d8d:resource.obj
 0003:00001050       ?IsTimePending@CDevice@D3D@@QAEHK@Z 00564650 f i d3d8d:resource.obj
 0003:00001080       ?FindPrivateData@D3D@@YGPAUPrivateDataNode@1@PAXABU_GUID@@@Z 00564680 f   d3d8d:resource.obj
 0003:000010d0       ?DestroyResource@D3D@@YGXPAUD3DResource@@@Z 005646d0 f   d3d8d:resource.obj
 0003:00001200       ?VALIDATE_RESOURCE@D3D@@YGXPAUD3DResource@@W4_D3DRESOURCETYPE@@H@Z 00564800 f   d3d8d:resource.obj
 0003:00001560       ?InternalAddRef@D3D@@YGXPAUD3DResource@@W4_D3DRESOURCETYPE@@@Z 00564b60 f i d3d8d:resource.obj
 0003:000015f0       ?InternalRelease@D3D@@YGXPAUD3DResource@@W4_D3DRESOURCETYPE@@@Z 00564bf0 f i d3d8d:resource.obj
 0003:00001690       ?IsResourceSetInDevice@D3D@@YGHPAUD3DResource@@@Z 00564c90 f   d3d8d:resource.obj
 0003:000016f0       ?InternalAddRefSurface@D3D@@YGXPAUD3DResource@@@Z 00564cf0 f   d3d8d:resource.obj
 0003:00001810       ?InternalReleaseSurface@D3D@@YGXPAUD3DResource@@@Z 00564e10 f   d3d8d:resource.obj
 0003:00001950       _D3DResource_AddRef@4      00564f50 f   d3d8d:resource.obj
 0003:000019e0       _D3DResource_Release@4     00564fe0 f   d3d8d:resource.obj
 0003:00001a90       _D3DResource_GetType@4     00565090 f   d3d8d:resource.obj
 0003:00001bb0       _D3DResource_IsBusy@4      005651b0 f   d3d8d:resource.obj
 0003:00001c80       _D3DResource_GetDevice@8   00565280 f   d3d8d:resource.obj
 0003:00001cc0       _D3DResource_Register@8    005652c0 f   d3d8d:resource.obj
 0003:00001dd0       _D3DResource_BlockUntilNotBusy@4 005653d0 f   d3d8d:resource.obj
 0003:00001e00       _D3DResource_SetPrivateData@20 00565400 f   d3d8d:resource.obj
 0003:00001fa0       _D3DResource_GetPrivateData@16 005655a0 f   d3d8d:resource.obj
 0003:00002060       _D3DResource_FreePrivateData@8 00565660 f   d3d8d:resource.obj
 0003:00002100       _D3DDevice_GetDirect3D@4   00565700 f   d3d8d:d3dbase.obj
 0003:00002120       _D3DDevice_GetDeviceCaps@4 00565720 f   d3d8d:d3dbase.obj
 0003:00002150       _D3DDevice_GetCreationParameters@4 00565750 f   d3d8d:d3dbase.obj
 0003:000021c0       _D3DDevice_SetGammaRamp@8  005657c0 f   d3d8d:d3dbase.obj
 0003:00002270       _D3DDevice_GetGammaRamp@4  00565870 f   d3d8d:d3dbase.obj
 0003:000022b0       ?NV057FormatFromD3DRectColorFormat@D3D@@YGKW4_D3DCOPYRECTCOLORFORMAT@@@Z 005658b0 f i d3d8d:d3dbase.obj
 0003:00002300       ?ValidateCopyRectState@D3D@@YGXW4_D3DCOPYRECTCOLORFORMAT@@W4_D3DCOPYRECTOPERATION@@@Z 00565900 f   d3d8d:d3dbase.obj
 0003:000023b0       ?SetupCopyRectRopState@D3D@@YGPCKPCKW4_D3DCOPYRECTCOLORFORMAT@@PBU_D3DCOPYRECTROPSTATE@@@Z 005659b0 f   d3d8d:d3dbase.obj
 0003:00002520       _D3DDevice_GetCopyRectsState@8 00565b20 f   d3d8d:d3dbase.obj
 0003:00002580       _D3DDevice_GetTransform@8  00565b80 f   d3d8d:d3dbase.obj
 0003:000025f0       _D3DDevice_GetViewport@4   00565bf0 f   d3d8d:d3dbase.obj
 0003:00002660       _D3DDevice_SetMaterial@4   00565c60 f   d3d8d:d3dbase.obj
 0003:000026d0       _D3DDevice_GetMaterial@4   00565cd0 f   d3d8d:d3dbase.obj
 0003:00002720       _D3DDevice_SetBackMaterial@4 00565d20 f   d3d8d:d3dbase.obj
 0003:00002790       _D3DDevice_GetBackMaterial@4 00565d90 f   d3d8d:d3dbase.obj
 0003:000027e0       ?CheckLightParameters@D3D@@YGXPBU_D3DLIGHT8@@@Z 00565de0 f   d3d8d:d3dbase.obj
 0003:000029e0       _D3DDevice_GetLight@8      00565fe0 f   d3d8d:d3dbase.obj
 0003:00002a80       _D3DDevice_GetLightEnable@8 00566080 f   d3d8d:d3dbase.obj
 0003:00002b20       _D3DDevice_GetRenderState@8 00566120 f   d3d8d:d3dbase.obj
 0003:00002b90       @D3DDevice_SwitchTexture_Fast@12 00566190 f   d3d8d:d3dbase.obj
 0003:00002be0       _D3DDevice_GetTextureStageState@12 005661e0 f   d3d8d:d3dbase.obj
 0003:00002c40       _D3DDevice_AddRef@0        00566240 f   d3d8d:d3dbase.obj
 0003:00002c60       _D3DDevice_Release@0       00566260 f   d3d8d:d3dbase.obj
 0003:00002cb0       _D3DDevice_KickPushBuffer@0 005662b0 f   d3d8d:d3dbase.obj
 0003:00002cd0       _D3DDevice_GetVisibilityTestResult@12 005662d0 f   d3d8d:d3dbase.obj
 0003:00002de0       _D3DDevice_SetVerticalBlankCallback@4 005663e0 f   d3d8d:d3dbase.obj
 0003:00002e10       _D3DDevice_SetSwapCallback@4 00566410 f   d3d8d:d3dbase.obj
 0003:00002e40       _D3DDevice_GetProjectionViewportMatrix@4 00566440 f   d3d8d:d3dbase.obj
 0003:00002e80       _D3DDevice_GetModelView@4  00566480 f   d3d8d:d3dbase.obj
 0003:00002ed0       _D3DDevice_GetVertexBlendModelView@12 005664d0 f   d3d8d:d3dbase.obj
 0003:00002f70       ?AddRef@D3DResource@@QAGKXZ 00566570 f i d3d8d:d3dbase.obj
 0003:00002f80       _D3DDevice_GetTile@8       00566580 f   d3d8d:d3dbase.obj
 0003:00003020       _D3DDevice_GetScissors@12  00566620 f   d3d8d:d3dbase.obj
 0003:000030a0       _D3DDevice_GetPersistedSurface2@0 005666a0 f   d3d8d:d3dbase.obj
 0003:000030b0       _D3DDevice_SetFlickerFilter@4 005666b0 f   d3d8d:d3dbase.obj
 0003:00003130       _D3DDevice_SetSoftDisplayFilter@4 00566730 f   d3d8d:d3dbase.obj
 0003:000031b0       _D3DTest_ChecksumCallback  005667b0 f   d3d8d:d3dbase.obj
 0003:00003230       _D3DDevice_InsertFence@0   00566830 f   d3d8d:d3dbase.obj
 0003:00003250       _D3DDevice_GetScreenSpaceOffset@8 00566850 f   d3d8d:d3dbase.obj
 0003:000032a0       _D3DDevice_GetOverscanColor@0 005668a0 f   d3d8d:d3dbase.obj
 0003:000032b0       _D3DDevice_GetStipple@4    005668b0 f   d3d8d:d3dbase.obj
 0003:00003300       ?Lock@D3DPalette@@QAGJPAPAKK@Z 00566900 f i d3d8d:d3dbase.obj
 0003:00003330       ?Unlock@D3DPalette@@QAGJXZ 00566930 f i d3d8d:d3dbase.obj
 0003:00003340       ?GetSize@D3DPalette@@QAG?AW4_D3DPALETTESIZE@@XZ 00566940 f i d3d8d:d3dbase.obj
 0003:00003350       ??0TimingMarker@D3D@@QAE@W4_TimingEventType@@@Z 00566950 f i d3d8d:d3dbase.obj
 0003:00003380       ??1TimingMarker@D3D@@QAE@XZ 00566980 f i d3d8d:d3dbase.obj
 0003:000033b0       ?GetTSC@CMiniport@D3D@@SG_KXZ 005669b0 f i d3d8d:d3dbase.obj
 0003:000033c0       ?IsOddField@CMiniport@D3D@@QAEHXZ 005669c0 f i d3d8d:d3dbase.obj
 0003:00003410       ?AssertWriteCombined@D3D@@YGXPAXPAD@Z 00566a10 f i d3d8d:d3dbase.obj
 0003:000035a0       ?IsSwizzledD3DFORMAT@D3D@@YGHW4_D3DFORMAT@@@Z 00566ba0 f i d3d8d:d3dbase.obj
 0003:000035c0       ?MinimumTextureSizeOfD3DFORMAT@D3D@@YGKW4_D3DFORMAT@@@Z 00566bc0 f i d3d8d:d3dbase.obj
 0003:000035e0       ?IsSwizzled@PixelJar@D3D@@YGHPAUD3DPixelContainer@@@Z 00566be0 f i d3d8d:d3dbase.obj
 0003:00003600       ?IsValidRenderTarget@PixelJar@D3D@@YGHPAUD3DPixelContainer@@@Z 00566c00 f i d3d8d:d3dbase.obj
 0003:00003630       ?IsValidDepthBuffer@PixelJar@D3D@@YGHPAUD3DPixelContainer@@@Z 00566c30 f i d3d8d:d3dbase.obj
 0003:00003650       ?GetBitsPerPixel@PixelJar@D3D@@YGKPAUD3DPixelContainer@@@Z 00566c50 f i d3d8d:d3dbase.obj
 0003:00003670       ?IsCompressed@PixelJar@D3D@@YG_NPAUD3DPixelContainer@@@Z 00566c70 f i d3d8d:d3dbase.obj
 0003:00003690       ?GetPitch@PixelJar@D3D@@YGKPAUD3DPixelContainer@@@Z 00566c90 f i d3d8d:d3dbase.obj
 0003:00003720       ?GetSlice@PixelJar@D3D@@YGKPAUD3DPixelContainer@@@Z 00566d20 f i d3d8d:d3dbase.obj
 0003:00003800       ?LightEnableType@D3D@@YGKPBULight@1@@Z 00566e00 f i d3d8d:d3dbase.obj
 0003:00003820       ?StartPush@CDevice@D3D@@QAEPCKXZ 00566e20 f i d3d8d:d3dbase.obj
 0003:00003850       ?StartPush@CDevice@D3D@@QAEPCKK@Z 00566e50 f i d3d8d:d3dbase.obj
 0003:00003860       ?RecordResourceReadPush@CDevice@D3D@@QAEXPAUD3DResource@@@Z 00566e60 f i d3d8d:d3dbase.obj
 0003:000038d0       ?RecordSurfaceWritePush@CDevice@D3D@@QAEXPAUD3DResource@@@Z 00566ed0 f i d3d8d:d3dbase.obj
 0003:00003930       ?GetRenderTargetFactors@D3D@@YGXPAVCDevice@1@PAUD3DSurface@@PAKPAM322@Z 00566f30 f i d3d8d:d3dbase.obj
 0003:00003ba0       ?___D3DCYCLETIMER_GetTime@D3D@@YG_KXZ 005671a0 f i d3d8d:d3dbase.obj
 0003:00003bb0       ??0___D3DCYCLETIMER@D3D@@QAE@W4_D3DPERF_PerformanceCounters@1@@Z 005671b0 f i d3d8d:d3dbase.obj
 0003:00003c00       ??1___D3DCYCLETIMER@D3D@@QAE@XZ 00567200 f i d3d8d:d3dbase.obj
 0003:00003c70       ?COUNT_PERF@D3D@@YGXW4_D3DPERF_PerformanceCounters@1@@Z 00567270 f i d3d8d:d3dbase.obj
 0003:00003cb0       ??0___D3DPERFEVENT@D3D@@QAE@GH@Z 005672b0 f i d3d8d:d3dbase.obj
 0003:00003ce0       ??1___D3DPERFEVENT@D3D@@QAE@XZ 005672e0 f i d3d8d:d3dbase.obj
 0003:00003cf0       _D3DDevice_GetDisplayMode@4 005672f0 f   d3d8d:d3dbase.obj
 0003:00003df0       _D3DDevice_Reset@4         005673f0 f   d3d8d:d3dbase.obj
 0003:00003f00       _D3DDevice_SetRenderTarget@8 00567500 f   d3d8d:d3dbase.obj
 0003:00004760       _D3DDevice_SetRenderTargetFast@12 00567d60 f   d3d8d:d3dbase.obj
 0003:00004e80       _D3DDevice_GetBackBuffer2@4 00568480 f   d3d8d:d3dbase.obj
 0003:00004f10       _D3DDevice_GetRasterStatus@4 00568510 f   d3d8d:d3dbase.obj
 0003:00004fb0       _D3DDevice_SetCopyRectsState@8 005685b0 f   d3d8d:d3dbase.obj
 0003:000052a0       ?GPUCopyVideoRectangle@D3D@@YGXKPAUtagRECT@@PAUtagPOINT@@@Z 005688a0 f i d3d8d:d3dbase.obj
 0003:00005380       _D3DDevice_CopyRects@20    00568980 f   d3d8d:d3dbase.obj
 0003:00005bd0       _D3DDevice_GetRenderTarget2@0 005691d0 f   d3d8d:d3dbase.obj
 0003:00005c00       _D3DDevice_GetDepthStencilSurface2@0 00569200 f   d3d8d:d3dbase.obj
 0003:00005c40       _D3DDevice_SetTransform@8  00569240 f   d3d8d:d3dbase.obj
 0003:00005f80       _D3DDevice_MultiplyTransform@8 00569580 f   d3d8d:d3dbase.obj
 0003:00006030       _D3DDevice_SetViewport@4   00569630 f   d3d8d:d3dbase.obj
 0003:00006330       _D3DDevice_SetLight@8      00569930 f   d3d8d:d3dbase.obj
 0003:000066f0       _D3DDevice_LightEnable@8   00569cf0 f   d3d8d:d3dbase.obj
 0003:00006910       _D3DDevice_GetTexture2@4   00569f10 f   d3d8d:d3dbase.obj
 0003:00006970       _D3DDevice_SetTexture@8    00569f70 f   d3d8d:d3dbase.obj
 0003:00006db0       @D3DDevice_SwitchTexture@12 0056a3b0 f   d3d8d:d3dbase.obj
 0003:00006e90       _D3DDevice_GetPalette2@4   0056a490 f   d3d8d:d3dbase.obj
 0003:00006ef0       _D3DDevice_SetPalette@8    0056a4f0 f   d3d8d:d3dbase.obj
 0003:00007180       _D3DDevice_SetIndices@8    0056a780 f   d3d8d:d3dbase.obj
 0003:00007330       _D3DDevice_GetIndices2@4   0056a930 f   d3d8d:d3dbase.obj
 0003:00007390       _D3DDevice_IsBusy@0        0056a990 f   d3d8d:d3dbase.obj
 0003:000073e0       _D3DDevice_BlockUntilIdle@0 0056a9e0 f   d3d8d:d3dbase.obj
 0003:00007410       _D3DDevice_BlockOnFence@4  0056aa10 f   d3d8d:d3dbase.obj
 0003:00007460       _D3DDevice_BeginVisibilityTest@0 0056aa60 f   d3d8d:d3dbase.obj
 0003:000074c0       ?GetVisibilityAddress@D3D@@YGPAKK@Z 0056aac0 f   d3d8d:d3dbase.obj
 0003:00007640       _D3DDevice_EndVisibilityTest@4 0056ac40 f   d3d8d:d3dbase.obj
 0003:00007700       _D3DDevice_GetDisplayFieldStatus@4 0056ad00 f   d3d8d:d3dbase.obj
 0003:00007760       _D3DDevice_SetTimerCallback@16 0056ad60 f   d3d8d:d3dbase.obj
 0003:00007810       _D3DDevice_BlockUntilVerticalBlank@0 0056ae10 f   d3d8d:d3dbase.obj
 0003:00007950       _D3DDevice_FlushVertexCache@0 0056af50 f   d3d8d:d3dbase.obj
 0003:000079b0       _D3DDevice_SetModelView@12 0056afb0 f   d3d8d:d3dbase.obj
 0003:00007b20       _D3DDevice_SetVertexBlendModelView@16 0056b120 f   d3d8d:d3dbase.obj
 0003:00007d00       _D3DDevice_Nop@0           0056b300 f   d3d8d:d3dbase.obj
 0003:00007d60       ?SetTileNoWait@D3D@@YGXKPBU_D3DTILE@@@Z 0056b360 f   d3d8d:d3dbase.obj
 0003:000080f0       _D3DDevice_SetTile@8       0056b6f0 f   d3d8d:d3dbase.obj
 0003:00008110       _D3DDevice_SetTileCompressionTagBits@16 0056b710 f   d3d8d:d3dbase.obj
 0003:00008250       _D3DDevice_GetTileCompressionTagBits@16 0056b850 f   d3d8d:d3dbase.obj
 0003:00008380       _D3DDevice_GetTileCompressionTags@8 0056b980 f   d3d8d:d3dbase.obj
 0003:00008550       _D3DDevice_SetScissors@12  0056bb50 f   d3d8d:d3dbase.obj
 0003:00008b10       ?CreateSurfaceWithContiguousHeaderInternal@D3D@@YGPAUD3DSurface@@KKW4_D3DFORMAT@@@Z 0056c110 f   d3d8d:d3dbase.obj
 0003:00008be0       _D3DDevice_PersistDisplay@0 0056c1e0 f   d3d8d:d3dbase.obj
 0003:00008d80       _D3DTest_GetScreenChecksum@12 0056c380 f   d3d8d:d3dbase.obj
 0003:00008de0       _D3DDevice_SetScreenSpaceOffset@8 0056c3e0 f   d3d8d:d3dbase.obj
 0003:00008e70       _D3DDevice_SetOverscanColor@4 0056c470 f   d3d8d:d3dbase.obj
 0003:00008fe0       _D3DDevice_SetStipple@4    0056c5e0 f   d3d8d:d3dbase.obj
 0003:00009090       ?D3DInternals@D3D@@YAJKPAX@Z 0056c690 f   d3d8d:d3dbase.obj
 0003:00009730       _D3DDevice_GetBackBufferScale@8 0056cd30 f   d3d8d:present.obj
 0003:00009770       ?SetDebugMarker@D3DDevice@@SGKK@Z 0056cd70 f i d3d8d:present.obj
 0003:00009780       ?Release@D3DResource@@QAGKXZ 0056cd80 f i d3d8d:present.obj
 0003:0000a460       _D3DDevice_Swap@4          0056da60 f   d3d8d:present.obj
 0003:0000a670       _D3DDevice_SetBackBufferScale@8 0056dc70 f   d3d8d:present.obj
 0003:0000a940       ?GPUScale@D3D@@YGXPAUD3DSurface@@0M@Z 0056df40 f   d3d8d:present.obj
 0003:0000aa20       _D3DTexture_GetLevelDesc@12 0056e020 f   d3d8d:texture.obj
 0003:0000aa60       _D3DCubeTexture_GetLevelDesc@12 0056e060 f   d3d8d:texture.obj
 0003:0000aaa0       _D3DCubeTexture_LockRect@24 0056e0a0 f   d3d8d:texture.obj
 0003:0000aaf0       _D3DVolumeTexture_GetLevelDesc@12 0056e0f0 f   d3d8d:texture.obj
 0003:0000ab30       _D3DVolumeTexture_LockBox@20 0056e130 f   d3d8d:texture.obj
 0003:0000ace0       ?GetMipmapLevelCount@PixelJar@D3D@@YGKPAUD3DPixelContainer@@@Z 0056e2e0 f i d3d8d:texture.obj
 0003:0000ad00       _D3DDevice_CreateTexture2@28 0056e300 f   d3d8d:texture.obj
 0003:0000aec0       _D3DBaseTexture_GetLevelCount@4 0056e4c0 f   d3d8d:texture.obj
 0003:0000af00       _D3DTexture_GetSurfaceLevel2@8 0056e500 f   d3d8d:texture.obj
 0003:0000afa0       _D3DTexture_LockRect@20    0056e5a0 f   d3d8d:texture.obj
 0003:0000b000       _D3DCubeTexture_GetCubeMapSurface2@12 0056e600 f   d3d8d:texture.obj
 0003:0000b0a0       _D3DVolumeTexture_GetVolumeLevel2@8 0056e6a0 f   d3d8d:texture.obj
 0003:0000b130       _D3DDevice_CreateIndexBuffer2@4 0056e730 f   d3d8d:buffer.obj
 0003:0000b180       _D3DIndexBuffer_GetDesc@8  0056e780 f   d3d8d:buffer.obj
 0003:0000b1c0       _D3DPalette_GetSize@4      0056e7c0 f   d3d8d:buffer.obj
 0003:0000b200       ?GetType@D3DResource@@QAG?AW4_D3DRESOURCETYPE@@XZ 0056e800 f i d3d8d:buffer.obj
 0003:0000b380       ?GetDataFromResource@D3D@@YGPAEPAUD3DResource@@@Z 0056e980 f i d3d8d:buffer.obj
 0003:0000b3c0       _D3DDevice_CreateVertexBuffer2@4 0056e9c0 f   d3d8d:buffer.obj
 0003:0000b4d0       _D3DVertexBuffer_Lock2@8   0056ead0 f   d3d8d:buffer.obj
 0003:0000b5a0       _D3DVertexBuffer_GetDesc@8 0056eba0 f   d3d8d:buffer.obj
 0003:0000b5f0       _D3DDevice_CreatePalette2@4 0056ebf0 f   d3d8d:buffer.obj
 0003:0000b730       _D3DPalette_Lock2@8        0056ed30 f   d3d8d:buffer.obj
 0003:0000b7e0       _D3DDevice_Clear@24        0056ede0 f   d3d8d:clear.obj
 0003:0000bf70       ?VerifyHeaderFileEncodings@D3D@@YGXXZ 0056f570 f   d3d8d:state.obj
 0003:0000bfd0       _D3DDevice_SetRenderState_PSTextureModes@4 0056f5d0 f   d3d8d:state.obj
 0003:0000c020       @D3DDevice_SetRenderState_Simple_Fast@8 0056f620 f   d3d8d:state.obj
 0003:0000c060       @D3DDevice_SetRenderState_Simple@8 0056f660 f   d3d8d:state.obj
 0003:0000c0a0       _D3DDevice_GetViewportOffsetAndScale@8 0056f6a0 f   d3d8d:state.obj
 0003:0000c220       ?UpdateProjectionViewportTransform@D3D@@YGXXZ 0056f820 f   d3d8d:state.obj
 0003:0000c3b0       _D3DDevice_GetDepthClipPlanes@12 0056f9b0 f   d3d8d:state.obj
 0003:0000c440       ?SetRenderState@D3DDevice@@SGJW4_D3DRENDERSTATETYPE@@K@Z 0056fa40 f i d3d8d:state.obj
 0003:0000c560       _D3DDevice_SetRenderState_EdgeAntiAlias@4 0056fb60 f   d3d8d:state.obj
 0003:0000c5d0       _D3DDevice_SetRenderState_ShadowFunc@4 0056fbd0 f   d3d8d:state.obj
 0003:0000c650       _D3DDevice_SetRenderState_FogColor@4 0056fc50 f   d3d8d:state.obj
 0003:0000c6e0       _D3DDevice_SetRenderState_CullMode@4 0056fce0 f   d3d8d:state.obj
 0003:0000c7a0       _D3DDevice_SetRenderState_FrontFace@4 0056fda0 f   d3d8d:state.obj
 0003:0000c820       _D3DDevice_SetRenderState_NormalizeNormals@4 0056fe20 f   d3d8d:state.obj
 0003:0000c8a0       _D3DDevice_SetRenderState_TextureFactor@4 0056fea0 f   d3d8d:state.obj
 0003:0000c940       _D3DDevice_SetRenderState_LineWidth@4 0056ff40 f   d3d8d:state.obj
 0003:0000ca00       _D3DDevice_SetRenderState_Dxt1NoiseEnable@4 00570000 f   d3d8d:state.obj
 0003:0000cb00       _D3DDevice_SetRenderState_ZBias@4 00570100 f   d3d8d:state.obj
 0003:0000cba0       _D3DDevice_SetRenderState_LogicOp@4 005701a0 f   d3d8d:state.obj
 0003:0000cc30       _D3DDevice_SetRenderState_FillMode@4 00570230 f   d3d8d:state.obj
 0003:0000ccc0       _D3DDevice_SetRenderState_BackFillMode@4 005702c0 f   d3d8d:state.obj
 0003:0000cd00       _D3DDevice_SetRenderState_TwoSidedLighting@4 00570300 f   d3d8d:state.obj
 0003:0000cd90       _D3DDevice_SetRenderState_VertexBlend@4 00570390 f   d3d8d:state.obj
 0003:0000ce20       _D3DDevice_SetRenderState_ParameterCheck@8 00570420 f   d3d8d:state.obj
 0003:0000d890       _D3DDevice_SetRenderStateNotInline@8 00570e90 f   d3d8d:state.obj
 0003:0000d9d0       _D3DDevice_SetTextureState_TexCoordIndex@8 00570fd0 f   d3d8d:state.obj
 0003:0000dba0       _D3DDevice_SetTextureState_BumpEnv@12 005711a0 f   d3d8d:state.obj
 0003:0000dc80       _D3DDevice_SetTextureState_BorderColor@8 00571280 f   d3d8d:state.obj
 0003:0000dd10       _D3DDevice_SetTextureState_ColorKeyColor@8 00571310 f   d3d8d:state.obj
 0003:0000dd90       _D3DDevice_SetTextureState_ParameterCheck@12 00571390 f   d3d8d:state.obj
 0003:0000e120       _D3DDevice_SetTextureStageStateNotInline@12 00571720 f   d3d8d:state.obj
 0003:0000e2b0       ?CommonSetTextureBumpEnv@D3D@@YIPCKPAVCDevice@1@PCK@Z 005718b0 f   d3d8d:state.obj
 0003:0000e360       ?CommonSetViewport@D3D@@YIPCKPAVCDevice@1@PCK@Z 00571960 f   d3d8d:state.obj
 0003:0000e5f0       ?CommonSetControl0@D3D@@YIPCKPAVCDevice@1@PCK@Z 00571bf0 f   d3d8d:state.obj
 0003:0000e670       ?CommonSetAntiAliasingControl@D3D@@YIXPAVCDevice@1@@Z 00571c70 f   d3d8d:state.obj
 0003:0000e6f0       ?CommonSetOccludeZStencilEn@D3D@@YIPCKPAVCDevice@1@PCK@Z 00571cf0 f   d3d8d:state.obj
 0003:0000e750       ?CommonSetDebugRegisters@D3D@@YIXXZ 00571d50 f   d3d8d:state.obj
 0003:0000e880       ?CommonSetMultiSampleModeAndScale@D3D@@YIXPAVCDevice@1@PBU_D3DVIEWPORT8@@@Z 00571e80 f   d3d8d:state.obj
 0003:0000ecc0       _D3DDevice_SetDepthClipPlanes@12 005722c0 f   d3d8d:state.obj
 0003:0000ede0       _D3DDevice_SetRenderState_ZEnable@4 005723e0 f   d3d8d:state.obj
 0003:0000eef0       _D3DDevice_SetRenderState_StencilEnable@4 005724f0 f   d3d8d:state.obj
 0003:0000efe0       _D3DDevice_SetRenderState_StencilFail@4 005725e0 f   d3d8d:state.obj
 0003:0000f0b0       _D3DDevice_SetRenderState_YuvEnable@4 005726b0 f   d3d8d:state.obj
 0003:0000f120       _D3DDevice_SetRenderState_OcclusionCullEnable@4 00572720 f   d3d8d:state.obj
 0003:0000f1d0       _D3DDevice_SetRenderState_StencilCullEnable@4 005727d0 f   d3d8d:state.obj
 0003:0000f280       _D3DDevice_SetRenderState_RopZCmpAlwaysRead@4 00572880 f   d3d8d:state.obj
 0003:0000f2a0       _D3DDevice_SetRenderState_RopZRead@4 005728a0 f   d3d8d:state.obj
 0003:0000f2c0       _D3DDevice_SetRenderState_DoNotCullUncompressed@4 005728c0 f   d3d8d:state.obj
 0003:0000f2e0       _D3DDevice_SetRenderState_MultiSampleMode@4 005728e0 f   d3d8d:state.obj
 0003:0000f330       _D3DDevice_SetRenderState_MultiSampleRenderTargetMode@4 00572930 f   d3d8d:state.obj
 0003:0000f380       _D3DDevice_SetRenderState_MultiSampleAntiAlias@4 00572980 f   d3d8d:state.obj
 0003:0000f400       _D3DDevice_SetRenderState_MultiSampleMask@4 00572a00 f   d3d8d:state.obj
 0003:0000f430       _D3DDevice_SetRenderState_SampleAlpha@4 00572a30 f   d3d8d:state.obj
 0003:0000f460       ?FastCopyToWC@D3D@@YGXPCKPAKK@Z 00572a60 f   d3d8d:drawprim.obj
 0003:0000f520       ?MMXMemCpyDwordBlock@D3D@@YGXPBX0K@Z 00572b20 f i d3d8d:drawprim.obj
 0003:0000f700       ?StartBracket@CDevice@D3D@@QAEXXZ 00572d00 f i d3d8d:drawprim.obj
 0003:0000f740       ?EndBracket@CDevice@D3D@@QAEXXZ 00572d40 f i d3d8d:drawprim.obj
 0003:0000f7e0       ?COUNT_ADD_PERF@D3D@@YGXW4_D3DPERF_PerformanceCounters@1@K@Z 00572de0 f i d3d8d:drawprim.obj
 0003:0000f830       _D3DDevice_DrawVerticesUP@16 00572e30 f   d3d8d:drawprim.obj
 0003:0000fcc0       _D3DDevice_DrawIndexedVerticesUP@20 005732c0 f   d3d8d:drawprim.obj
 0003:00010120       _D3DDevice_DrawVertices@12 00573720 f   d3d8d:drawprim.obj
 0003:000103f0       _D3DDevice_DrawIndexedVertices@12 005739f0 f   d3d8d:drawprim.obj
 0003:000109b0       _D3DDevice_PrimeVertexCache@8 00573fb0 f   d3d8d:drawprim.obj
 0003:00010b10       _D3DDevice_SetVertexData2f@12 00574110 f   d3d8d:drawprim.obj
 0003:00010ba0       _D3DDevice_SetVertexData4f@20 005741a0 f   d3d8d:drawprim.obj
 0003:00010cb0       _D3DDevice_SetVertexData2s@12 005742b0 f   d3d8d:drawprim.obj
 0003:00010d50       _D3DDevice_SetVertexData4s@20 00574350 f   d3d8d:drawprim.obj
 0003:00010e00       _D3DDevice_SetVertexData4ub@20 00574400 f   d3d8d:drawprim.obj
 0003:00010eb0       _D3DDevice_SetVertexDataColor@8 005744b0 f   d3d8d:drawprim.obj
 0003:00010f60       _D3DDevice_Begin@4         00574560 f   d3d8d:drawprim.obj
 0003:00011090       _D3DDevice_End@0           00574690 f   d3d8d:drawprim.obj
 0003:000111e0       ?InitializeVertexShaderFromFvf@D3D@@YGXPAUVertexShader@1@K@Z 005747e0 f   d3d8d:vshader.obj
 0003:000113c0       ?ValidateFVF@D3D@@YGXK@Z   005749c0 f   d3d8d:vshader.obj
 0003:00011470       ?ShadowVertexShaderState@D3D@@YGXPAUVertexShader@1@K@Z 00574a70 f   d3d8d:vshader.obj
 0003:000116d0       ?ParseProgram@D3D@@YGPCKPCKPBKK@Z 00574cd0 f   d3d8d:vshader.obj
 0003:00011760       _D3DDevice_GetShaderConstantMode@4 00574d60 f   d3d8d:vshader.obj
 0003:000117c0       ?ParseDeclarationStream@D3D@@YGXPAUVertexShader@1@PBKH@Z 00574dc0 f   d3d8d:vshader.obj
 0003:00011b20       ?ParseDeclarationConstants@D3D@@YGKPBKPCK@Z 00575120 f   d3d8d:vshader.obj
 0003:00011d00       _D3DDevice_CreateVertexShader@16 00575300 f   d3d8d:vshader.obj
 0003:00011fd0       _D3DDevice_GetVertexShader@4 005755d0 f   d3d8d:vshader.obj
 0003:00012010       ?SetVertexShaderConstant_ParameterCheck@D3D@@YIXHPBXK@Z 00575610 f   d3d8d:vshader.obj
 0003:00012110       @D3DDevice_SetVertexShaderConstant1@8 00575710 f   d3d8d:vshader.obj
 0003:000121a0       @D3DDevice_SetVertexShaderConstant1Fast@8 005757a0 f   d3d8d:vshader.obj
 0003:00012210       @D3DDevice_SetVertexShaderConstant4@8 00575810 f   d3d8d:vshader.obj
 0003:000122f0       @D3DDevice_SetVertexShaderConstantNotInlineFast@12 005758f0 f   d3d8d:vshader.obj
 0003:00012410       @D3DDevice_SetVertexShaderConstantNotInline@12 00575a10 f   d3d8d:vshader.obj
 0003:00012470       _D3DDevice_GetVertexShaderConstant@12 00575a70 f   d3d8d:vshader.obj
 0003:00012580       _D3DDevice_GetVertexShaderInput@12 00575b80 f   d3d8d:vshader.obj
 0003:00012610       ?CheckVertexAttributeFormatStruct@D3D@@YGXPAU_D3DVERTEXATTRIBUTEFORMAT@@@Z 00575c10 f   d3d8d:vshader.obj
 0003:00012830       _D3DDevice_SetStreamSource@12 00575e30 f   d3d8d:vshader.obj
 0003:00012a90       _D3DDevice_GetStreamSource2@8 00576090 f   d3d8d:vshader.obj
 0003:00012b10       _D3DDevice_RunVertexStateShader@8 00576110 f   d3d8d:vshader.obj
 0003:00012c00       _D3DDevice_LoadVertexShader@8 00576200 f   d3d8d:vshader.obj
 0003:00012d30       _D3DDevice_LoadVertexShaderProgram@8 00576330 f   d3d8d:vshader.obj
 0003:00012e70       _D3DDevice_SelectVertexShaderDirect@8 00576470 f   d3d8d:vshader.obj
 0003:00012ed0       _D3DDevice_SelectVertexShader@8 005764d0 f   d3d8d:vshader.obj
 0003:000130a0       _D3DDevice_GetVertexShaderSize@8 005766a0 f   d3d8d:vshader.obj
 0003:00013100       _D3DDevice_GetVertexShaderType@8 00576700 f   d3d8d:vshader.obj
 0003:00013180       _D3DDevice_SetShaderConstantMode@4 00576780 f   d3d8d:vshader.obj
 0003:00013340       ?RestoreVertexShaders@D3D@@YGXPBKK@Z 00576940 f   d3d8d:vshader.obj
 0003:000133e0       _D3DDevice_DeleteVertexShader@4 005769e0 f   d3d8d:vshader.obj
 0003:00013480       ?CommonSetPassthroughProgram@D3D@@YIXPAVCDevice@1@@Z 00576a80 f   d3d8d:vshader.obj
 0003:000135f0       _D3DDevice_SetVertexShader@4 00576bf0 f   d3d8d:vshader.obj
 0003:000138d0       _D3DDevice_GetVertexShaderDeclaration@12 00576ed0 f   d3d8d:vshader.obj
 0003:00013df0       _D3DDevice_GetVertexShaderFunction@12 005773f0 f   d3d8d:vshader.obj
 0003:00013f70       _D3DDevice_SetVertexShaderInputDirect@12 00577570 f   d3d8d:vshader.obj
 0003:00013fe0       _D3DDevice_SetVertexShaderInput@12 005775e0 f   d3d8d:vshader.obj
 0003:00014530       ?DBGPRINT@D3D@@YAXPADZZ    00577b30 f   d3d8d:debug.obj
 0003:00014580       ?WARNING@D3D@@YAXPADZZ     00577b80 f   d3d8d:debug.obj
 0003:000145d0       ?DXGRIP@D3D@@YAXPADZZ      00577bd0 f   d3d8d:debug.obj
 0003:00014620       ?ASSERTMSG@D3D@@YAXHPADZZ  00577c20 f   d3d8d:debug.obj
 0003:00014680       ??0PERFFIXEDPOINT@D3D@@QAE@_KK@Z 00577c80 f i d3d8d:stats.obj
 0003:000146c0       _D3DPERF_GetPushBufferBytesWritten@0 00577cc0 f   d3d8d:stats.obj
 0003:000147a0       _D3DPERF_GetPushBufferInfo@4 00577da0 f   d3d8d:stats.obj
 0003:00014800       _D3DPERF_GetStatistics@0   00577e00 f   d3d8d:stats.obj
 0003:00014810       _D3DPERF_GetNames@0        00577e10 f   d3d8d:stats.obj
 0003:00014850       ?SpewPerfEvent@D3D@@YGXPAU_D3DPERFEvent@1@PA_K1@Z 00577e50 f   d3d8d:stats.obj
 0003:00014ad0       _D3DPERF_DumpPerfEvents@0  005780d0 f   d3d8d:stats.obj
 0003:00014c10       _D3DPERF_DumpPerfProfCounts@0 00578210 f   d3d8d:stats.obj
 0003:00014c90       _PerfGetPushBufferDistance@8 00578290 f   d3d8d:stats.obj
 0003:00014cf0       _D3DPERF_GetRegisterBase@0 005782f0 f   d3d8d:stats.obj
 0003:00014d00       _D3DPERF_InitializePushBufferAnalyzer@4 00578300 f   d3d8d:stats.obj
 0003:00014d40       _D3DPERF_StartCountingPerfEvent@4 00578340 f i d3d8d:stats.obj
 0003:00014e00       ?MilliSecsFromCycles@D3D@@YGK_K@Z 00578400 f i d3d8d:stats.obj
 0003:00014e50       _D3DPERF_DumpCounterCycleInfo@12 00578450 f   d3d8d:stats.obj
 0003:00014eb0       _D3DPERF_DumpFrameRateInfo@0 005784b0 f   d3d8d:stats.obj
 0003:00015380       ?PerfEventCallbackStart@D3D@@YAXK@Z 00578980 f   d3d8d:stats.obj
 0003:000153a0       ?PerfEventCallbackTime@D3D@@YAXK@Z 005789a0 f   d3d8d:stats.obj
 0003:000153d0       _D3DPERF_PerfEventEnd@8    005789d0 f   d3d8d:stats.obj
 0003:00015450       _D3DPERF_PerfEventStart@8  00578a50 f   d3d8d:stats.obj
 0003:000155b0       _D3DPERF_Dump@0            00578bb0 f   d3d8d:stats.obj
 0003:00015790       _D3DPERF_SetState@8        00578d90 f   d3d8d:stats.obj
 0003:00015840       _D3DPERF_StartPerfProfile@0 00578e40 f   d3d8d:stats.obj
 0003:000158f0       _D3DPERF_StopPerfProfile@0 00578ef0 f   d3d8d:stats.obj
 0003:00015930       _D3DPERF_Reset@0           00578f30 f   d3d8d:stats.obj
 0003:00015b40       _D3DPERF_HandlePresent@0   00579140 f   d3d8d:stats.obj
 0003:00015c2e       ?GetPresentFlagsFromAvInfo@CMiniport@D3D@@SGKK@Z 0057922e f   d3d8d:mpmode.obj
 0003:00015c81       ?GetDisplayCapabilities@CMiniport@D3D@@SGKXZ 00579281 f   d3d8d:mpmode.obj
 0003:00015ca7       ?GetTableForCurrentAvInfo@D3D@@YGPBUDISPLAYMODE@1@XZ 005792a7 f   d3d8d:mpmode.obj
 0003:00015d9d       ?SetVideoMode@CMiniport@D3D@@QAEJKKKKW4_D3DFORMAT@@KK@Z 0057939d f   d3d8d:mpmode.obj
 0003:000160d0       ?PresentationParametersParameterCheck@D3D@@YGJPAU_D3DPRESENT_PARAMETERS_@@@Z 005796d0 f   d3d8d:dxgcreate.obj
 0003:00016240       ?Clear@D3DDevice@@SGJKPBU_D3DRECT@@KKMK@Z 00579840 f i d3d8d:dxgcreate.obj
 0003:00016270       ?SetTransform@D3DDevice@@SGJW4_D3DTRANSFORMSTATETYPE@@PBU_D3DMATRIX@@@Z 00579870 f i d3d8d:dxgcreate.obj
 0003:00016290       ?SetShaderConstantMode@D3DDevice@@SGJK@Z 00579890 f i d3d8d:dxgcreate.obj
 0003:000162d0       ?DisableInterrupts@CMiniport@D3D@@QAEXPAX@Z 005798d0 f i d3d8d:dxgcreate.obj
 0003:00016500       ?HwGet@CDevice@D3D@@QAEPCKXZ 00579b00 f i d3d8d:dxgcreate.obj
 0003:000165e0       ?InitializeKelvin@D3D@@YGXXZ 00579be0 f   d3d8d:dxgcreate.obj
 0003:00016770       ?InitializeHardware@D3D@@YGXXZ 00579d70 f   d3d8d:dxgcreate.obj
 0003:000168f0       ?InitializeD3dState@D3D@@YGXXZ 00579ef0 f   d3d8d:dxgcreate.obj
 0003:000169f0       ?FreeFrameBuffers@CDevice@D3D@@QAEXXZ 00579ff0 f   d3d8d:dxgcreate.obj
 0003:00016cb0       ?InitializeFrameBuffers@CDevice@D3D@@QAEJPAU_D3DPRESENT_PARAMETERS_@@@Z 0057a2b0 f   d3d8d:dxgcreate.obj
 0003:00017700       ?Init@CDevice@D3D@@QAEJPAU_D3DPRESENT_PARAMETERS_@@@Z 0057ad00 f   d3d8d:dxgcreate.obj
 0003:00017eb0       ?UnInit@CDevice@D3D@@QAEXXZ 0057b4b0 f   d3d8d:dxgcreate.obj
 0003:00018460       ?MemAlloc@D3D@@YGPAXK@Z    0057ba60 f   d3d8d:memory.obj
 0003:000184a0       ?MemAllocNoZero@D3D@@YGPAXK@Z 0057baa0 f   d3d8d:memory.obj
 0003:000184e0       ?MemFree@D3D@@YGXPAX@Z     0057bae0 f   d3d8d:memory.obj
 0003:00018580       _D3D_AllocNoncontiguousMemory@4 0057bb80 f   d3d8d:memory.obj
 0003:000185c0       _D3D_FreeNoncontiguousMemory@4 0057bbc0 f   d3d8d:memory.obj
 0003:000185d0       ?DevkitMemAlloc@D3D@@YGPAXKK@Z 0057bbd0 f   d3d8d:memory.obj
 0003:00018600       ?DevkitMemFree@D3D@@YGKPAXK@Z 0057bc00 f   d3d8d:memory.obj
 0003:00018800       _D3D_AllocContiguousMemory@8 0057be00 f   d3d8d:memory.obj
 0003:00018980       _D3D_FreeContiguousMemory@4 0057bf80 f   d3d8d:memory.obj
 0003:000189f0       ?DbgRecordPushStart@D3D@@YGXK@Z 0057bff0 f   d3d8d:pusher.obj
 0003:00018a60       ?BusyLoop@D3D@@YGXXZ       0057c060 f   d3d8d:pusher.obj
 0003:00018a90       ?ComputeGap@D3D@@YIKPAVCDevice@1@PAUFence@1@PCK@Z 0057c090 f   d3d8d:pusher.obj
 0003:00018ad0       _D3DDevice_BeginStateParameterCheck@4 0057c0d0 f   d3d8d:pusher.obj
 0003:00018b20       _D3DDevice_EndStateParameterCheck@4 0057c120 f   d3d8d:pusher.obj
 0003:00018b90       _D3DDevice_SetWaitCallback@4 0057c190 f   d3d8d:pusher.obj
 0003:00018bc0       ?DumpMatrixTransposed@D3D@@YGXPCKKPBU_D3DMATRIX@@@Z 0057c1c0 f   d3d8d:pusher.obj
 0003:00018c50       ?PushedRaw@D3D@@YGXPCK@Z   0057c250 f   d3d8d:pusher.obj
 0003:00018cd0       ?Push1@D3D@@YGXPCKW4SubChannel@@KK@Z 0057c2d0 f   d3d8d:pusher.obj
 0003:00018d90       ?Push2@D3D@@YGXPCKW4SubChannel@@KKK@Z 0057c390 f   d3d8d:pusher.obj
 0003:00018e50       ?Push3@D3D@@YGXPCKW4SubChannel@@KKKK@Z 0057c450 f   d3d8d:pusher.obj
 0003:00018f20       ?Push4@D3D@@YGXPCKW4SubChannel@@KKKKK@Z 0057c520 f   d3d8d:pusher.obj
 0003:00018ff0       ?Push1f@D3D@@YGXPCKW4SubChannel@@KM@Z 0057c5f0 f   d3d8d:pusher.obj
 0003:000190b0       ?Push2f@D3D@@YGXPCKW4SubChannel@@KMM@Z 0057c6b0 f   d3d8d:pusher.obj
 0003:00019170       ?Push3f@D3D@@YGXPCKW4SubChannel@@KMMM@Z 0057c770 f   d3d8d:pusher.obj
 0003:00019240       ?Push4f@D3D@@YGXPCKW4SubChannel@@KMMMM@Z 0057c840 f   d3d8d:pusher.obj
 0003:00019310       ?PushCount@D3D@@YGXPCKW4SubChannel@@KK@Z 0057c910 f   d3d8d:pusher.obj
 0003:000193d0       ?PushMatrixTransposed@D3D@@YGXPCKKPBU_D3DMATRIX@@@Z 0057c9d0 f   d3d8d:pusher.obj
 0003:00019490       ?PushInverseModelViewMatrix@D3D@@YGXPCKKPBU_D3DMATRIX@@@Z 0057ca90 f   d3d8d:pusher.obj
 0003:00019550       ?PushMatrix@D3D@@YGXPCKKMMMMMMMMMMMMMMMM@Z 0057cb50 f   d3d8d:pusher.obj
 0003:00019670       _XMETAL_PushedRaw@4        0057cc70 f   d3d8d:pusher.obj
 0003:00019680       _XMETAL_Push1@12           0057cc80 f   d3d8d:pusher.obj
 0003:000196a0       _XMETAL_Push2@16           0057cca0 f   d3d8d:pusher.obj
 0003:000196d0       _XMETAL_Push3@20           0057ccd0 f   d3d8d:pusher.obj
 0003:00019700       _XMETAL_Push4@24           0057cd00 f   d3d8d:pusher.obj
 0003:00019730       _XMETAL_Push1f@12          0057cd30 f   d3d8d:pusher.obj
 0003:00019750       _XMETAL_Push2f@16          0057cd50 f   d3d8d:pusher.obj
 0003:00019780       _XMETAL_Push3f@20          0057cd80 f   d3d8d:pusher.obj
 0003:000197b0       _XMETAL_Push4f@24          0057cdb0 f   d3d8d:pusher.obj
 0003:000197e0       _XMETAL_PushCount@12       0057cde0 f   d3d8d:pusher.obj
 0003:00019a60       ?IsNonSurfaceResourceSetInDevice@D3D@@YGHPAUD3DResource@@@Z 0057d060 f i d3d8d:pusher.obj
 0003:00019ab0       ?InitializePushBuffer@CDevice@D3D@@QAEJXZ 0057d0b0 f   d3d8d:pusher.obj
 0003:00019c90       ?UninitializePushBuffer@CDevice@D3D@@QAEXXZ 0057d290 f   d3d8d:pusher.obj
 0003:00019f00       ?GpuGet@CDevice@D3D@@QAEPCKXZ 0057d500 f   d3d8d:pusher.obj
 0003:0001a060       ?GpuGetOrNewer@D3D@@YGPCKPAVCDevice@1@H@Z 0057d660 f   d3d8d:pusher.obj
 0003:0001a120       ?FlushWCCache@D3D@@YGXXZ   0057d720 f   d3d8d:pusher.obj
 0003:0001a160       _D3DDevice_IsFencePending@4 0057d760 f   d3d8d:pusher.obj
 0003:0001a190       _D3DDevice_GetPushDistance@4 0057d790 f   d3d8d:pusher.obj
 0003:0001a220       ?KickOff@CDevice@D3D@@QAEXXZ 0057d820 f   d3d8d:pusher.obj
 0003:0001a3f0       ?ReentrantKickOffAndWait@CDevice@D3D@@QAEXXZ 0057d9f0 f   d3d8d:pusher.obj
 0003:0001a4a0       ?EndPush@CDevice@D3D@@QAEXPCK@Z 0057daa0 f   d3d8d:pusher.obj
 0003:0001a5e0       ?SetFence@D3D@@YGKK@Z      0057dbe0 f   d3d8d:pusher.obj
 0003:0001a760       ?BlockOnTime@D3D@@YGXKK@Z  0057dd60 f   d3d8d:pusher.obj
 0003:0001ad30       ?MakeRequestedSpace@D3D@@YGPCKKK@Z 0057e330 f   d3d8d:pusher.obj
 0003:0001b030       _D3DDevice_MakeSpace@0     0057e630 f   d3d8d:pusher.obj
 0003:0001b050       _D3DDevice_BeginStateBig@4 0057e650 f   d3d8d:pusher.obj
 0003:0001b150       ?KickOffAndWaitForIdle@D3D@@YGXXZ 0057e750 f   d3d8d:pusher.obj
 0003:0001b190       ?BlockOnResource@D3D@@YGXPAUD3DResource@@@Z 0057e790 f   d3d8d:pusher.obj
 0003:0001b2a0       ?BlockOnNonSurfaceResource@D3D@@YGXPAUD3DResource@@@Z 0057e8a0 f   d3d8d:pusher.obj
 0003:0001b3c0       _D3DDevice_InsertCallback@12 0057e9c0 f   d3d8d:pusher.obj
 0003:0001b4c0       _D3DDevice_BeginPush@4     0057eac0 f   d3d8d:pusher.obj
 0003:0001b680       _D3DDevice_EndPush@4       0057ec80 f   d3d8d:pusher.obj
 0003:0001b7a4       ?DacProgramVideoStart@CMiniport@D3D@@QAEXK@Z 0057eda4 f   d3d8d:mpdac.obj
 0003:0001b862       ?DacProgramGammaRamp@CMiniport@D3D@@QAEXPAU_D3DGAMMARAMP@@@Z 0057ee62 f   d3d8d:mpdac.obj
 0003:0001b8e0       ?InitSurfaceHeader@D3D@@YGXIIW4_D3DFORMAT@@PAUD3DSurface@@II@Z 0057eee0 f   d3d8d:shadersnapshot.obj
 0003:0001b940       ?HandleShaderSnapshotPreSwap@D3D@@YGXXZ 0057ef40 f   d3d8d:shadersnapshot.obj
 0003:0001ba60       _D3DPERF_QueryRepeatFrame@0 0057f060 f   d3d8d:shadersnapshot.obj
 0003:0001baa0       ?WriteCapture@DebugSnapshot@D3D@@QAEXK@Z 0057f0a0 f   d3d8d:shadersnapshot.obj
 0003:0001bae0       ?GetVertexInputsAndOutputs@D3D@@YGXPAUvtxreg@1@PAUvtxio@1@1@Z 0057f0e0 f   d3d8d:shadersnapshot.obj
 0003:0001bd40       ?WriteVTXREG@D3D@@YGXPAUvtxreg@1@0PAKPAE1@Z 0057f340 f   d3d8d:shadersnapshot.obj
 0003:0001be00       ?GetBackBuffer@D3DDevice@@SGJHKPAPAUD3DSurface@@@Z 0057f400 f i d3d8d:shadersnapshot.obj
 0003:0001be20       ?GetRenderTarget@D3DDevice@@SGJPAPAUD3DSurface@@@Z 0057f420 f i d3d8d:shadersnapshot.obj
 0003:0001be40       ?GetDepthStencilSurface@D3DDevice@@SGJPAPAUD3DSurface@@@Z 0057f440 f i d3d8d:shadersnapshot.obj
 0003:0001be70       ?DrawVertices@D3DDevice@@SGJW4_D3DPRIMITIVETYPE@@II@Z 0057f470 f i d3d8d:shadersnapshot.obj
 0003:0001be90       ?DrawIndexedVertices@D3DDevice@@SGJW4_D3DPRIMITIVETYPE@@IPBG@Z 0057f490 f i d3d8d:shadersnapshot.obj
 0003:0001beb0       ?DrawVerticesUP@D3DDevice@@SGJW4_D3DPRIMITIVETYPE@@IPBXI@Z 0057f4b0 f i d3d8d:shadersnapshot.obj
 0003:0001bee0       ?DrawIndexedVerticesUP@D3DDevice@@SGJW4_D3DPRIMITIVETYPE@@IPBX1I@Z 0057f4e0 f i d3d8d:shadersnapshot.obj
 0003:0001bf10       ?LoadVertexShaderProgram@D3DDevice@@SGJPBKK@Z 0057f510 f i d3d8d:shadersnapshot.obj
 0003:0001bf30       ?SetVertexShaderConstant@D3DDevice@@SGJHPBXK@Z 0057f530 f i d3d8d:shadersnapshot.obj
 0003:0001bf80       ?SetPixelShader@D3DDevice@@SGJK@Z 0057f580 f i d3d8d:shadersnapshot.obj
 0003:0001bfa0       ?SetPixelShaderProgram@D3DDevice@@SGJPBU_D3DPixelShaderDef@@@Z 0057f5a0 f i d3d8d:shadersnapshot.obj
 0003:0001bfc0       ?GetPixelShader@D3DDevice@@SGJPAK@Z 0057f5c0 f i d3d8d:shadersnapshot.obj
 0003:0001bfe0       ?BlockUntilIdle@D3DDevice@@SGXXZ 0057f5e0 f i d3d8d:shadersnapshot.obj
 0003:0001bff0       ?SetScissors@D3DDevice@@SGJKHPBU_D3DRECT@@@Z 0057f5f0 f i d3d8d:shadersnapshot.obj
 0003:0001c010       ?GetScissors@D3DDevice@@SGJPAKPAHPAU_D3DRECT@@@Z 0057f610 f i d3d8d:shadersnapshot.obj
 0003:0001c030       ?HandleShaderSnapshot_Clear@D3D@@YGXKPBU_D3DRECT@@KKMK@Z 0057f630 f   d3d8d:shadersnapshot.obj
 0003:0001c0e0       ?BeginVSSnapshot@DebugSnapshot@D3D@@QAEXPAK@Z 0057f6e0 f   d3d8d:shadersnapshot.obj
 0003:0001c1d0       ?EndVSSnapshot@DebugSnapshot@D3D@@QAEXXZ 0057f7d0 f   d3d8d:shadersnapshot.obj
 0003:0001c240       ?HandleVisTestResult@D3D@@YGXPAI@Z 0057f840 f   d3d8d:shadersnapshot.obj
 0003:0001c290       _D3DDevice_SetDebugMarker@4 0057f890 f   d3d8d:shadersnapshot.obj
 0003:0001c2c0       _D3DDevice_GetDebugMarker@0 0057f8c0 f   d3d8d:shadersnapshot.obj
 0003:0001c2e0       ?GetDesc@D3DSurface@@QAGJPAU_D3DSURFACE_DESC@@@Z 0057f8e0 f i d3d8d:shadersnapshot.obj
 0003:0001c300       ?LockRect@D3DSurface@@QAGJPAU_D3DLOCKED_RECT@@PBUtagRECT@@K@Z 0057f900 f i d3d8d:shadersnapshot.obj
 0003:0001c330       ?UnlockRect@D3DSurface@@QAGJXZ 0057f930 f i d3d8d:shadersnapshot.obj
 0003:0001c550       ?HandleMovieFrameIdle@D3D@@YGXXZ 0057fb50 f   d3d8d:shadersnapshot.obj
 0003:0001c9b0       ?WriteColor24@DebugSnapshot@D3D@@QAEXK@Z 0057ffb0 f   d3d8d:shadersnapshot.obj
 0003:0001cac0       ?RestoreUserState@DebugSnapshot@D3D@@QAEXH@Z 005800c0 f   d3d8d:shadersnapshot.obj
 0003:0001cbb0       ?SaveUserState@DebugSnapshot@D3D@@QAEXXZ 005801b0 f   d3d8d:shadersnapshot.obj
 0003:0001cc20       ?SetPassThroughState@DebugSnapshot@D3D@@QAEXXZ 00580220 f   d3d8d:shadersnapshot.obj
 0003:0001cd80       ?BeginPSSnapshot@DebugSnapshot@D3D@@QAEXPAK@Z 00580380 f   d3d8d:shadersnapshot.obj
 0003:0001d3f0       ?GetColorAndDepth@DebugSnapshot@D3D@@QAEXPAK0@Z 005809f0 f   d3d8d:shadersnapshot.obj
 0003:0001d530       ?SetColorAndDepth@DebugSnapshot@D3D@@QAEXKK@Z 00580b30 f   d3d8d:shadersnapshot.obj
 0003:0001d660       ?DumpImage@DebugSnapshot@D3D@@QAEXXZ 00580c60 f   d3d8d:shadersnapshot.obj
 0003:0001d800       ?EndPSSnapshot@DebugSnapshot@D3D@@QAEXXZ 00580e00 f   d3d8d:shadersnapshot.obj
 0003:0001d920       ?DrawVertices@DebugSnapshot@D3D@@QAEJXZ 00580f20 f   d3d8d:shadersnapshot.obj
 0003:0001da70       ?ReplaceInstWithMoveTemp@D3D@@YGXHH@Z 00581070 f   d3d8d:shadersnapshot.obj
 0003:0001dad0       ?GetConstant0@D3D@@YGXPAUvtxreg@1@@Z 005810d0 f   d3d8d:shadersnapshot.obj
 0003:0001db00       ?ReplaceInst@D3D@@YGXHPAUvtxreg@1@@Z 00581100 f   d3d8d:shadersnapshot.obj
 0003:0001db50       ?SetConstant@D3D@@YGXHPAUvtxreg@1@@Z 00581150 f   d3d8d:shadersnapshot.obj
 0003:0001dbc0       ?DumpVtxInstruction@DebugSnapshot@D3D@@AAEXHPAUvtxreg@2@00PAKPAE1@Z 005811c0 f   d3d8d:shadersnapshot.obj
 0003:0001e550       ?HandleVSDrawVertices@DebugSnapshot@D3D@@QAEJXZ 00581b50 f   d3d8d:shadersnapshot.obj
 0003:0001ec20       ?HandleXRDrawVertices@DebugSnapshot@D3D@@QAEJXZ 00582220 f   d3d8d:shadersnapshot.obj
 0003:0001ef50       ?GetRegister@DebugSnapshot@D3D@@QAEXKI@Z 00582550 f   d3d8d:shadersnapshot.obj
 0003:0001f4c0       ?HandleShaderSnapshotOpcode@D3D@@YGXXZ 00582ac0 f   d3d8d:shadersnapshot.obj
 0003:000202a0       ?GetStageData@DebugSnapshot@D3D@@QAEXI@Z 005838a0 f   d3d8d:shadersnapshot.obj
 0003:000203f0       ?HandlePSDrawVertices@DebugSnapshot@D3D@@QAEJXZ 005839f0 f   d3d8d:shadersnapshot.obj
 0003:00021470       ?HandleDrawVertices@DebugSnapshot@D3D@@QAEJXZ 00584a70 f   d3d8d:shadersnapshot.obj
 0003:000214d0       ?HandleShaderSnapshot_DrawVerticesUP@D3D@@YGXW4_D3DPRIMITIVETYPE@@IPBXI@Z 00584ad0 f   d3d8d:shadersnapshot.obj
 0003:00021580       ?HandleShaderSnapshot_DrawIndexedVerticesUP@D3D@@YGXW4_D3DPRIMITIVETYPE@@IPBX1I@Z 00584b80 f   d3d8d:shadersnapshot.obj
 0003:00021640       ?HandleShaderSnapshot_DrawVertices@D3D@@YGXW4_D3DPRIMITIVETYPE@@II@Z 00584c40 f   d3d8d:shadersnapshot.obj
 0003:000216e0       ?HandleShaderSnapshot_DrawIndexedVertices@D3D@@YGXW4_D3DPRIMITIVETYPE@@IPBG@Z 00584ce0 f   d3d8d:shadersnapshot.obj
 0003:00021780       ?Init@CPUAllocator@D3D@@QAEHK@Z 00584d80 f   d3d8d:timing.obj
 0003:00021850       ?Reset@CPUAllocator@D3D@@QAEXXZ 00584e50 f   d3d8d:timing.obj
 0003:00021870       ?SpaceFor@CPUAllocator@D3D@@QAEHK@Z 00584e70 f   d3d8d:timing.obj
 0003:000218b0       ?GetSize@CPUAllocator@D3D@@QAEKXZ 00584eb0 f   d3d8d:timing.obj
 0003:000218c0       ?WriteFile@CPUAllocator@D3D@@QAEJPAXPAU_IO_STATUS_BLOCK@@@Z 00584ec0 f   d3d8d:timing.obj
 0003:000218f0       ?FreeMem@CPUAllocator@D3D@@QAEXXZ 00584ef0 f   d3d8d:timing.obj
 0003:00021910       ?Reset@GPUAllocator@D3D@@QAEXXZ 00584f10 f   d3d8d:timing.obj
 0003:00021940       ?GetSize@GPUAllocator@D3D@@QAEKXZ 00584f40 f   d3d8d:timing.obj
 0003:00021960       ?Increment@GPUAllocator@D3D@@QAEHXZ 00584f60 f   d3d8d:timing.obj
 0003:000219d0       ?WriteFile@GPUAllocator@D3D@@QAEJPAXPAU_IO_STATUS_BLOCK@@@Z 00584fd0 f   d3d8d:timing.obj
 0003:00021ae0       ?WriteBuffers@CPUAllocator@D3D@@QAEXPAPAK@Z 005850e0 f   d3d8d:timing.obj
 0003:00021b10       ?WriteBuffers@GPUAllocator@D3D@@QAEXPAPAK@Z 00585110 f   d3d8d:timing.obj
 0003:00021be0       ?WriteTimingFrequency@TimingRecorder@D3D@@AAEXXZ 005851e0 f   d3d8d:timing.obj
 0003:00021cb0       ?MyFillSzFromWz@D3D@@YGXPADHPAGH@Z 005852b0 f   d3d8d:timing.obj
 0003:00021d30       ?MyDmWalkLoadedModules@D3D@@YGJPAPAU_DM_WALK_MODULES@1@PAU_DMN_MODLOAD@@@Z 00585330 f   d3d8d:timing.obj
 0003:00021e80       ?MyDmCloseLoadedModules@D3D@@YGJPAU_DM_WALK_MODULES@1@@Z 00585480 f   d3d8d:timing.obj
 0003:00021ea0       ?GetInitialStackTrace0@D3D@@YIXPAXKPAK@Z 005854a0 f   d3d8d:timing.obj
 0003:00021ec0       ?GetInitialStackTrace1@D3D@@YIKPAXK@Z 005854c0 f   d3d8d:timing.obj
 0003:00021ee0       ?ConcludeStackInitData@TimingRecorder@D3D@@AAEKPAK@Z 005854e0 f   d3d8d:timing.obj
 0003:00022020       ?WriteTimingFile@TimingRecorder@D3D@@QAEJPAKK0K@Z 00585620 f   d3d8d:timing.obj
 0003:00022260       ?WriteVBEvent@D3D@@YGXW4_TimingEventType@@@Z 00585860 f   d3d8d:timing.obj
 0003:00022320       ?InitRealtimeFrame@TimingRecorder@D3D@@QAEJXZ 00585920 f   d3d8d:timing.obj
 0003:000225b0       ?Init@GPUAllocator@D3D@@QAEHXZ 00585bb0 f   d3d8d:timing.obj
 0003:00022700       ?FreeMem@GPUAllocator@D3D@@QAEXXZ 00585d00 f   d3d8d:timing.obj
 0003:000227c0       ?InsertPixelCountReport@TimingRecorder@D3D@@QAEXXZ 00585dc0 f   d3d8d:timing.obj
 0003:00022860       ?InsertPixelCountReportAt@TimingRecorder@D3D@@QAEXK@Z 00585e60 f   d3d8d:timing.obj
 0003:000228c0       ?InsertPixelCountReportWait@TimingRecorder@D3D@@QAEXXZ 00585ec0 f   d3d8d:timing.obj
 0003:00022980       ?FreeBuffers@TimingRecorder@D3D@@AAEXXZ 00585f80 f   d3d8d:timing.obj
 0003:000229d0       ?AllocateBuffers@TimingRecorder@D3D@@AAEHXZ 00585fd0 f   d3d8d:timing.obj
 0003:00022a90       ?ConcludeTimingRecord@TimingRecorder@D3D@@AAEXXZ 00586090 f   d3d8d:timing.obj
 0003:00022ec0       ?Start@TimingRecorder@D3D@@QAEJPBDK@Z 005864c0 f   d3d8d:timing.obj
 0003:00023000       ?End@TimingRecorder@D3D@@QAEJXZ 00586600 f   d3d8d:timing.obj
 0003:000231e0       ?WriteTimingEvent@D3D@@YGXW4_TimingEventType@@@Z 005867e0 f   d3d8d:timing.obj
 0003:000233e0       _D3DPERF_StartTimingCapture@8 005869e0 f   d3d8d:timing.obj
 0003:00023400       _D3DPERF_StopTimingCapture@0 00586a00 f   d3d8d:timing.obj
 0003:00023410       ?AddUserEvent@TimingRecorder@D3D@@QAEXKKPBDPAPAD@Z 00586a10 f   d3d8d:timing.obj
 0003:00023540       _D3DPERF_SetMarker         00586b40 f   d3d8d:timing.obj
 0003:000235a0       _D3DPERF_BeginEvent        00586ba0 f   d3d8d:timing.obj
 0003:00023620       _D3DPERF_EndEvent@0        00586c20 f   d3d8d:timing.obj
 0003:00023640       ?StartRealtime@TimingRecorder@D3D@@QAEJXZ 00586c40 f   d3d8d:timing.obj
 0003:000236e0       ?EndRealtime@TimingRecorder@D3D@@QAEJXZ 00586ce0 f   d3d8d:timing.obj
 0003:00023760       ?InitRealtimeFrame@D3D@@YGJXZ 00586d60 f   d3d8d:timing.obj
 0003:00023770       ?FinishRealtimeFrame@TimingRecorder@D3D@@QAEJXZ 00586d70 f   d3d8d:timing.obj
 0003:00023930       ?StartRealtime@D3D@@YGJXZ  00586f30 f   d3d8d:timing.obj
 0003:00023940       ?EndRealtime@D3D@@YGJXZ    00586f40 f   d3d8d:timing.obj
 0003:00023950       ?FinishRealtimeFrame@D3D@@YGJXZ 00586f50 f   d3d8d:timing.obj
 0003:00023960       ?FloatToLong@D3D@@YGJM@Z   00586f60 f   d3d8d:floatmath.obj
 0003:00023970       ?Cos@D3D@@YGMM@Z           00586f70 f   d3d8d:floatmath.obj
 0003:00023980       ?Exp@D3D@@YGMM@Z           00586f80 f   d3d8d:floatmath.obj
 0003:000239f0       ?Log@D3D@@YGMM@Z           00586ff0 f   d3d8d:floatmath.obj
 0003:00023a30       ?Log2@D3D@@YIKK@Z          00587030 f   d3d8d:pixeljar.obj
 0003:00023a90       ?MapToLinearD3DFORMAT@D3D@@YG?AW4_D3DFORMAT@@W42@@Z 00587090 f   d3d8d:pixeljar.obj
 0003:00023b90       ?IsCompressedD3DFORMAT@D3D@@YG_NW4_D3DFORMAT@@@Z 00587190 f   d3d8d:pixeljar.obj
 0003:00023bd0       ?DecodeLogDepth@D3D@@YGKK@Z 005871d0 f i d3d8d:pixeljar.obj
 0003:00023be0       ?GetLogDepth@PixelJar@D3D@@YGKPAUD3DPixelContainer@@@Z 005871e0 f i d3d8d:pixeljar.obj
 0003:00023c00       ?VideoBitsPerPixelOfD3DFORMAT@D3D@@YGKW4_D3DFORMAT@@@Z 00587200 f   d3d8d:pixeljar.obj
 0003:00023c30       ?CalcTilePitch@D3D@@YGKKW4_D3DFORMAT@@@Z 00587230 f   d3d8d:pixeljar.obj
 0003:00023c80       ?GetSurfaceFormat@PixelJar@D3D@@YGKPAUD3DPixelContainer@@0@Z 00587280 f   d3d8d:pixeljar.obj
 0003:00023e30       ?GetDepthBufferScale@PixelJar@D3D@@YGXPAUD3DPixelContainer@@PAM@Z 00587430 f   d3d8d:pixeljar.obj
 0003:00023f00       ?GetSize@PixelJar@D3D@@YGXPAUD3DPixelContainer@@KPAK1111@Z 00587500 f   d3d8d:pixeljar.obj
 0003:000240c0       ?Get2DSurfaceDesc@PixelJar@D3D@@YGXPAUD3DPixelContainer@@IPAU_D3DSURFACE_DESC@@@Z 005876c0 f   d3d8d:pixeljar.obj
 0003:000241c0       ?Get3DSurfaceDesc@PixelJar@D3D@@YGXPAUD3DPixelContainer@@IPAU_D3DVOLUME_DESC@@@Z 005877c0 f   d3d8d:pixeljar.obj
 0003:00024260       ?FindSurfaceWithinTexture@PixelJar@D3D@@YGXPAUD3DPixelContainer@@W4_D3DCUBEMAP_FACES@@IPAPAEPAK333@Z 00587860 f   d3d8d:pixeljar.obj
 0003:000245a0       ?Lock2DSurface@PixelJar@D3D@@YGXPAUD3DPixelContainer@@W4_D3DCUBEMAP_FACES@@IPAU_D3DLOCKED_RECT@@PBUtagRECT@@K@Z 00587ba0 f   d3d8d:pixeljar.obj
 0003:000246b0       ?Lock3DSurface@PixelJar@D3D@@YGXPAUD3DPixelContainer@@IPAU_D3DLOCKED_BOX@@PBU_D3DBOX@@K@Z 00587cb0 f   d3d8d:pixeljar.obj
 0003:000247b0       ?EncodeFormat@PixelJar@D3D@@YGKKKKKW4_D3DFORMAT@@KHHPAK1@Z 00587db0 f   d3d8d:pixeljar.obj
 0003:00024db0       ?IsFlipPending@CMiniport@D3D@@QAEHXZ 005883b0 f   d3d8d:mpintr.obj
 0003:00024dd0       ?ServiceMediaPortInterrupt@CMiniport@D3D@@AAEKXZ 005883d0 f   d3d8d:mpintr.obj
 0003:00024df0       ?RecognizeGraphicsHardwareError@D3D@@YGHKKKK@Z 005883f0 f   d3d8d:mpintr.obj
 0003:00028cd0       ?EnableInterrupts@CMiniport@D3D@@QAEXPAX@Z 0058c2d0 f i d3d8d:mpintr.obj
 0003:00028cf0       ?GetTime@CMiniport@D3D@@QAEKXZ 0058c2f0 f i d3d8d:mpintr.obj
 0003:00028d00       ?GrDone@CMiniport@D3D@@AAEXXZ 0058c300 f i d3d8d:mpintr.obj
 0003:00028d10       ?Isr@CMiniport@D3D@@SGEPAU_KINTERRUPT@@PAX@Z 0058c310 f   d3d8d:mpintr.obj
 0003:00028e80       ?ServiceQueuedFlips@CMiniport@D3D@@AAEKXZ 0058c480 f   d3d8d:mpintr.obj
 0003:00028fa0       ?VBlank@CMiniport@D3D@@AAEKXZ 0058c5a0 f   d3d8d:mpintr.obj
 0003:00029150       ?ServiceTimerInterrupt@CMiniport@D3D@@AAEKXZ 0058c750 f   d3d8d:mpintr.obj
 0003:000292e0       ?ServiceVideoInterrupt@CMiniport@D3D@@AAEKXZ 0058c8e0 f   d3d8d:mpintr.obj
 0003:00029300       ?ShutdownNotification@CMiniport@D3D@@SGXPAU_HAL_SHUTDOWN_REGISTRATION@@@Z 0058c900 f   d3d8d:mpintr.obj
 0003:00029380       ?PrintRange@D3D@@YGXPAEKK@Z 0058c980 f   d3d8d:mpintr.obj
 0003:000293f0       ?ReportHardwareError@D3D@@YGXKKKK@Z 0058c9f0 f   d3d8d:mpintr.obj
 0003:000297f0       ?SoftwareMethod@CMiniport@D3D@@AAEXK@Z 0058cdf0 f   d3d8d:mpintr.obj
 0003:00029ba0       ?ServiceGrInterrupt@CMiniport@D3D@@AAEKXZ 0058d1a0 f   d3d8d:mpintr.obj
 0003:00029dd0       ?ServiceFifoInterrupt@CMiniport@D3D@@AAEKXZ 0058d3d0 f   d3d8d:mpintr.obj
 0003:0002a0b0       ?Dpc@CMiniport@D3D@@SGXPAU_KDPC@@PAX11@Z 0058d6b0 f   d3d8d:mpintr.obj
 0003:0002a230       ?XformBy4x3@D3D@@YGXPAU_D3DVECTOR@@PBU2@MPBU_D3DMATRIX@@@Z 0058d830 f   d3d8d:math.obj
 0003:0002a2c0       ?MatrixProduct4x4@D3D@@YGXPAU_D3DMATRIX@@PBU2@1@Z 0058d8c0 f   d3d8d:math.obj
 0003:0002a400       ?Explut@D3D@@YGXMPAM0@Z    0058da00 f   d3d8d:math.obj
 0003:0002a540       ?JBInvSqrt@D3D@@YGMM@Z     0058db40 f   d3d8d:math.obj
 0003:0002a5c0       ?nvSqrt@D3D@@YGMM@Z        0058dbc0 f   d3d8d:math.obj
 0003:0002a5e0       ?nvInv@D3D@@YGMM@Z         0058dbe0 f   d3d8d:math.obj
 0003:0002a620       ?NormalizeVector3@D3D@@YGXPAU_D3DVECTOR@@@Z 0058dc20 f   d3d8d:math.obj
 0003:0002a6b0       ?Inverse4x4@D3D@@YGHPAU_D3DMATRIX@@PBU2@H@Z 0058dcb0 f   d3d8d:math.obj
 0003:0002ac43       ?ReserveInstMem@CMiniport@D3D@@AAEKK@Z 0058e243 f   d3d8d:mpcore.obj
 0003:0002ac91       ?InitGammaRamp@CMiniport@D3D@@AAEXK@Z 0058e291 f   d3d8d:mpcore.obj
 0003:0002ace4       ?InitDMAChannel@CMiniport@D3D@@QAEHKPAUOBJECTINFO@12@0KPAPAX@Z 0058e2e4 f   d3d8d:mpcore.obj
 0003:0002ad5a       ?BindToChannel@CMiniport@D3D@@QAEHPAUOBJECTINFO@12@@Z 0058e35a f   d3d8d:mpcore.obj
 0003:0002adc0       ?Init@OBJECTINFO@CMiniport@D3D@@QAEXXZ 0058e3c0 f i d3d8d:mpcore.obj
 0003:0002ade0       ?AssertContiguousOrPhysical@D3D@@YGXPAXPAD@Z 0058e3e0 f i d3d8d:mpcore.obj
 0003:0002ae10       ?IsContiguousMemory@D3D@@YGHPAX@Z 0058e410 f i d3d8d:mpcore.obj
 0003:0002ae2f       ?DumpClocks@CMiniport@D3D@@AAEXXZ 0058e42f f   d3d8d:mpcore.obj
 0003:0002b01a       ?MapRegisters@CMiniport@D3D@@AAEHXZ 0058e61a f   d3d8d:mpcore.obj
 0003:0002b04f       ?GetGeneralInfo@CMiniport@D3D@@AAEHXZ 0058e64f f   d3d8d:mpcore.obj
 0003:0002b0a0       ?InitEngines@CMiniport@D3D@@AAEHXZ 0058e6a0 f   d3d8d:mpcore.obj
 0003:0002b143       ?LoadEngines@CMiniport@D3D@@AAEHXZ 0058e743 f   d3d8d:mpcore.obj
 0003:0002b201       ?GetAddressInfo@CMiniport@D3D@@AAEXPAXPAPAXPAKH@Z 0058e801 f   d3d8d:mpcore.obj
 0003:0002b285       ?CreateCtxDmaObject@CMiniport@D3D@@QAEHKKPAXKPAUOBJECTINFO@12@@Z 0058e885 f   d3d8d:mpcore.obj
 0003:0002b3d1       ?CreateGrObject@CMiniport@D3D@@QAEHKKPAUOBJECTINFO@12@@Z 0058e9d1 f   d3d8d:mpcore.obj
 0003:0002b521       ?TilingUpdateIdle@CMiniport@D3D@@QAEXPAK@Z 0058eb21 f   d3d8d:mpcore.obj
 0003:0002b5aa       ?GetTimerTime@CMiniport@D3D@@AAE_KXZ 0058ebaa f   d3d8d:mpcore.obj
 0003:0002b5c4       ?EnableTimer@CMiniport@D3D@@AAEXH@Z 0058ebc4 f   d3d8d:mpcore.obj
 0003:0002b5ed       ?SetTimerAlarm@CMiniport@D3D@@AAEX_KH@Z 0058ebed f   d3d8d:mpcore.obj
 0003:0002b6ee       ?SetTimerCallbackAlarm@CMiniport@D3D@@QAEX_KP6AXK@ZK@Z 0058ecee f   d3d8d:mpcore.obj
 0003:0002b7a0       ?ApplyLGSFix@CMiniport@D3D@@QAEXXZ 0058eda0 f   d3d8d:mpcore.obj
 0003:0002b7f8       ?InitHardware@CMiniport@D3D@@QAEHXZ 0058edf8 f   d3d8d:mpcore.obj
 0003:0002ba89       ?CreateTile@CMiniport@D3D@@QAEHKKKKKKK@Z 0058f089 f   d3d8d:mpcore.obj
 0003:0002bd1f       ?DestroyTile@CMiniport@D3D@@QAEHKK@Z 0058f31f f   d3d8d:mpcore.obj
 0003:0002be11       ?ShutdownEngines@CMiniport@D3D@@QAEXXZ 0058f411 f   d3d8d:mpcore.obj
 0003:0002c7c0       ?GetGPUDataFromResource@D3D@@YGKPAUD3DResource@@@Z 0058fdc0 f i d3d8d:lazy.obj
 0003:0002c840       ?LazyPrimitiveLaunchStateTest@D3D@@YGXXZ 0058fe40 f i d3d8d:lazy.obj
 0003:0002c8c0       ?LazySetPointParams@D3D@@YGXPAVCDevice@1@@Z 0058fec0 f   d3d8d:lazy.obj
 0003:0002cb00       ?LazySetShaderStageProgram@D3D@@YGXPAVCDevice@1@@Z 00590100 f   d3d8d:lazy.obj
 0003:0002cf90       ?LazySetTextureState@D3D@@YGXPAVCDevice@1@K@Z 00590590 f   d3d8d:lazy.obj
 0003:0002d2c0       ?LazySetSpecFogCombiner@D3D@@YGXPAVCDevice@1@@Z 005908c0 f   d3d8d:lazy.obj
 0003:0002d5a0       ?LazySetTextureTransform@D3D@@YGXPAVCDevice@1@@Z 00590ba0 f   d3d8d:lazy.obj
 0003:0002de20       ?LazySetLights@D3D@@YGXPAVCDevice@1@K@Z 00591420 f   d3d8d:lazy.obj
 0003:0002e320       ?LazySetTransform@D3D@@YGXPAVCDevice@1@K@Z 00591920 f   d3d8d:lazy.obj
 0003:0002e5e0       ?LazySetState@D3D@@YGXXZ   00591be0 f   d3d8d:lazy.obj
 0003:0002e690       ?LazySetStateVB@CDevice@D3D@@QAEXK@Z 00591c90 f   d3d8d:lazy.obj
 0003:0002e940       ?LazySetStateUP@CDevice@D3D@@QAEXXZ 00591f40 f   d3d8d:lazy.obj
 0003:0002eb60       ?ValidCombinerInputs@D3D@@YGHKPAD@Z 00592160 f   d3d8d:pshader.obj
 0003:0002ec20       ?ValidAlphaOutputs@D3D@@YGHKPAD@Z 00592220 f   d3d8d:pshader.obj
 0003:0002ed10       ?ValidRGBOutputs@D3D@@YGHKPAD@Z 00592310 f   d3d8d:pshader.obj
 0003:0002ede0       ?ValidFinalCombinerABCD@D3D@@YGHKPAD@Z 005923e0 f   d3d8d:pshader.obj
 0003:0002f030       ?ValidFinalCombinerEFG@D3D@@YGHKPAD@Z 00592630 f   d3d8d:pshader.obj
 0003:0002f150       ?ValidTextureModes@D3D@@YGHKPAD@Z 00592750 f   d3d8d:pshader.obj
 0003:0002f430       ?ValidInputTexture@D3D@@YGHKPAD@Z 00592a30 f   d3d8d:pshader.obj
 0003:0002f500       ?ValidCombinerCount@D3D@@YGHKPAD@Z 00592b00 f   d3d8d:pshader.obj
 0003:0002f5d0       ?ValidCompareMode@D3D@@YGHKPAD@Z 00592bd0 f   d3d8d:pshader.obj
 0003:0002f620       ?ValidDotMapping@D3D@@YGHKPAD@Z 00592c20 f   d3d8d:pshader.obj
 0003:0002f700       ?ValidFinalCombinerConstants@D3D@@YGHKPAD@Z 00592d00 f   d3d8d:pshader.obj
 0003:0002f750       _D3DDevice_CreatePixelShader@8 00592d50 f   d3d8d:pshader.obj
 0003:0002fc50       _D3DDevice_DeletePixelShader@4 00593250 f   d3d8d:pshader.obj
 0003:0002fcf0       _D3DDevice_SetPixelShaderProgram@4 005932f0 f   d3d8d:pshader.obj
 0003:00030200       _D3DDevice_GetPixelShader@4 00593800 f   d3d8d:pshader.obj
 0003:00030260       _D3DDevice_GetPixelShaderConstant@12 00593860 f   d3d8d:pshader.obj
 0003:000306b0       _D3DDevice_GetPixelShaderFunction@8 00593cb0 f   d3d8d:pshader.obj
 0003:00030750       _D3DDevice_SetPixelShader@4 00593d50 f   d3d8d:pshader.obj
 0003:00030aa0       _D3DDevice_SetPixelShaderConstant@12 005940a0 f   d3d8d:pshader.obj
 0003:00030f40       _D3DSurface_GetDesc@8      00594540 f   d3d8d:surface.obj
 0003:00030f80       _D3DVolume_GetDesc@8       00594580 f   d3d8d:surface.obj
 0003:00030fc0       _D3DVolume_LockBox@16      005945c0 f   d3d8d:surface.obj
 0003:00031170       ?CreateSurfaceOfTexture@D3D@@YGPAUD3DSurface@@KKPAUD3DBaseTexture@@PAX@Z 00594770 f   d3d8d:surface.obj
 0003:00031200       ?InitializeSurface@D3D@@YGXPAUD3DSurface@@KKPAX@Z 00594800 f   d3d8d:surface.obj
 0003:00031270       _D3DDevice_CreateSurface2@16 00594870 f   d3d8d:surface.obj
 0003:00031450       ?CreateSurfaceWithContiguousHeader@D3D@@YGPAUD3DSurface@@KKW4_D3DFORMAT@@@Z 00594a50 f   d3d8d:surface.obj
 0003:00031510       _D3DSurface_GetContainer2@4 00594b10 f   d3d8d:surface.obj
 0003:00031550       _D3DSurface_LockRect@16    00594b50 f   d3d8d:surface.obj
 0003:000315b0       ?CreateVolumeOfTexture@D3D@@YGPAUD3DVolume@@KPAUD3DBaseTexture@@PAX@Z 00594bb0 f   d3d8d:surface.obj
 0003:00031640       _D3DVolume_GetContainer2@4 00594c40 f   d3d8d:surface.obj
 0003:00031680       ?StrChr@D3D@@YGPBDPBDH@Z   00594c80 f   d3d8d:recorder.obj
 0003:000316b0       ?StrCat@D3D@@YGXPADPBD@Z   00594cb0 f   d3d8d:recorder.obj
 0003:000316f0       ?ZeroInitialize@D3D@@YGXPAXK@Z 00594cf0 f   d3d8d:recorder.obj
 0003:00031740       ?WriteDisk@Recorder@D3D@@AAEXW4RecordType@@PBXKKKK@Z 00594d40 f   d3d8d:recorder.obj
 0003:00031820       ?ValidateStateAgainstParser@Recorder@D3D@@AAEXPBK0@Z 00594e20 f   d3d8d:recorder.obj
 0003:00031a30       ?InitializeCRC@D3D@@YGXXZ  00595030 f   d3d8d:recorder.obj
 0003:00031a70       ?ComputeCRC@D3D@@YGHPBXPAK@Z 00595070 f   d3d8d:recorder.obj
 0003:00031c60       ?RedundantComputeCRC@D3D@@YGKKPAEH@Z 00595260 f   d3d8d:recorder.obj
 0003:00031ca0       ?TiledToLinear@D3D@@YGKPAU_D3DTILE@@K@Z 005952a0 f   d3d8d:recorder.obj
 0003:00031d90       ?SaveMemorySummary@Recorder@D3D@@AAEHXZ 00595390 f   d3d8d:recorder.obj
 0003:00031e90       ?SaveFloatingPointControl@Recorder@D3D@@AAEHXZ 00595490 f   d3d8d:recorder.obj
 0003:00031f20       ?SaveModifiedRanges@Recorder@D3D@@AAEHXZ 00595520 f   d3d8d:recorder.obj
 0003:00032060       ?FindMinMax16@D3D@@YGXPBKKPAK1@Z 00595660 f   d3d8d:recorder.obj
 0003:00032220       ?RedundantFindMinMax16@D3D@@YGXPBKKPAK1@Z 00595820 f   d3d8d:recorder.obj
 0003:00032290       ?FindMinMax32@D3D@@YGXPBKKPAK1@Z 00595890 f   d3d8d:recorder.obj
 0003:000322f0       ?FindMinMaxArrays@D3D@@YGXPBKKPAK1@Z 005958f0 f   d3d8d:recorder.obj
 0003:00032370       ?Start@Recorder@D3D@@QAEJPBDPAUD3DSurface@@@Z 00595970 f   d3d8d:recorder.obj
 0003:000324d0       ?End@Recorder@D3D@@QAEJXZ  00595ad0 f   d3d8d:recorder.obj
 0003:00032680       _D3DPERF_StartPushBufferCapture@8 00595c80 f   d3d8d:recorder.obj
 0003:000326f0       _D3DPERF_StopPushBufferCapture@0 00595cf0 f   d3d8d:recorder.obj
 0003:00032760       ?SpecialCaseReadKelvinRegister@D3D@@YGKKK@Z 00595d60 f   d3d8d:recorder.obj
 0003:000327d0       ?ReadKelvinRegister@D3D@@YGKK@Z 00595dd0 f   d3d8d:recorder.obj
 0003:000328e0       ?IsBusy@Recorder@D3D@@AAEHXZ 00595ee0 f   d3d8d:recorder.obj
 0003:00032910       ?SaveGammaRamp@Recorder@D3D@@AAEHXZ 00595f10 f   d3d8d:recorder.obj
 0003:00032970       ?MarkUntiledRange@Recorder@D3D@@AAEXKKW4RecordResourceType@@@Z 00595f70 f   d3d8d:recorder.obj
 0003:00032c10       ?MarkPages@Recorder@D3D@@AAEXKKW4RecordResourceType@@@Z 00596210 f   d3d8d:recorder.obj
 0003:00032e10       ?SavePages@Recorder@D3D@@AAEXXZ 00596410 f   d3d8d:recorder.obj
 0003:00033040       ?UpdateCRCsFromTargets@Recorder@D3D@@AAEXXZ 00596640 f   d3d8d:recorder.obj
 0003:00033120       ?MarkColorSurface@Recorder@D3D@@AAEXXZ 00596720 f   d3d8d:recorder.obj
 0003:00033170       ?MarkZetaSurface@Recorder@D3D@@AAEXXZ 00596770 f   d3d8d:recorder.obj
 0003:000331c0       ?MarkTextures@Recorder@D3D@@AAEXXZ 005967c0 f   d3d8d:recorder.obj
 0003:000332c0       ?MarkVertexBuffers@Recorder@D3D@@AAEXKK@Z 005968c0 f   d3d8d:recorder.obj
 0003:00033390       ?MarkPalettes@Recorder@D3D@@AAEXXZ 00596990 f   d3d8d:recorder.obj
 0003:000333e0       ?MarkRendering@Recorder@D3D@@AAEXXZ 005969e0 f   d3d8d:recorder.obj
 0003:000334b0       ?ParseMethod@Recorder@D3D@@AAEXKPBKK@Z 00596ab0 f   d3d8d:recorder.obj
 0003:00033e80       ?ParseSegment@Recorder@D3D@@AAEPBKPBK0PAPAX1@Z 00597480 f   d3d8d:recorder.obj
 0003:00033fd0       ?SaveRenderState@Recorder@D3D@@AAEHXZ 005975d0 f   d3d8d:recorder.obj
 0003:00034670       ?SaveTileState@Recorder@D3D@@AAEHXZ 00597c70 f   d3d8d:recorder.obj
 0003:00034980       ?Initialize@Recorder@D3D@@AAEXXZ 00597f80 f   d3d8d:recorder.obj
 0003:00034b60       ?Put@Recorder@D3D@@QAEXK@Z 00598160 f   d3d8d:recorder.obj
 0003:00034ee0       ?PerfRecordPut@D3D@@YGXK@Z 005984e0 f   d3d8d:recorder.obj
 0003:00034f10       ?SpewFloat@D3D@@YGXPAX@Z   00598510 f   d3d8d:rdi.obj
 0003:00034fe0       ?ParseOut@D3D@@YGXPAUVINSTR@1@@Z 005985e0 f   d3d8d:rdi.obj
 0003:00035090       ?ParseMux@D3D@@YGXHHHHHHHPAUVINSTR@1@@Z 00598690 f   d3d8d:rdi.obj
 0003:000351e0       ?DisasmInstr@D3D@@YG_NPAX@Z 005987e0 f   d3d8d:rdi.obj
 0003:00035620       _D3DRDI_GetRamData@16      00598c20 f   d3d8d:rdi.obj
 0003:000356d0       _D3DRDI_GetNextVTXLRUSlot@0 00598cd0 f   d3d8d:rdi.obj
 0003:00035700       _D3DRDI_GetVTXFileEntry@8  00598d00 f   d3d8d:rdi.obj
 0003:00035750       _D3DRDI_GetPAEntry@8       00598d50 f   d3d8d:rdi.obj
 0003:00035780       _D3DRDI_DumpVTXFileEntry@4 00598d80 f   d3d8d:rdi.obj
 0003:00035900       _D3DRDI_DumpVTXProgram@8   00598f00 f   d3d8d:rdi.obj
 0003:000359b0       _D3DRDI_DumpVTXConstants@8 00598fb0 f   d3d8d:rdi.obj
 0003:00035a90       _D3DRDI_DumpVAB@0          00599090 f   d3d8d:rdi.obj
 0003:00035b60       ?D3DRDI_DumpPA@D3D@@YGXXZ  00599160 f   d3d8d:rdi.obj
 0003:00035d60       ?FixupPushBuffer@D3D@@YGXPAUPushBufferFixup@1@@Z 00599360 f   d3d8d:pushres.obj
 0003:00035ee0       ?ReadBuffer@D3D@@YGKPAK@Z  005994e0 f   d3d8d:pushres.obj
 0003:00035f30       ?EndFixup@D3D@@YGXH@Z      00599530 f   d3d8d:pushres.obj
 0003:00035fa0       ?Fixup1@D3D@@YGXPAKKK@Z    005995a0 f   d3d8d:pushres.obj
 0003:00036070       ?Fixup2@D3D@@YGXPAKKKK@Z   00599670 f   d3d8d:pushres.obj
 0003:00036150       ?FixupCount@D3D@@YGXPAKW4SubChannel@@KK@Z 00599750 f   d3d8d:pushres.obj
 0003:00036240       ?FixupMatrixTransposed@D3D@@YGXPAKKPBU_D3DMATRIX@@@Z 00599840 f   d3d8d:pushres.obj
 0003:00036310       ?AddToFixup@D3D@@YGXK@Z    00599910 f   d3d8d:pushres.obj
 0003:00036340       ?StartFixup@D3D@@YGPAKPAUD3DPushBuffer@@IK@Z 00599940 f   d3d8d:pushres.obj
 0003:00036470       _D3DPushBuffer_SetModelView@20 00599a70 f   d3d8d:pushres.obj
 0003:00036580       _D3DPushBuffer_SetVertexBlendModelView@24 00599b80 f   d3d8d:pushres.obj
 0003:00036710       _D3DPushBuffer_SetVertexShaderInputDirect@20 00599d10 f   d3d8d:pushres.obj
 0003:00036780       _D3DPushBuffer_SetPalette@16 00599d80 f   d3d8d:pushres.obj
 0003:000368b0       _D3DPushBuffer_SetVertexShaderConstant@20 00599eb0 f   d3d8d:pushres.obj
 0003:00036a00       _D3DPushBuffer_SetRenderState@16 0059a000 f   d3d8d:pushres.obj
 0003:00036ad0       _D3DPushBuffer_CopyRects@16 0059a0d0 f   d3d8d:pushres.obj
 0003:00036b80       ?StampCheckValue@D3D@@YGXPCKHKPAD@Z 0059a180 f i d3d8d:pushres.obj
 0003:00036bf0       ?VerifyInstruction@D3D@@YGXKPCKKH@Z 0059a1f0 f   d3d8d:pushres.obj
 0003:00036c80       _D3DPushBuffer_Verify@8    0059a280 f   d3d8d:pushres.obj
 0003:00036e60       _D3DDevice_CreateFixup2@4  0059a460 f   d3d8d:pushres.obj
 0003:00036ec0       _D3DFixup_Reset@4          0059a4c0 f   d3d8d:pushres.obj
 0003:00036f20       _D3DPushBuffer_BeginFixup@12 0059a520 f   d3d8d:pushres.obj
 0003:00037020       _D3DPushBuffer_EndFixup@4  0059a620 f   d3d8d:pushres.obj
 0003:000370e0       _D3DFixup_GetSize@8        0059a6e0 f   d3d8d:pushres.obj
 0003:00037120       _D3DFixup_GetSpace@8       0059a720 f   d3d8d:pushres.obj
 0003:00037300       ?RunPushBufferParameterCheck@D3D@@YGXPAUD3DPushBuffer@@PAUD3DFixup@@@Z 0059a900 f   d3d8d:pushres.obj
 0003:00037500       _D3DDevice_RunPushBuffer@8 0059ab00 f   d3d8d:pushres.obj
 0003:00037af0       _D3DDevice_CreatePushBuffer2@8 0059b0f0 f   d3d8d:pushres.obj
 0003:00037c50       _D3DDevice_BeginPushBuffer@4 0059b250 f   d3d8d:pushres.obj
 0003:00037e00       _D3DDevice_EndPushBuffer@0 0059b400 f   d3d8d:pushres.obj
 0003:00037f80       _D3DDevice_GetPushBufferOffset@4 0059b580 f   d3d8d:pushres.obj
 0003:00038090       _D3DPushBuffer_RunPushBuffer@16 0059b690 f   d3d8d:pushres.obj
 0003:00038270       _D3DPushBuffer_SetVertexShaderInput@20 0059b870 f   d3d8d:pushres.obj
 0003:00038440       _D3DPushBuffer_SetRenderTarget@16 0059ba40 f   d3d8d:pushres.obj
 0003:00038710       _D3DPushBuffer_SetTexture@16 0059bd10 f   d3d8d:pushres.obj
 0003:00038900       _D3DPushBuffer_EndVisibilityTest@12 0059bf00 f   d3d8d:pushres.obj
 0003:00038a00       _D3DPushBuffer_Jump@12     0059c000 f   d3d8d:pushres.obj
 0003:00038b54       ?HalMcControlInit@CMiniport@D3D@@AAEXXZ 0059c154 f   d3d8d:mphal.obj
 0003:00038d14       ?HalFbControlInit@CMiniport@D3D@@AAEXXZ 0059c314 f   d3d8d:mphal.obj
 0003:00038e92       ?HalDacControlInit@CMiniport@D3D@@AAEXXZ 0059c492 f   d3d8d:mphal.obj
 0003:00038f94       ?HalVideoControlInit@CMiniport@D3D@@AAEXXZ 0059c594 f   d3d8d:mphal.obj
 0003:00038fd7       ?HalGrControlInit@CMiniport@D3D@@AAEXXZ 0059c5d7 f   d3d8d:mphal.obj
 0003:00039013       ?HalFifoControlInit@CMiniport@D3D@@AAEXXZ 0059c613 f   d3d8d:mphal.obj
 0003:000390a0       ?HalGrIdle@CMiniport@D3D@@AAEXXZ 0059c6a0 f   d3d8d:mphal.obj
 0003:000390ee       ?HalGrUnloadChannelContext@CMiniport@D3D@@AAEXK@Z 0059c6ee f   d3d8d:mphal.obj
 0003:00039139       ?HalFifoContextSwitch@CMiniport@D3D@@AAEXK@Z 0059c739 f   d3d8d:mphal.obj
 0003:000393b5       ?HalMpControlInit@CMiniport@D3D@@AAEXXZ 0059c9b5 f   d3d8d:mphal.obj
 0003:000394d3       ?HalDacUnload@CMiniport@D3D@@AAEXXZ 0059cad3 f   d3d8d:mphal.obj
 0003:000394ef       ?HalDacLoad@CMiniport@D3D@@AAEXXZ 0059caef f   d3d8d:mphal.obj
 0003:00039505       ?HalDacProgramMClk@CMiniport@D3D@@AAEXXZ 0059cb05 f   d3d8d:mphal.obj
 0003:000396dc       ?HalDacProgramNVClk@CMiniport@D3D@@AAEXXZ 0059ccdc f   d3d8d:mphal.obj
 0003:00039886       ?HalDacProgramPClk@CMiniport@D3D@@AAEXXZ 0059ce86 f   d3d8d:mphal.obj
 0003:0003996e       ?HalFifoAllocDMA@CMiniport@D3D@@AAEXKKKPAUOBJECTINFO@12@@Z 0059cf6e f   d3d8d:mphal.obj
 0003:00039ba8       ?HalFifoHashAdd@CMiniport@D3D@@AAEXKKKKK@Z 0059d1a8 f   d3d8d:mphal.obj
 0003:00039c1b       ?HalGrInitObjectContext@CMiniport@D3D@@AAEXKK@Z 0059d21b f   d3d8d:mphal.obj
 0003:00039cf0       ?HalGrInit3d@CMiniport@D3D@@AAEXXZ 0059d2f0 f   d3d8d:mphal.obj
 0003:0003a995       ?HalGrLoadChannelContext@CMiniport@D3D@@AAEXK@Z 0059df95 f   d3d8d:mphal.obj
 0003:0003ab00       ?HalFifoControlLoad@CMiniport@D3D@@AAEXXZ 0059e100 f   d3d8d:mphal.obj
 0003:0003aba1       ?HalGrControlLoad@CMiniport@D3D@@AAEXXZ 0059e1a1 f   d3d8d:mphal.obj
 0003:0003b580       ?LazySetCombiners@D3D@@YGKPAVCDevice@1@K@Z 0059eb80 f   d3d8d:combiner.obj
 0003:0003d510       ?g_TextureFormat@D3D@@3QBEB 005a0b10     d3d8d:enum.obj
 0003:0003d560       ?g_AdapterIdentifier@D3D@@3U_D3DADAPTER_IDENTIFIER8@@B 005a0b60     d3d8d:enum.obj
 0003:0003da68       ??_C@_0JL@DLAPFHLP@?6D3D?5ERROR?3?5This?5application?5com@ 005a1068     d3d8d:enum.obj
 0003:0003db24       ??_C@_0CM@PFBEKEHG@Direct3D_EnumAdapterModes?5?9?5Bad?5@ 005a1124     d3d8d:enum.obj
 0003:0003db58       ??_C@_0BG@EGGDMOGE@Assertion?5failure?3?5?$CFs?$AA@ 005a1158     d3d8d:enum.obj
 0003:0003db74       ??_C@_0BD@DKGLMDC@pPixels?9?$DOSize?5?$CB?$DN?50?$AA@ 005a1174     d3d8d:enum.obj
 0003:0003db90       ??_C@_0EK@CIJLMJEI@Direct3D_SetPushBufferSize?5?9?5A?5p@ 005a1190     d3d8d:d3ddev.obj
 0003:0003dbe8       ??_C@_0FH@BCDNFGHP@Direct3D_SetPushBufferSize?5?9?5The@ 005a11e8     d3d8d:d3ddev.obj
 0003:0003dc50       ??_C@_0EK@KODANIIA@Direct3D_SetPushBufferSize?5?9?5Kic@ 005a1250     d3d8d:d3ddev.obj
 0003:0003dca8       ??_C@_0EN@LHOBCJN@Direct3D_SetPushBufferSize?5?9?5The@ 005a12a8     d3d8d:d3ddev.obj
 0003:0003dd08       ??_C@_0ED@PBIGJKPN@Direct3D_SetPushBufferSize?5?9?5The@ 005a1308     d3d8d:d3ddev.obj
 0003:0003dd58       ??_C@_0EE@OJJLNDNK@Direct3D_SetPushBufferSize?5?9?5Cal@ 005a1358     d3d8d:d3ddev.obj
 0003:0003ddac       ??_C@_0CK@EHNMHBPE@FATAL?3?5Failed?5to?5initialize?5devi@ 005a13ac     d3d8d:d3ddev.obj
 0003:0003dde0       ??_C@_0CG@KAPIHFFA@Can?8t?5create?5more?5than?5one?5D3D?5d@ 005a13e0     d3d8d:d3ddev.obj
 0003:0003de10       ??_C@_0FC@DHFIFNAN@Only?5D3DFMT_A8R8G8B8?0?5_X8R8G8B8?0@ 005a1410     d3d8d:d3ddev.obj
 0003:0003de74       ??_C@_0BL@FHEFOHOB@Only?5HAL?5devices?5supported?$AA@ 005a1474     d3d8d:d3ddev.obj
 0003:0003de94       ??_C@_0CK@FELNHPDJ@Only?5hardware?5vertex?5processing?5@ 005a1494     d3d8d:d3ddev.obj
 0003:0003dec8       ??_C@_0BH@EFEJKNDH@Windowed?5must?5be?5FALSE?$AA@ 005a14c8     d3d8d:d3ddev.obj
 0003:0003dee4       ??_C@_0CN@BGHNFMGA@Invalid?5BehaviorFlags?5passed?5to?5@ 005a14e4     d3d8d:d3ddev.obj
 0003:0003df1c       ??_C@_0DB@DIKHOLEI@Invalid?5Adapter?5parameter?5passed@ 005a151c     d3d8d:d3ddev.obj
 0003:0003df58       ??_C@_0CG@LEGNNEIF@D3DFORMAT_UNKNOWN?5not?5allowed?5on@ 005a1558     d3d8d:d3ddev.obj
 0003:0003df88       ??_C@_0DK@DCKMOIEK@Invalid?5D3DPRESENT_PARAMETERS?5po@ 005a1588     d3d8d:d3ddev.obj
 0003:0003dfd0       ??_C@_08LPCDBLNN@D3DFixup?$AA@ 005a15d0     d3d8d:resource.obj
 0003:0003dfdc       ??_C@_0L@BGLDBADN@D3DSurface?$AA@ 005a15dc     d3d8d:resource.obj
 0003:0003dfec       ??_C@_0L@CIMGLOB@D3DTexture?$AA@ 005a15ec     d3d8d:resource.obj
 0003:0003dffc       ??_C@_0L@LHPKEGA@D3DPalette?$AA@ 005a15fc     d3d8d:resource.obj
 0003:0003e00c       ??_C@_0O@IOCIOEPF@D3DPushBuffer?$AA@ 005a160c     d3d8d:resource.obj
 0003:0003e01c       ??_C@_0P@PFMGCGA@D3DIndexBuffer?$AA@ 005a161c     d3d8d:resource.obj
 0003:0003e030       ??_C@_0BA@JGKGAOJA@D3DVertexBuffer?$AA@ 005a1630     d3d8d:resource.obj
 0003:0003e09c       ??_C@_0CI@EMFLNAIP@not?5derived?5from?5the?5IUnknown?5in@ 005a169c     d3d8d:resource.obj
 0003:0003e0cc       ??_C@_0DH@EFGOHII@Possible?5attempt?5to?5use?5D3DSPD_I@ 005a16cc     d3d8d:resource.obj
 0003:0003e110       ??_C@_0EI@OHLADGHJ@AssertContiguous?5?9?5the?5address?5i@ 005a1710     d3d8d:resource.obj
 0003:0003e168       ??_C@_0EE@EGKAFALK@AssertPhysical?5?9?5the?5address?5is?5@ 005a1768     d3d8d:resource.obj
 0003:0003e1bc       ??_C@_0BO@KIBIIKE@D3D__AllocsContiguous?5?$DO?$DN?5size?$AA@ 005a17bc     d3d8d:resource.obj
 0003:0003e1e0       ??_C@_0FC@JGPLNNH@DestroyResource?5?9?5The?5reference?5@ 005a17e0     d3d8d:resource.obj
 0003:0003e248       ??_C@_0FM@JKGEMPII@Validate?3?5The?5?$CFs?5?8?$CFs?8?5structure?5@ 005a1848     d3d8d:resource.obj
 0003:0003e2b8       ??_C@_0BA@IHPCNGOC@user?9Registered?$AA@ 005a18b8     d3d8d:resource.obj
 0003:0003e2cc       ??_C@_0M@JAAAGMMB@D3D?9created?$AA@ 005a18cc     d3d8d:resource.obj
 0003:0003e2e0       ??_C@_0OL@KHOPNLIH@?6Validate?3?5The?5user?9Registered?5?8@ 005a18e0     d3d8d:resource.obj
 0003:0003e3fc       ??_C@_0DP@CBEBDECE@Validate?3?5Invalid?5?8Format?8?5field@ 005a19fc     d3d8d:resource.obj
 0003:0003e448       ??_C@_0DO@BAPKGMCK@Validate?3?5Invalid?5?8Format?8?5field@ 005a1a48     d3d8d:resource.obj
 0003:0003e498       ??_C@_0EO@MECDGBKI@Validate?3?5Invalid?5?8Format?8?5field@ 005a1a98     d3d8d:resource.obj
 0003:0003e4f8       ??_C@_0DC@MOCIPOJE@Validate?3?5Invalid?5?8Size?8?5field?5?$CI@ 005a1af8     d3d8d:resource.obj
 0003:0003e534       ??_C@_0DF@CCFCCDNF@Validate?3?5Invalid?5?8Format?8?5field@ 005a1b34     d3d8d:resource.obj
 0003:0003e574       ??_C@_0DM@GHEJOIOO@Validate?3?5Invalid?5?8Common?8?5field@ 005a1b74     d3d8d:resource.obj
 0003:0003e5bc       ??_C@_0DA@IDCJKANA@Validate?3?5Invalid?5?8Data?8?5field?5?$CI@ 005a1bbc     d3d8d:resource.obj
 0003:0003e5f8       ??_C@_0CM@LCFBCANH@Validate?3?5Invalid?5?8Data?8?5field?5?$CI@ 005a1bf8     d3d8d:resource.obj
 0003:0003e62c       ??_C@_0DB@KGLAFNFF@Validate?3?5Invalid?5?8Lock?8?5field?5?$CI@ 005a1c2c     d3d8d:resource.obj
 0003:0003e668       ??_C@_0DI@DJACLJMG@Validate?3?5Invalid?5?8Common?8?5field@ 005a1c68     d3d8d:resource.obj
 0003:0003e6b0       ??_C@_0FG@PEJDFABB@Validate?3?5Invalid?5?8Parent?8?5field@ 005a1cb0     d3d8d:resource.obj
 0003:0003e718       ??_C@_0DN@PPIGBLBP@Validate?3?5Invalid?5?8Common?8?5field@ 005a1d18     d3d8d:resource.obj
 0003:0003e764       ??_C@_0CC@MKOLAKO@Validate?3?5NULL?5resource?5pointer?4@ 005a1d64     d3d8d:resource.obj
 0003:0003e78c       ??_C@_0BL@HKLOKFID@?$CBIsChildSurface?$CIpResource?$CJ?$AA@ 005a1d8c     d3d8d:resource.obj
 0003:0003e7b0       ??_C@_0EP@DMFAPOFM@?$CIpResource?9?$DOCommon?5?$CG?5D3DCOMMON_I@ 005a1db0     d3d8d:resource.obj
 0003:0003e810       ??_C@_0DG@FIELPDEH@?$CIpResource?9?$DOCommon?5?$CG?5D3DCOMMON_I@ 005a1e10     d3d8d:resource.obj
 0003:0003e850       ??_C@_0EE@GBCCIJLF@?$CIpResource?9?$DOCommon?5?$CG?5D3DCOMMON_T@ 005a1e50     d3d8d:resource.obj
 0003:0003e8a8       ??_C@_0ED@EDFPOPAK@D3DResource_AddRef?5overflow?5?9?5wa@ 005a1ea8     d3d8d:resource.obj
 0003:0003e8f8       ??_C@_0EF@NCNJGGFE@D3DResource_Release?5underflow?5?9?5@ 005a1ef8     d3d8d:resource.obj
 0003:0003e94c       ??_C@_0CE@DAPOCMLH@D3DResource_GetType?5?9?5unknown?5ty@ 005a1f4c     d3d8d:resource.obj
 0003:0003e978       ??_C@_0EL@DKLIGAMF@D3DResource_Register?5?9?5The?5objec@ 005a1f78     d3d8d:resource.obj
 0003:0003e9d8       ??_C@_0EN@HOPMMMMA@D3DResource_Register?5?9?5D3DResour@ 005a1fd8     d3d8d:resource.obj
 0003:0003ea34       ??_C@_0DC@DOFDNLM@D3DResource_Register?5?9?5Lock?5fiel@ 005a2034     d3d8d:resource.obj
 0003:0003ea70       ??_C@_0CP@PIIMCIIO@D3DResource_Register?5?9?5Do?5not?5re@ 005a2070     d3d8d:resource.obj
 0003:0003eaa8       ??_C@_0DG@NIJLIHNB@D3DResource_Register?5?9?5Do?5not?5re@ 005a20a8     d3d8d:resource.obj
 0003:0003eae8       ??_C@_0DP@PBBFBAHL@D3DResource_Register?5?9?5Do?5not?5re@ 005a20e8     d3d8d:resource.obj
 0003:0003eb34       ??_C@_0DC@CLDHLALM@Invalid?5SizeOfData?5for?5IUnknown?5@ 005a2134     d3d8d:resource.obj
 0003:0003eb70       ??_C@_0CA@LKLBDBBE@Invalid?5flags?5to?5SetPrivateData?$AA@ 005a2170     d3d8d:resource.obj
 0003:0003eb98       ?g_DefaultViewport@D3D@@3U_D3DVIEWPORT8@@B 005a2198     d3d8d:d3dbase.obj
 0003:0003ebd0       ?g_TilePitches@D3D@@3QBKB  005a21d0     d3d8d:d3dbase.obj
 0003:0003ec4c       ?g_TransformDirtyTable@D3D@@3QBKB 005a224c     d3d8d:d3dbase.obj
 0003:0003ec7c       ??_C@_0CK@BIIOPDAE@ColorFormat?5?$DO?5D3DCOPYRECT_COLOR_@ 005a227c     d3d8d:d3dbase.obj
 0003:0003ecb0       ??_C@_0GC@KIGLIGGF@D3DDevice_SetCopyRectsState?3?5Inv@ 005a22b0     d3d8d:d3dbase.obj
 0003:0003ed28       ??_C@_0EN@PDKOOPNP@D3DDevice_SetCopyRectsState?3?5Inv@ 005a2328     d3d8d:d3dbase.obj
 0003:0003ed88       ??_C@_0FF@GDMHDGJH@D3DDevice_SetCopyRectsState?3?5COL@ 005a2388     d3d8d:d3dbase.obj
 0003:0003edf0       ??_C@_0CN@HNMIFCML@SetupCopyRectRopState?5?9?5Invalid?5@ 005a23f0     d3d8d:d3dbase.obj
 0003:0003ee28       ??_C@_0BA@LNOHFKPL@Invalid?5pointer?$AA@ 005a2428     d3d8d:d3dbase.obj
 0003:0003ee3c       ??_C@_0CL@EEDLNMID@Invalid?5state?5value?5passed?5to?5Ge@ 005a243c     d3d8d:d3dbase.obj
 0003:0003ee70       ??_C@_0BJ@PBGAKELP@Invalid?5viewport?5pointer?$AA@ 005a2470     d3d8d:d3dbase.obj
 0003:0003ee90       ??_C@_0BG@HDOFAKAB@Null?5material?5pointer?$AA@ 005a2490     d3d8d:d3dbase.obj
 0003:0003eeac       ??_C@_0CH@GCDAINLO@Attenuation?5factor?5can?5not?5be?5ne@ 005a24ac     d3d8d:d3dbase.obj
 0003:0003eedc       ??_C@_0CN@MDBCCCE@Invalid?5D3DLIGHT?5Theta?5angle?0?5mu@ 005a24dc     d3d8d:d3dbase.obj
 0003:0003ef14       ??_C@_0CL@GNOLMIFF@Invalid?5D3DLIGHT?5Theta?5angle?0?5mu@ 005a2514     d3d8d:d3dbase.obj
 0003:0003ef48       ??_C@_0CK@OKOJOJIK@Invalid?5D3DLIGHT?5Phi?5angle?0?5must@ 005a2548     d3d8d:d3dbase.obj
 0003:0003ef7c       ??_C@_0CJ@ICHJHGBN@Invalid?5D3DLIGHT?5Phi?5angle?0?5must@ 005a257c     d3d8d:d3dbase.obj
 0003:0003efb0       ??_C@_0BL@BEDBCGJM@Invalid?5D3DLIGHT?5direction?$AA@ 005a25b0     d3d8d:d3dbase.obj
 0003:0003efd0       ??_C@_0CI@OCGKODFH@Attenuation?5factors?5can?5not?5all?5@ 005a25d0     d3d8d:d3dbase.obj
 0003:0003f000       ??_C@_0BH@JEDGFDIO@Invalid?5D3DLIGHT?5range?$AA@ 005a2600     d3d8d:d3dbase.obj
 0003:0003f01c       ??_C@_0BG@FBNDPJHG@Invalid?5D3DLIGHT?5type?$AA@ 005a261c     d3d8d:d3dbase.obj
 0003:0003f038       ??_C@_0BE@FMEJEIBG@Invalid?5light?5index?$AA@ 005a2638     d3d8d:d3dbase.obj
 0003:0003f050       ??_C@_0BG@HDJBIOEA@Invalid?5light?5pointer?$AA@ 005a2650     d3d8d:d3dbase.obj
 0003:0003f06c       ??_C@_0BK@PLLMBFGO@Invalid?5render?5state?5type?$AA@ 005a266c     d3d8d:d3dbase.obj
 0003:0003f08c       ??_C@_0CF@FPIOJFLH@Invalid?5texture?5stage?5or?5state?5i@ 005a268c     d3d8d:d3dbase.obj
 0003:0003f0b8       ??_C@_0CO@KLPFIHMJ@EndVisibilityTest?5wasn?8t?5called?5@ 005a26b8     d3d8d:d3dbase.obj
 0003:0003f0f0       ??_C@_0EB@OKAKGGLO@Can?8t?5call?5GetVisibilityTestResu@ 005a26f0     d3d8d:d3dbase.obj
 0003:0003f140       ??_C@_0EA@CCFCEIIK@EndVisibilityTest?5wasn?8t?5called?5@ 005a2740     d3d8d:d3dbase.obj
 0003:0003f18c       ??_C@_0CP@NELNLJGH@Index?5must?5be?5less?5than?5D3DVISIB@ 005a278c     d3d8d:d3dbase.obj
 0003:0003f1c4       ??_C@_0CD@CKPJCALM@Can?8t?5request?5more?5than?54?5matric@ 005a27c4     d3d8d:d3dbase.obj
 0003:0003f1f0       ??_C@_0DJ@BLOBMCKA@Can?8t?5set?5any?5tile?5index?5of?5D3DT@ 005a27f0     d3d8d:d3dbase.obj
 0003:0003f234       ??_C@_0CD@BEIBKFJB@Device?5hasn?8t?5been?5initialized?5y@ 005a2834     d3d8d:d3dbase.obj
 0003:0003f260       ??_C@_0DF@JBMCGCCG@D3DDevice_SetFlickerFilter?5?9?5Bad@ 005a2860     d3d8d:d3dbase.obj
 0003:0003f2a0       ??_C@_0EM@FLMIJNGA@AllocateContiguousMemory?5?9?5inval@ 005a28a0     d3d8d:d3dbase.obj
 0003:0003f300       ??_C@_0HI@NBOBFCBI@AllocateContiguousMemory?5?9?5addre@ 005a2900     d3d8d:d3dbase.obj
 0003:0003f390       ??_C@_0EE@CGPNCKIH@AssertWriteCombined?5?9?5the?5addres@ 005a2990     d3d8d:d3dbase.obj
 0003:0003f3e4       ??_C@_0DE@EFOBNNFN@AllocateContiguousMemory?5?9?5inval@ 005a29e4     d3d8d:d3dbase.obj
 0003:0003f424       ??_C@_0BP@DMJHDIIM@PixelJar?3?3IsSurface?$CIpResource?$CJ?$AA@ 005a2a24     d3d8d:d3dbase.obj
 0003:0003f44c       ??_C@_0DE@PADKIGGK@Failed?5to?5recreate?5frame?5and?5bac@ 005a2a4c     d3d8d:d3dbase.obj
 0003:0003f48c       ??_C@_0DO@PJICGGFF@The?5depth?5buffer?5must?5be?5at?5leas@ 005a2a8c     d3d8d:d3dbase.obj
 0003:0003f4d8       ??_C@_0DA@MHJLIGBF@The?5data?5for?5a?5ZBuffer?5must?5be?56@ 005a2ad8     d3d8d:d3dbase.obj
 0003:0003f514       ??_C@_0BN@PCBCABKJ@Invalid?5depth?5buffer?5format?4?$AA@ 005a2b14     d3d8d:d3dbase.obj
 0003:0003f538       ??_C@_0GA@GECGFJO@A?5swizzled?5render?5target?5require@ 005a2b38     d3d8d:d3dbase.obj
 0003:0003f5ac       ??_C@_0DE@PEPIFMIA@A?5swizzled?5depth?5buffer?5can?8t?5be@ 005a2bac     d3d8d:d3dbase.obj
 0003:0003f5f0       ??_C@_0EF@OOBBOPKA@A?5render?5target?5that?5is?5only?51?5p@ 005a2bf0     d3d8d:d3dbase.obj
 0003:0003f648       ??_C@_0FE@EJIIDILB@An?5ZBuffer?5requires?5a?5pitch?5that@ 005a2c48     d3d8d:d3dbase.obj
 0003:0003f6b0       ??_C@_0FK@CIFCGBEG@A?5swizzled?5render?5target?5needs?5a@ 005a2cb0     d3d8d:d3dbase.obj
 0003:0003f720       ??_C@_0GF@GILJPEEJ@An?5unswizzled?5render?5target?5requ@ 005a2d20     d3d8d:d3dbase.obj
 0003:0003f79c       ??_C@_0CM@EEOOFGJO@The?5render?5target?5can?5be?5at?5most@ 005a2d9c     d3d8d:d3dbase.obj
 0003:0003f7d0       ??_C@_0DG@LPPPKCEN@The?5data?5for?5a?5render?5target?5mus@ 005a2dd0     d3d8d:d3dbase.obj
 0003:0003f810       ??_C@_0DF@HLFNAHLF@ZStencil?5not?5a?5true?5surface?5?$CID3D@ 005a2e10     d3d8d:d3dbase.obj
 0003:0003f850       ??_C@_0DK@ECJNBPIB@Render?5target?5not?5a?5true?5surface@ 005a2e50     d3d8d:d3dbase.obj
 0003:0003f898       ??_C@_0BO@KHAIKCHJ@Invalid?5render?5target?5format?4?$AA@ 005a2e98     d3d8d:d3dbase.obj
 0003:0003f8bc       ??_C@_0CH@GABFPKOD@Z?9buffer?5pitch?5doesn?8t?5match?5las@ 005a2ebc     d3d8d:d3dbase.obj
 0003:0003f8ec       ??_C@_0CH@JCLOPEBF@Z?9buffer?5depth?5doesn?8t?5match?5las@ 005a2eec     d3d8d:d3dbase.obj
 0003:0003f91c       ??_C@_0DM@IGGFFHGO@Color?5pitch?5doesn?8t?5match?5betwee@ 005a2f1c     d3d8d:d3dbase.obj
 0003:0003f968       ??_C@_0ED@NDJOJBG@Effective?5dimensions?5don?8t?5match@ 005a2f68     d3d8d:d3dbase.obj
 0003:0003f9b8       ??_C@_0EC@MANAECOM@Multi?9sample?5mode?5doesn?8t?5match?5@ 005a2fb8     d3d8d:d3dbase.obj
 0003:0003fa08       ??_C@_0BA@HFACJEBB@Flags?5must?5be?50?$AA@ 005a3008     d3d8d:d3dbase.obj
 0003:0003fa1c       ??_C@_0O@NLNDHMII@Invalid?5index?$AA@ 005a301c     d3d8d:d3dbase.obj
 0003:0003fa2c       ??_C@_0BN@FHPKPOGM@BackBuffer?5index?5is?5too?5big?4?$AA@ 005a302c     d3d8d:d3dbase.obj
 0003:0003fa50       ??_C@_0DM@MMEELIMP@D3DDevice_SetCopyRectsState?5?9?5In@ 005a3050     d3d8d:d3dbase.obj
 0003:0003fa98       ??_C@_0FF@KKFDPOG@D3DDevice_SetCopyRectsState?5?9?5Co@ 005a3098     d3d8d:d3dbase.obj
 0003:0003fb00       ??_C@_0DF@LIOAEBMF@D3DDevice_SetCopyRectsState?5?9?5Ba@ 005a3100     d3d8d:d3dbase.obj
 0003:0003fb40       ??_C@_0HP@EBLGDFII@D3DDevice_CopyRects?5?9?5The?5source@ 005a3140     d3d8d:d3dbase.obj
 0003:0003fbd8       ??_C@_0FH@CODEFHIO@D3DDevice_CopyRects?5?9?5CopyRects?5@ 005a31d8     d3d8d:d3dbase.obj
 0003:0003fc40       ??_C@_0GG@GNAOGEFA@D3DDevice_CopyRects?5?9?5The?5destin@ 005a3240     d3d8d:d3dbase.obj
 0003:0003fcc0       ??_C@_0FM@GJKGGMMJ@D3DDevice_CopyRects?5?9?5The?5source@ 005a32c0     d3d8d:d3dbase.obj
 0003:0003fd30       ??_C@_0GE@BHMDBADO@D3DDevice_CopyRects?5?9?5Malformed?5@ 005a3330     d3d8d:d3dbase.obj
 0003:0003fda8       ??_C@_0CG@ENOBOHEA@DestPitch?5?$CF?564?5?$DN?$DN?50?5?$CG?$CG?5DestPitch@ 005a33a8     d3d8d:d3dbase.obj
 0003:0003fdd8       ??_C@_0EB@PMHHDFDE@SourcePitch?5?$CF?564?5?$DN?$DN?50?5?$CG?$CG?5SourceP@ 005a33d8     d3d8d:d3dbase.obj
 0003:0003fe28       ??_C@_0EP@IHHMGLHO@D3DDevice_CopyRects?5?9?5pixel?5size@ 005a3428     d3d8d:d3dbase.obj
 0003:0003fe88       ??_C@_0CI@NCMGMIBL@GPUCopyVideoRectangle?5?9?5Bad?5pixe@ 005a3488     d3d8d:d3dbase.obj
 0003:0003feb8       ??_C@_0DK@KFFPCAIL@pDevice?9?$DOm_CopyRectState?4Operati@ 005a34b8     d3d8d:d3dbase.obj
 0003:0003ff00       ??_C@_0EF@OGKCPAKM@?$CISwizzledColumns?5?1?5BytesPerPixel@ 005a3500     d3d8d:d3dbase.obj
 0003:0003ff54       ??_C@_0BC@KPIJMIHK@Slice?5?$CF?54096?5?$DN?$DN?50?$AA@ 005a3554     d3d8d:d3dbase.obj
 0003:0003ff70       ??_C@_0GA@LIAHHAAP@D3DDevice_CopyRects?5?9?5Swizzled?5s@ 005a3570     d3d8d:d3dbase.obj
 0003:0003ffe8       ??_C@_0FK@GHHHPFMK@D3DDevice_CopyRects?5?9?5Must?5use?5D@ 005a35e8     d3d8d:d3dbase.obj
 0003:00040058       ??_C@_0GA@LCMKLGLA@D3DDevice_CopyRects?5?9?5CopyRects?5@ 005a3658     d3d8d:d3dbase.obj
 0003:000400d0       ??_C@_0FO@MPDLHAIK@D3DDevice_CopyRects?5?9?5The?5source@ 005a36d0     d3d8d:d3dbase.obj
 0003:00040140       ??_C@_0GB@OMHGKLEC@D3DDevice_CopyRects?5?9?5The?5source@ 005a3740     d3d8d:d3dbase.obj
 0003:000401b4       ??_C@_0CA@MMLDCKEP@This?5warning?5is?5shown?5only?5once?$AA@ 005a37b4     d3d8d:d3dbase.obj
 0003:000401dc       ??_C@_0CF@OBCIJMKB@Setting?5wNear?5to?50?40?5and?5wFar?5to@ 005a37dc     d3d8d:d3dbase.obj
 0003:00040208       ??_C@_0EC@GFJANJAL@Cannot?5compute?5WNear?5and?5WFar?5fr@ 005a3808     d3d8d:d3dbase.obj
 0003:00040258       ??_C@_0FA@EFJEAGBO@SetTransform?5called?5while?5Set?$FLVe@ 005a3858     d3d8d:d3dbase.obj
 0003:000402b8       ??_C@_0CL@DAIFBAMP@Invalid?5state?5value?5passed?5to?5Se@ 005a38b8     d3d8d:d3dbase.obj
 0003:000402ec       ??_C@_0DA@PNLHFJBO@Invalid?5state?5value?5passed?5to?5Mu@ 005a38ec     d3d8d:d3dbase.obj
 0003:00040328       ??_C@_0HB@CIGOLOME@Invalid?5effective?5clip?5dimension@ 005a3928     d3d8d:d3dbase.obj
 0003:000403b0       ??_C@_0CJ@GAOKIIGN@pDevice?9?$DOm_EnabledLights?$FLslot?$FN?5?$DN@ 005a39b0     d3d8d:d3dbase.obj
 0003:000403e4       ??_C@_0BO@BMCDLNNO@Light?5index?5is?5more?5than?54095?$AA@ 005a39e4     d3d8d:d3dbase.obj
 0003:00040408       ??_C@_0CH@DLPIAKHA@pDevice?9?$DOm_EnabledLights?$FLslot?$FN?5?$DN@ 005a3a08     d3d8d:d3dbase.obj
 0003:00040438       ??_C@_0CP@JANEOOMK@Can?8t?5enable?5more?5than?58?5lights?5@ 005a3a38     d3d8d:d3dbase.obj
 0003:00040470       ??_C@_0CK@IBGHACCA@D3DDevice_GetTexture?5?9?5Bad?5textu@ 005a3a70     d3d8d:d3dbase.obj
 0003:000404a4       ??_C@_0BC@CGILGCKN@pPrevious?5?$CB?$DN?5NULL?$AA@ 005a3aa4     d3d8d:d3dbase.obj
 0003:000404c0       ??_C@_0EF@LCCGGOGK@D3DDevice_SetTexture?5?9?5a?5non?9top@ 005a3ac0     d3d8d:d3dbase.obj
 0003:00040514       ??_C@_0CK@ONLEHGOD@D3DDevice_SetTexture?5?9?5Bad?5textu@ 005a3b14     d3d8d:d3dbase.obj
 0003:00040548       ??_C@_0EB@OGFFOHME@Cubemap?9ness?5and?5dimensionality?5@ 005a3b48     d3d8d:d3dbase.obj
 0003:00040598       ??_C@_0CP@HINPDHIC@Can?8t?5call?5SwitchTexture?5with?5a?5@ 005a3b98     d3d8d:d3dbase.obj
 0003:000405d0       ??_C@_0EK@LPAENDJC@Can?8t?5call?5SwitchTexture?5when?5pr@ 005a3bd0     d3d8d:d3dbase.obj
 0003:00040628       ??_C@_0BO@HMIMPPGP@Invalid?5texture?5unit?5encoding?$AA@ 005a3c28     d3d8d:d3dbase.obj
 0003:0004064c       ??_C@_0CK@LHBCGLCE@D3DDevice_GetPalette?5?9?5Bad?5textu@ 005a3c4c     d3d8d:d3dbase.obj
 0003:00040680       ??_C@_0BL@FJGAAONL@?$CIpPalette?9?$DOData?5?$CG?563?$CJ?5?$DN?$DN?50?$AA@ 005a3c80     d3d8d:d3dbase.obj
 0003:000406a0       ??_C@_0HO@MANHJAAC@contextAndLength?5?$DM?$DN?5?$CIDRF_DEF?$CI097@ 005a3ca0     d3d8d:d3dbase.obj
 0003:00040738       ??_C@_0BM@ODPAPOKG@?$CIcontextAndLength?5?$CG?52?$CJ?5?$DN?$DN?50?$AA@ 005a3d38     d3d8d:d3dbase.obj
 0003:0004075c       ??_C@_0BD@NICFPLMF@Bad?5texture?5stage?4?$AA@ 005a3d5c     d3d8d:d3dbase.obj
 0003:00040778       ??_C@_0EB@GJJGKIOO@Can?8t?5set?5non?9zero?5BaseVertexInd@ 005a3d78     d3d8d:d3dbase.obj
 0003:000407c8       ??_C@_0EB@HOKCBCEC@The?5previous?5visibility?5test?5for@ 005a3dc8     d3d8d:d3dbase.obj
 0003:00040818       ??_C@_0DA@KMEPJIEH@Possible?5deadlock?0?5blocked?5for?5m@ 005a3e18     d3d8d:d3dbase.obj
 0003:00040858       ??_C@_0EG@LBCLGGOC@Can?5call?5SetVertexBlendModelView@ 005a3e58     d3d8d:d3dbase.obj
 0003:000408ac       ??_C@_0DD@IFBPKNJE@SetModelView?5will?5nuke?5negative?5@ 005a3eac     d3d8d:d3dbase.obj
 0003:000408ec       ??_C@_0CF@FJMACPDA@All?5pointers?5must?5be?5NULL?5to?5dis@ 005a3eec     d3d8d:d3dbase.obj
 0003:00040918       ??_C@_0EF@HBNKGCJP@Can?5call?5SetVertexBlendModelView@ 005a3f18     d3d8d:d3dbase.obj
 0003:0004096c       ??_C@_0BD@LAPMJLFG@Count?5out?5of?5range?$AA@ 005a3f6c     d3d8d:d3dbase.obj
 0003:00040984       ??_C@_0DP@LFIOOEKG@SetVertexBlendModelViews?5will?5nu@ 005a3f84     d3d8d:d3dbase.obj
 0003:000409d0       ??_C@_0DF@COPGFAOJ@Z?5tag?5range?5overlaps?5with?5a?5tag?5@ 005a3fd0     d3d8d:d3dbase.obj
 0003:00040a10       ??_C@_0HN@FFFBHINJ@ZOffset?5can?5only?5be?5used?5for?5the@ 005a4010     d3d8d:d3dbase.obj
 0003:00040aa8       ??_C@_0DG@LEFBDLNA@ZOffset?5must?5be?5a?5multiple?5of?5D3@ 005a40a8     d3d8d:d3dbase.obj
 0003:00040ae8       ??_C@_0DA@LBLFIHDA@ZStart?5can?8t?5be?5D3DTILE_MAXTAGS?5@ 005a40e8     d3d8d:d3dbase.obj
 0003:00040b24       ??_C@_0CE@ENAMOHH@ZStartTag?5must?5be?5a?5multiple?5of?5@ 005a4124     d3d8d:d3dbase.obj
 0003:00040b50       ??_C@_0CM@BKBOFFID@Pitch?5must?5be?5a?5valid?5D3DTILE_PI@ 005a4150     d3d8d:d3dbase.obj
 0003:00040b84       ??_C@_0DD@BHFEPAKL@Size?5must?5be?5a?5multiple?5of?5D3DTI@ 005a4184     d3d8d:d3dbase.obj
 0003:00040bc4       ??_C@_0DG@HNJOMBKP@pMemory?5must?5be?5a?5multiple?5of?5D3@ 005a41c4     d3d8d:d3dbase.obj
 0003:00040c04       ??_C@_0CK@EPFNIFIO@Size?5can?8t?5be?5zero?5if?5pMemory?5is@ 005a4204     d3d8d:d3dbase.obj
 0003:00040c38       ??_C@_0O@IAEHGFJM@Invalid?5Flags?$AA@ 005a4238     d3d8d:d3dbase.obj
 0003:00040c48       ??_C@_0DN@HFKFEDMF@Tile?5already?5in?5use?5?9?5set?5to?5NUL@ 005a4248     d3d8d:d3dbase.obj
 0003:00040c94       ??_C@_0DB@LNJOFNJP@GPU?5should?5be?5idle?5for?5SetTileCo@ 005a4294     d3d8d:d3dbase.obj
 0003:00040cd0       ??_C@_0BP@FNJAKKCJ@Address?5?$CL?5Count?5must?5be?5?$DM?$DN?5600?$AA@ 005a42d0     d3d8d:d3dbase.obj
 0003:00040cf8       ??_C@_0BI@KLEIEAMC@Partition?5must?5be?50?5?9?53?$AA@ 005a42f8     d3d8d:d3dbase.obj
 0003:00040d14       ??_C@_0DB@DNFIJADJ@GPU?5should?5be?5idle?5for?5GetTileCo@ 005a4314     d3d8d:d3dbase.obj
 0003:00040d50       ??_C@_0CH@NCBAEHEI@ZEndTag?5must?5be?5greater?5than?5ZSt@ 005a4350     d3d8d:d3dbase.obj
 0003:00040d80       ??_C@_0DG@MIPMPPHJ@ZEndTag?5can?8t?5be?5greater?5than?5D3@ 005a4380     d3d8d:d3dbase.obj
 0003:00040dc0       ??_C@_0CC@OBKGFBDB@ZEndTag?5must?5be?5a?5multiple?5of?525@ 005a43c0     d3d8d:d3dbase.obj
 0003:00040de8       ??_C@_0FD@PADENIAL@?$CIx?5?$CL?5width?5?$DM?$DN?5pDevice?9?$DOm_Surface@ 005a43e8     d3d8d:d3dbase.obj
 0003:00040e4c       ??_C@_0DI@CPCPFFPC@SetScissors?5rectangle?5dimension?5@ 005a444c     d3d8d:d3dbase.obj
 0003:00040e90       ??_C@_0CJ@FCJJNMJM@pRects?5can?5be?5NULL?5only?5if?5Count@ 005a4490     d3d8d:d3dbase.obj
 0003:00040ec4       ??_C@_0BI@LEDFOGCN@Invalid?5Exclusive?5value?$AA@ 005a44c4     d3d8d:d3dbase.obj
 0003:00040ee0       ??_C@_0CN@CMHODFHI@Count?5can?8t?5be?5more?5than?5D3DSCIS@ 005a44e0     d3d8d:d3dbase.obj
 0003:00040f18       ?g_AntiAliasedTextureStates@D3D@@3QBKB 005a4518     d3d8d:present.obj
 0003:00040f88       ?g_AntiAliasedRenderStates@D3D@@3QBKB 005a4588     d3d8d:present.obj
 0003:00041048       ?g_PassthruProgramPositionAndTexture@D3D@@3QBKB 005a4648     d3d8d:present.obj
 0003:00041070       ??_C@_0EI@DOHHNPGF@?$CB?$CIAddress?5?$CG?5?$CIFLIP_DATA_OR_IMMEDI@ 005a4670     d3d8d:present.obj
 0003:000410c8       ??_C@_0BG@JGMBNEJP@State?5?$DO?$DN?5D3DRS_PS_MAX?$AA@ 005a46c8     d3d8d:present.obj
 0003:000410e8       ??_C@_0GA@FHOAJEOO@Gaussian?5filter?5is?5nonsensical?5u@ 005a46e8     d3d8d:present.obj
 0003:00041160       ??_C@_0GA@CCHLALJJ@Quincunx?5filter?5is?5nonsensical?5u@ 005a4760     d3d8d:present.obj
 0003:000411d4       ??_C@_0CO@PBJBCKMF@Can?8t?5call?5Swap?5while?5recording?5@ 005a47d4     d3d8d:present.obj
 0003:0004120c       ??_C@_0N@CKMPFIBH@Invalid?5flag?$AA@ 005a480c     d3d8d:present.obj
 0003:0004121c       ??_C@_0DH@NBPKOOMF@D3DSWAP_FINISH?5without?5a?5D3DSWAP@ 005a481c     d3d8d:present.obj
 0003:00041260       ??_C@_0DL@NCDFJANP@D3DSWAP_COPY?1BYPASSCOPY?5before?5a@ 005a4860     d3d8d:present.obj
 0003:000412a8       ??_C@_0DP@LNNLEIKO@Scale?5causes?5rendering?5to?5exceed@ 005a48a8     d3d8d:present.obj
 0003:000412f4       ??_C@_0BE@HGKHLCPN@Invalid?5scale?5value?$AA@ 005a48f4     d3d8d:present.obj
 0003:0004130c       ??_C@_0BI@GIBIFBKD@Unexpected?5texture?5type?$AA@ 005a490c     d3d8d:texture.obj
 0003:00041328       ??_C@_0DD@KBIOPGPB@D3DTexture_GetSurfaceLevel?5?9?5inv@ 005a4928     d3d8d:texture.obj
 0003:00041368       ??_C@_0DI@NJCBJCLN@D3DVolumeTexture_GetVolumeLevel?5@ 005a4968     d3d8d:texture.obj
 0003:000413ac       ?g_PaletteSize@D3D@@3QBHB  005a49ac     d3d8d:buffer.obj
 0003:000413c0       ??_C@_0DD@NBAEBKBF@Size?5must?5be?5D3DPALETTESIZE_32?0?5@ 005a49c0     d3d8d:buffer.obj
 0003:00041400       ??_C@_0CP@JHBOLDDM@D3DDevice_Clear?5?9?5Unknown?5depth?5@ 005a4a00     d3d8d:clear.obj
 0003:00041438       ??_C@_0EJ@FPIELBOB@D3DFMT_LIN_L8?5and?5D3DFMT_LIN_G8B@ 005a4a38     d3d8d:clear.obj
 0003:00041490       ??_C@_0GG@ECDGCNLG@Swizzled?5render?5targets?5can?5only@ 005a4a90     d3d8d:clear.obj
 0003:0004150c       ??_C@_0DP@BELDGAFH@Swizzled?5render?5targets?5can?5only@ 005a4b0c     d3d8d:clear.obj
 0003:00041558       ??_C@_0GP@JHIABBNO@D3DCLEAR_ZBUFFER?5for?532?9bit?5dept@ 005a4b58     d3d8d:clear.obj
 0003:000415e0       ??_C@_0BF@CCBELMKI@Invalid?5Z?5fill?5value?$AA@ 005a4be0     d3d8d:clear.obj
 0003:000415fc       ??_C@_0BL@HEFICIED@Invalid?5stencil?5fill?5value?$AA@ 005a4bfc     d3d8d:clear.obj
 0003:0004161c       ??_C@_0BO@CICDDOP@Invalid?5flags?5passed?5to?5Clear?$AA@ 005a4c1c     d3d8d:clear.obj
 0003:00041640       ?g_LODBias2x@D3D@@3QBMB    005a4c40     d3d8d:state.obj
 0003:00041668       ?g_RenderStateEncodings@D3D@@3QBKB 005a4c68     d3d8d:state.obj
 0003:000419e0       ?g_ComplexRenderStateFunctionTable@D3D@@3QBQ6GXK@ZB 005a4fe0     d3d8d:state.obj
 0003:00041a74       ??_C@_0DN@OKDDNEBN@g_RenderStateEncodings?$FL2?$CKi?$FN?5?$DN?$DN?5D@ 005a5074     d3d8d:state.obj
 0003:00041ac0       ??_C@_0CF@NPJMGKHL@g_RenderStateEncodings?$FL2?$CKi?5?$CL?51?$FN?5@ 005a50c0     d3d8d:state.obj
 0003:00041aec       ??_C@_0BB@HKLFMIML@Invalid?5encoding?$AA@ 005a50ec     d3d8d:state.obj
 0003:00041b00       ??_C@_0CE@EGDDNIDP@Invalid?5flags?5in?5GetDepthClipPla@ 005a5100     d3d8d:state.obj
 0003:00041b2c       ??_C@_0DM@KILGBJGB@?$CISTATE_DXTNOISEENABLE?5?$DN?$DN?5TRUE?$CJ?5?$CG@ 005a512c     d3d8d:state.obj
 0003:00041b74       ??_C@_0N@BKKEHPBJ@PSDotMapping?$AA@ 005a5174     d3d8d:state.obj
 0003:00041b84       ??_C@_0O@EGJJCFIM@PSCompareMode?$AA@ 005a5184     d3d8d:state.obj
 0003:00041b94       ??_C@_0BA@HDBNOFKC@PSCombinerCount?$AA@ 005a5194     d3d8d:state.obj
 0003:00041ba8       ??_C@_0P@LFHGHIGA@PSInputTexture?$AA@ 005a51a8     d3d8d:state.obj
 0003:00041bbc       ??_C@_0P@OEHPOPHG@PSTextureModes?$AA@ 005a51bc     d3d8d:state.obj
 0003:00041bd0       ??_C@_0BJ@NDANDFLP@PSFinalCombinerInputsEFG?$AA@ 005a51d0     d3d8d:state.obj
 0003:00041bf0       ??_C@_0EO@NDFLPMKH@Can?8t?5set?5final?5combiner?5render?5@ 005a51f0     d3d8d:state.obj
 0003:00041c50       ??_C@_0BK@LCPDLAGC@PSFinalCombinerInputsABCD?$AA@ 005a5250     d3d8d:state.obj
 0003:00041c70       ??_C@_0O@ONDCINOK@PSRGBOutputs7?$AA@ 005a5270     d3d8d:state.obj
 0003:00041c80       ??_C@_0O@PECJLMKL@PSRGBOutputs6?$AA@ 005a5280     d3d8d:state.obj
 0003:00041c90       ??_C@_0O@NPAEOPGI@PSRGBOutputs5?$AA@ 005a5290     d3d8d:state.obj
 0003:00041ca0       ??_C@_0O@MGBPNOCJ@PSRGBOutputs4?$AA@ 005a52a0     d3d8d:state.obj
 0003:00041cb0       ??_C@_0O@IJFOEIOO@PSRGBOutputs3?$AA@ 005a52b0     d3d8d:state.obj
 0003:00041cc0       ??_C@_0O@JAEFHJKP@PSRGBOutputs2?$AA@ 005a52c0     d3d8d:state.obj
 0003:00041cd0       ??_C@_0O@LLGICKGM@PSRGBOutputs1?$AA@ 005a52d0     d3d8d:state.obj
 0003:00041ce0       ??_C@_0O@KCHDBLCN@PSRGBOutputs0?$AA@ 005a52e0     d3d8d:state.obj
 0003:00041cf0       ??_C@_0BA@BJDPJKPC@PSAlphaOutputs7?$AA@ 005a52f0     d3d8d:state.obj
 0003:00041d04       ??_C@_0BA@CEKLLD@PSAlphaOutputs6?$AA@ 005a5304     d3d8d:state.obj
 0003:00041d18       ??_C@_0BA@CLAJPIHA@PSAlphaOutputs5?$AA@ 005a5318     d3d8d:state.obj
 0003:00041d2c       ??_C@_0BA@DCBCMJDB@PSAlphaOutputs4?$AA@ 005a532c     d3d8d:state.obj
 0003:00041d40       ??_C@_0BA@HNFDFPPG@PSAlphaOutputs3?$AA@ 005a5340     d3d8d:state.obj
 0003:00041d54       ??_C@_0BA@GEEIGOLH@PSAlphaOutputs2?$AA@ 005a5354     d3d8d:state.obj
 0003:00041d68       ??_C@_0BA@EPGFDNHE@PSAlphaOutputs1?$AA@ 005a5368     d3d8d:state.obj
 0003:00041d7c       ??_C@_0BA@FGHOAMDF@PSAlphaOutputs0?$AA@ 005a537c     d3d8d:state.obj
 0003:00041d90       ??_C@_0N@OLJCJILL@PSRGBInputs7?$AA@ 005a5390     d3d8d:state.obj
 0003:00041da0       ??_C@_0N@PCIJKJPK@PSRGBInputs6?$AA@ 005a53a0     d3d8d:state.obj
 0003:00041db0       ??_C@_0N@NJKEPKDJ@PSRGBInputs5?$AA@ 005a53b0     d3d8d:state.obj
 0003:00041dc0       ??_C@_0N@MALPMLHI@PSRGBInputs4?$AA@ 005a53c0     d3d8d:state.obj
 0003:00041dd0       ??_C@_0N@IPPOFNLP@PSRGBInputs3?$AA@ 005a53d0     d3d8d:state.obj
 0003:00041de0       ??_C@_0N@JGOFGMPO@PSRGBInputs2?$AA@ 005a53e0     d3d8d:state.obj
 0003:00041df0       ??_C@_0N@LNMIDPDN@PSRGBInputs1?$AA@ 005a53f0     d3d8d:state.obj
 0003:00041e00       ??_C@_0N@KENDAOHM@PSRGBInputs0?$AA@ 005a5400     d3d8d:state.obj
 0003:00041e10       ??_C@_0P@DCDANBKN@PSAlphaInputs7?$AA@ 005a5410     d3d8d:state.obj
 0003:00041e24       ??_C@_0P@CLCLOAOM@PSAlphaInputs6?$AA@ 005a5424     d3d8d:state.obj
 0003:00041e38       ??_C@_0P@GLDCP@PSAlphaInputs5?$AA@ 005a5438     d3d8d:state.obj
 0003:00041e4c       ??_C@_0P@BJBNICGO@PSAlphaInputs4?$AA@ 005a544c     d3d8d:state.obj
 0003:00041e60       ??_C@_0P@FGFMBEKJ@PSAlphaInputs3?$AA@ 005a5460     d3d8d:state.obj
 0003:00041e74       ??_C@_0P@EPEHCFOI@PSAlphaInputs2?$AA@ 005a5474     d3d8d:state.obj
 0003:00041e88       ??_C@_0P@GEGKHGCL@PSAlphaInputs1?$AA@ 005a5488     d3d8d:state.obj
 0003:00041e9c       ??_C@_0P@HNHBEHGK@PSAlphaInputs0?$AA@ 005a549c     d3d8d:state.obj
 0003:00041eb0       ??_C@_0BF@IOJALANB@Invalid?5D3DMCS?5value?$AA@ 005a54b0     d3d8d:state.obj
 0003:00041ecc       ??_C@_0BD@BCLHIBIA@Invalid?5WRAP?5value?$AA@ 005a54cc     d3d8d:state.obj
 0003:00041ee4       ??_C@_0P@PMOIKDMN@Invalid?5value?4?$AA@ 005a54e4     d3d8d:state.obj
 0003:00041ef8       ??_C@_0CB@IPLPLLMN@Invalid?5D3DMULTISAMPLEMODE?5value@ 005a54f8     d3d8d:state.obj
 0003:00041f20       ??_C@_0CE@OJGBOCIC@Invalid?5presentation?5interval?5va@ 005a5520     d3d8d:state.obj
 0003:00041f4c       ??_C@_0O@INPNLMJE@Invalid?5value?$AA@ 005a554c     d3d8d:state.obj
 0003:00041f5c       ??_C@_0BD@PIGPNLGN@Unexpected?5texgen?6?$AA@ 005a555c     d3d8d:state.obj
 0003:00041f74       ??_C@_0CN@NEALJFCJ@Index?5can?8t?5be?5D3DDP_MAXTEXCOORD@ 005a5574     d3d8d:state.obj
 0003:00041fb0       ??_C@_0EB@HBAJGNMD@?$CIType?5?$DO?$DN?5D3DTSS_BUMPENVMAT00?$CJ?5?$CG?$CG@ 005a55b0     d3d8d:state.obj
 0003:00042000       ??_C@_0P@GPOPBBKB@Invalid?5texgen?$AA@ 005a5600     d3d8d:state.obj
 0003:00042014       ??_C@_0CE@KBJDPFGK@Texture?5coordinate?5index?5is?5too?5@ 005a5614     d3d8d:state.obj
 0003:00042040       ??_C@_0CA@KDDICLNA@Invalid?5D3DTSS_ALPHAKILL?5value?4?$AA@ 005a5640     d3d8d:state.obj
 0003:00042068       ??_C@_0CA@OPFJBBOJ@Invalid?5D3DTSS_COLORSIGN?5value?4?$AA@ 005a5668     d3d8d:state.obj
 0003:00042090       ??_C@_0CB@BGFJPOGD@Invalid?5D3DTSS_COLORKEYOP?5value?4@ 005a5690     d3d8d:state.obj
 0003:000420b8       ??_C@_0DA@GABIGGMI@Invalid?5flags?5for?5D3DTSS_TEXTURE@ 005a56b8     d3d8d:state.obj
 0003:000420f4       ??_C@_0DL@CGGCGIGE@Invalid?5coordinate?5count?5for?5D3D@ 005a56f4     d3d8d:state.obj
 0003:0004213c       ??_C@_0CB@HBKCELHB@Must?5be?5in?5the?5range?5?$FL?98?40?0?58?40?$FN@ 005a573c     d3d8d:state.obj
 0003:00042164       ??_C@_0BL@PMMMPNOA@Maximum?5MAXANISOTROPY?5is?54?$AA@ 005a5764     d3d8d:state.obj
 0003:00042184       ??_C@_0CA@FEAMMKBA@Invalid?5D3DTSS_MIPFILTER?5value?4?$AA@ 005a5784     d3d8d:state.obj
 0003:000421ac       ??_C@_0DB@CLPLJBIN@Invalid?5D3DTSS_MAGFILTER?1D3DTSS_@ 005a57ac     d3d8d:state.obj
 0003:000421e8       ??_C@_0CC@GMKHPODH@Invalid?5value?5for?5D3DTSS_ADRESSx@ 005a57e8     d3d8d:state.obj
 0003:00042210       ??_C@_0DI@BMLLJIFL@Invalid?5modifier?5for?5D3DTSS_COLO@ 005a5810     d3d8d:state.obj
 0003:00042254       ??_C@_0DO@JKHECHEN@Invalid?5value?5selector?5for?5D3DTS@ 005a5854     d3d8d:state.obj
 0003:000422a0       ??_C@_0CJ@KLHFEHCL@Invalid?5value?5for?5D3DTSS_COLOROP@ 005a58a0     d3d8d:state.obj
 0003:000422d8       ??_C@_0GF@PFMMBFKA@?$CIValue?5?$DM?5D3DTOP_BUMPENVMAP?$CJ?5?$HM?$HM?5?$CI@ 005a58d8     d3d8d:state.obj
 0003:00042358       ??_C@_0FA@BJGDLMCH@?$CIsetSurfaceFormat?5?$CG?5DRF_NUM?$CI097?0@ 005a5958     d3d8d:state.obj
 0003:000423b8       ??_C@_0CE@LMBJOONH@Invalid?5flags?5in?5SetDepthClipPla@ 005a59b8     d3d8d:state.obj
 0003:000423e4       ??_C@_0BF@JMIIBPPG@?$CB?$CI?$CIcount?5?9?515?$CJ?5?$CF?516?$CJ?$AA@ 005a59e4     d3d8d:drawprim.obj
 0003:00042400       ??_C@_0BB@NKMDADPJ@count?5?$DO?$DN?515?5?$CL?516?$AA@ 005a5a00     d3d8d:drawprim.obj
 0003:00042414       ??_C@_0CI@OOIBOIP@?$CB?$CIm_StateFlags?5?$CG?5STATE_BEGINENDB@ 005a5a14     d3d8d:drawprim.obj
 0003:00042444       ??_C@_0CH@GLFHGJNH@?$CB?$CIstateFlags?5?$CG?5STATE_RECORDPUSHB@ 005a5a44     d3d8d:drawprim.obj
 0003:00042474       ??_C@_0CF@PLJGOBKI@m_StateFlags?5?$CG?5STATE_BEGINENDBRA@ 005a5a74     d3d8d:drawprim.obj
 0003:000424a0       ??_C@_0IC@BPLOBEMA@Vertex?5or?5index?5data?5for?5this?5ca@ 005a5aa0     d3d8d:drawprim.obj
 0003:0004253c       ??_C@_0BK@BBDNHEJI@?$CIcount?$CJ?5?$CG?$CG?5?$CIcount?5?$DM?52048?$CJ?$AA@ 005a5b3c     d3d8d:drawprim.obj
 0003:0004255c       ??_C@_0DD@EEGLELPJ@DWORD?5alignment?5is?5required?5for?5@ 005a5b5c     d3d8d:drawprim.obj
 0003:0004259c       ??_C@_0DD@BBBPALEC@DWORD?5alignment?5is?5required?5for?5@ 005a5b9c     d3d8d:drawprim.obj
 0003:000425dc       ??_C@_0N@KGACPIIJ@NULL?5pointer?$AA@ 005a5bdc     d3d8d:drawprim.obj
 0003:000425ec       ??_C@_0P@CKJLCCHP@Invalid?5stride?$AA@ 005a5bec     d3d8d:drawprim.obj
 0003:00042600       ??_C@_0BH@HJMOEJID@Invalid?5primitive?5type?$AA@ 005a5c00     d3d8d:drawprim.obj
 0003:0004261c       ??_C@_0BB@OHDBMGEF@Zero?5VertexCount?$AA@ 005a5c1c     d3d8d:drawprim.obj
 0003:00042630       ??_C@_0EH@HLODDIAD@W?5buffering?5is?5not?5supported?5wit@ 005a5c30     d3d8d:drawprim.obj
 0003:00042688       ??_C@_0DH@MKEBHOIH@Can?5only?5do?5D3DPT_POINTLIST?5when@ 005a5c88     d3d8d:drawprim.obj
 0003:000426cc       ??_C@_0BB@BJHAFOLB@VertexCount?5?$DO?$DN?51?$AA@ 005a5ccc     d3d8d:drawprim.obj
 0003:000426e0       ??_C@_0BF@KHOMBPMK@drawArraysCount?5?$DN?$DN?51?$AA@ 005a5ce0     d3d8d:drawprim.obj
 0003:000426fc       ??_C@_0BG@OKBIBJIA@drawArraysCount?9?9?5?$DO?51?$AA@ 005a5cfc     d3d8d:drawprim.obj
 0003:00042718       ??_C@_0CO@KPHFOJKI@Hardware?5can?8t?5take?5more?5than?50x@ 005a5d18     d3d8d:drawprim.obj
 0003:00042750       ??_C@_0DD@ELEHDKFA@Hardware?5can?8t?5take?5a?5StartVerte@ 005a5d50     d3d8d:drawprim.obj
 0003:00042790       ??_C@_0BH@MECBGGGC@?$CIINT?$CJ?5VertexCount?5?$DO?$DN?50?$AA@ 005a5d90     d3d8d:drawprim.obj
 0003:000427ac       ??_C@_0BH@CLJFFACA@?$CB?$CI?$CIDWORD?$CJpPush?5?$CG?50x1f?$CJ?$AA@ 005a5dac     d3d8d:drawprim.obj
 0003:000427c8       ??_C@_0N@IKBPHMOD@dwAlign?5?$DM?$DN?57?$AA@ 005a5dc8     d3d8d:drawprim.obj
 0003:000427d8       ??_C@_0BO@JEFJMFAA@Pointer?5to?5index?5data?5is?5NULL?$AA@ 005a5dd8     d3d8d:drawprim.obj
 0003:000427fc       ??_C@_0BE@FAAHPGOP@Invalid?5VertexCount?$AA@ 005a5dfc     d3d8d:drawprim.obj
 0003:00042814       ??_C@_0BC@HLOHPCGA@Goofy?5VertexCount?$AA@ 005a5e14     d3d8d:drawprim.obj
 0003:0004282c       ??_C@_0BB@IGDLPBAO@Invalid?5register?$AA@ 005a5e2c     d3d8d:drawprim.obj
 0003:00042840       ??_C@_0DF@NMJMKCMN@D3DVSDE_VERTEX?5specified?5outside@ 005a5e40     d3d8d:drawprim.obj
 0003:00042880       ??_C@_0CA@PJPFLDGC@g_pD3DPerfEventBeginEnd?5?$DN?$DN?5NULL?$AA@ 005a5e80     d3d8d:drawprim.obj
 0003:000428a8       ??_C@_0EA@IMKPILCF@D3DDevice_Begin?5?9?5Begin?5before?5a@ 005a5ea8     d3d8d:drawprim.obj
 0003:000428f4       ??_C@_0CO@CAGFJJPP@D3DDevice_End?5?9?5End?5without?5a?5ma@ 005a5ef4     d3d8d:drawprim.obj
 0003:0004292c       ?g_TextureFormatMask@D3D@@3QBKB 005a5f2c     d3d8d:vshader.obj
 0003:00042958       ?g_BytesPerUnit@D3D@@3QBEB 005a5f58     d3d8d:vshader.obj
 0003:00042960       ?g_UnitsOfElement@D3D@@3QBEB 005a5f60     d3d8d:vshader.obj
 0003:00042970       ?g_IdentityMatrix@D3D@@3U_D3DMATRIX@@B 005a5f70     d3d8d:vshader.obj
 0003:000429bc       ?g_FixedFunctionPipelineConstants@D3D@@3QBKB 005a5fbc     d3d8d:vshader.obj
 0003:000429f8       ?g_PassthruProgramWFog@D3D@@3QBKB 005a5ff8     d3d8d:vshader.obj
 0003:00042ae0       ?g_PassthruProgramZFog@D3D@@3QBKB 005a60e0     d3d8d:vshader.obj
 0003:00042bb8       ?g_PassthruProgramSpecularFog@D3D@@3QBKB 005a61b8     d3d8d:vshader.obj
 0003:00042ca0       ?g_TextureCount@D3D@@3QBKB 005a62a0     d3d8d:vshader.obj
 0003:00042cb4       ??_C@_0CB@PHKFKCND@numTextures?5?$DM?$DN?5D3DDP_MAXTEXCOORD@ 005a62b4     d3d8d:vshader.obj
 0003:00042cdc       ??_C@_0N@FCEFPFAH@weights?5?$DN?$DN?54?$AA@ 005a62dc     d3d8d:vshader.obj
 0003:00042cec       ??_C@_0N@CPDCABEC@weights?5?$DN?$DN?51?$AA@ 005a62ec     d3d8d:vshader.obj
 0003:00042cfc       ??_C@_0DE@LLNGCEJM@Normal?5should?5not?5be?5used?5with?5X@ 005a62fc     d3d8d:vshader.obj
 0003:00042d3c       ??_C@_0CA@HEHFEDOA@FVF?5has?5incorrect?5position?5type?$AA@ 005a633c     d3d8d:vshader.obj
 0003:00042d64       ??_C@_0BM@HLFOOGLF@FVF?5has?5reserved?5bit?$CIs?$CJ?5set?$AA@ 005a6364     d3d8d:vshader.obj
 0003:00042d88       ??_C@_0CB@ONIBJMIK@FVF?5has?5incorrect?5texture?5format@ 005a6388     d3d8d:vshader.obj
 0003:00042db0       ??_C@_0GH@DMPFOLNB@pProgramAndConstants?5?$DN?$DN?5?$CGpVertex@ 005a63b0     d3d8d:vshader.obj
 0003:00042e30       ??_C@_0FH@HAGKBBAG@?$CImethodEncode?5?$CG?50xffff?$CJ?5?$DN?$DN?5PUSHE@ 005a6430     d3d8d:vshader.obj
 0003:00042e98       ??_C@_0EI@MFMJIECF@pConstants?5?$CL?5count?5?$DM?$DN?5?$CGg_VertexS@ 005a6498     d3d8d:vshader.obj
 0003:00042ef0       ??_C@_0DI@CJLMMLLK@?$CI?$CIcount?5?$CG?53?$CJ?5?$DN?$DN?50?$CJ?5?$CG?$CG?5?$CIcount?5?$DM?5V@ 005a64f0     d3d8d:vshader.obj
 0003:00042f38       ??_C@_0FJ@OJFNNPBJ@?$CImethodEncode?5?$CG?50xffff?$CJ?5?$DN?$DN?5PUSHE@ 005a6538     d3d8d:vshader.obj
 0003:00042fa4       ??_C@_0CE@FJEIAEBF@constantSlot?5?$DM?5VSHADER_CONSTANT_@ 005a65a4     d3d8d:vshader.obj
 0003:00042fd0       ??_C@_0FB@PAHPDFFM@pSlots?5?$CL?5count?5?$DM?$DN?5?$CGpDevice?9?$DOm_Ve@ 005a65d0     d3d8d:vshader.obj
 0003:00043038       ??_C@_0EI@FMNNPLNH@?$CI?$CIcount?5?$CG?53?$CJ?5?$DN?$DN?50?$CJ?5?$CG?$CG?5?$CIcount?5?$CB?$DN?5@ 005a6638     d3d8d:vshader.obj
 0003:00043090       ??_C@_0L@EJHHCBB@count?5?$CB?$DN?50?$AA@ 005a6690     d3d8d:vshader.obj
 0003:000430a0       ??_C@_0N@HHPCKPHG@Null?5pointer?$AA@ 005a66a0     d3d8d:vshader.obj
 0003:000430b0       ??_C@_0CD@KIEPPLFL@Bad?5declaration?5CONST?5token?3?50x?$CF@ 005a66b0     d3d8d:vshader.obj
 0003:000430dc       ??_C@_0BC@DBCPLAKL@Token?5type?3?50x?$CFlx?$AA@ 005a66dc     d3d8d:vshader.obj
 0003:000430f4       ??_C@_0BE@OAECGIIC@Unidentified?5token?6?$AA@ 005a66f4     d3d8d:vshader.obj
 0003:0004310c       ??_C@_0CE@FNKMGIDM@Bad?5declaration?5STREAM?5token?3?50x@ 005a670c     d3d8d:vshader.obj
 0003:00043138       ??_C@_0DH@MCDIFIFP@?$CIpVertexShader?9?$DODimensionality?5?$CG@ 005a6738     d3d8d:vshader.obj
 0003:0004317c       ??_C@_0BG@KOHIBHKI@Invalid?5type?5encoding?$AA@ 005a677c     d3d8d:vshader.obj
 0003:00043198       ??_C@_0CG@JMCLAKEG@Can?8t?5specify?5a?5register?5more?5th@ 005a6798     d3d8d:vshader.obj
 0003:000431c8       ??_C@_0CB@DFIPDGBF@Bad?5declaration?5REG?5token?3?50x?$CFlx@ 005a67c8     d3d8d:vshader.obj
 0003:000431f0       ??_C@_0CC@LNPPHCBF@Bad?5declaration?5SKIP?5token?3?50x?$CFl@ 005a67f0     d3d8d:vshader.obj
 0003:00043218       ??_C@_0DA@GDJBAAFE@?$CIpPush?5?$DN?$DN?5NULL?$CJ?5?$HM?$HM?5?$CIpPush?5?$DN?$DN?5pPu@ 005a6818     d3d8d:vshader.obj
 0003:00043258       ??_C@_0JC@OOMFPJIF@Address?5range?5can?8t?5include?5rese@ 005a6858     d3d8d:vshader.obj
 0003:00043308       ??_C@_0EO@EMIEAOLH@Invalid?5constant?5address?5range?5?$CI@ 005a6908     d3d8d:vshader.obj
 0003:00043368       ??_C@_0DA@JCJBFNBM@Invalid?5declaration?5token?5?$CImissi@ 005a6968     d3d8d:vshader.obj
 0003:000433a4       ??_C@_0CC@PHDPLKOD@programSize?5?$DN?$DN?54?5?$CK?5functionDword@ 005a69a4     d3d8d:vshader.obj
 0003:000433d0       ??_C@_0IO@KIBHLFN@?$CIUsage?5?$CG?5?$HO?$CID3DUSAGE_PERSISTENTDI@ 005a69d0     d3d8d:vshader.obj
 0003:0004347c       ??_C@_0DH@DFGOMKPH@Declaration?5pointer?5can?5be?5NULL?5@ 005a6a7c     d3d8d:vshader.obj
 0003:000434c0       ??_C@_0DD@DAPPAEGJ@State?5shaders?5must?5pass?5a?5NULL?5d@ 005a6ac0     d3d8d:vshader.obj
 0003:00043500       ??_C@_0GO@LDJNALAE@?$CIPerhaps?5you?8re?5calling?5with?5a?5D@ 005a6b00     d3d8d:vshader.obj
 0003:00043588       ??_C@_0FI@JGHLGLIO@Invalid?5function?5header?4?5?5Only?5v@ 005a6b88     d3d8d:vshader.obj
 0003:000435f4       ??_C@_0BD@DGPMADLF@Invalid?5usage?5flag?$AA@ 005a6bf4     d3d8d:vshader.obj
 0003:00043610       ??_C@_0HL@EFPAOGAJ@Address?5range?5can?8t?5include?5rese@ 005a6c10     d3d8d:vshader.obj
 0003:000436a4       ??_C@_0DK@NIGMDLDI@Negative?5addresses?5allowed?5only?5@ 005a6ca4     d3d8d:vshader.obj
 0003:000436ec       ??_C@_0CP@DDKHGFOM@Invalid?5address?5range?5?$CInot?5betwe@ 005a6cec     d3d8d:vshader.obj
 0003:00043724       ??_C@_0O@PGNOGEJ@Invalid?5count?$AA@ 005a6d24     d3d8d:vshader.obj
 0003:00043734       ??_C@_0BD@EIMPNJEF@Invalid?5DwordCount?$AA@ 005a6d34     d3d8d:vshader.obj
 0003:0004374c       ??_C@_0DD@KCHMLDEN@Can?8t?5query?5the?5constant?5registe@ 005a6d4c     d3d8d:vshader.obj
 0003:0004378c       ??_C@_0DB@KLAPEIPA@Register?5range?5can?8t?5include?5res@ 005a6d8c     d3d8d:vshader.obj
 0003:000437c8       ??_C@_0DK@GECDPLJI@Negative?5registers?5allowed?5only?5@ 005a6dc8     d3d8d:vshader.obj
 0003:00043810       ??_C@_0O@KDMHEBBH@Invalid?5range?$AA@ 005a6e10     d3d8d:vshader.obj
 0003:00043820       ??_C@_0FE@KNNKKMFN@Invalid?5Format?5in?5D3DVERTEXATTRI@ 005a6e20     d3d8d:vshader.obj
 0003:00043888       ??_C@_0EB@EKLHDNGO@Invalid?5Format?5in?5Input?5?$CFd?5of?5D3@ 005a6e88     d3d8d:vshader.obj
 0003:000438d8       ??_C@_0EO@CIKACGPM@SetStreamSource?5called?5while?5Set@ 005a6ed8     d3d8d:vshader.obj
 0003:00043938       ??_C@_0CE@MCLKFCJM@NV2A?5allows?5a?5maximum?5stride?5of?5@ 005a6f38     d3d8d:vshader.obj
 0003:00043964       ??_C@_0BG@LEHOPBGI@Invalid?5stream?5number?$AA@ 005a6f64     d3d8d:vshader.obj
 0003:00043980       ??_C@_0DJ@HPPHDDEA@Can?8t?5run?5a?5vertex?5state?5shader?5@ 005a6f80     d3d8d:vshader.obj
 0003:000439c4       ??_C@_0CH@DNOOKINJ@Start?5address?5can?8t?5be?5larger?5th@ 005a6fc4     d3d8d:vshader.obj
 0003:000439f4       ??_C@_0CJ@EOAFAIGL@Must?5have?5a?5vertex?5state?5shader?5@ 005a6ff4     d3d8d:vshader.obj
 0003:00043a28       ??_C@_0BM@CJBEKNPP@End?5address?5larger?5than?5136?$AA@ 005a7028     d3d8d:vshader.obj
 0003:00043a4c       ??_C@_0DA@MIGHDFNI@Invalid?5vertex?5shader?5object?5?$CIal@ 005a704c     d3d8d:vshader.obj
 0003:00043a88       ??_C@_0CM@CPLOHJLO@Must?5be?5a?5vertex?5shader?5program?0@ 005a7088     d3d8d:vshader.obj
 0003:00043abc       ??_C@_0DK@HJCMJNDM@Length?5specified?5in?5second?5WORD?5@ 005a70bc     d3d8d:vshader.obj
 0003:00043b08       ??_C@_0GA@LBFOINDB@Must?5be?5a?5programmable?5vertex?5sh@ 005a7108     d3d8d:vshader.obj
 0003:00043b80       ??_C@_0GB@FJIKHMOG@Shader?5handle?5required?5in?5Select@ 005a7180     d3d8d:vshader.obj
 0003:00043bf4       ??_C@_0DM@FGHGHHPJ@Can?8t?5select?5a?5vertex?5state?5shad@ 005a71f4     d3d8d:vshader.obj
 0003:00043c3c       ??_C@_0DG@DJBLHFNA@Can?8t?5set?5constant?5mode?5while?5re@ 005a723c     d3d8d:vshader.obj
 0003:00043c7c       ??_C@_0N@HLFHGGIB@Invalid?5mode?$AA@ 005a727c     d3d8d:vshader.obj
 0003:00043c8c       ??_C@_0DF@LMNBJDJK@Can?8t?5delete?5a?5vertex?5shader?5tha@ 005a728c     d3d8d:vshader.obj
 0003:00043ccc       ??_C@_0CD@GIAJNKCK@Invalid?5vertex?5shader?5handle?5val@ 005a72cc     d3d8d:vshader.obj
 0003:00043cf8       ??_C@_0CP@BMDPEPJ@?$CB?$CIpVertexShader?9?$DOFlags?5?$CG?5VERTEXS@ 005a72f8     d3d8d:vshader.obj
 0003:00043d30       ??_C@_0EE@LKMGIIIE@Can?8t?5use?5fixed?5function?5pipelin@ 005a7330     d3d8d:vshader.obj
 0003:00043d88       ??_C@_0EO@CAKHIOOL@SetVertexShader?5called?5while?5Set@ 005a7388     d3d8d:vshader.obj
 0003:00043de8       ??_C@_0BA@KIDBJOKH@slotCount?5?$DM?$DN?515?$AA@ 005a73e8     d3d8d:vshader.obj
 0003:00043dfc       ??_C@_0BL@BLBIAJE@currentEndOffset?5?$CB?$DN?5offset?$AA@ 005a73fc     d3d8d:vshader.obj
 0003:00043e1c       ??_C@_0BO@LNLCEMLH@Can?8t?5have?5a?5NULL?5pSizeOfData?$AA@ 005a741c     d3d8d:vshader.obj
 0003:00043e40       ??_C@_0CL@LIKPONOL@?$CIDWORD?$CJ?5pDst?5?9?5?$CIDWORD?$CJ?5pData?5?$DN?$DN?5@ 005a7440     d3d8d:vshader.obj
 0003:00043e78       ??_C@_0EJ@OMDKLKAK@Vertex?5Shader?5references?5more?5st@ 005a7478     d3d8d:vshader.obj
 0003:00043ed0       ??_C@_0DO@NAHHKKFO@D3DTSS_TEXCOORDINDEX?5mapping?5for@ 005a74d0     d3d8d:vshader.obj
 0003:00043f1c       ??_C@_0CC@PNFJFOCM@Can?8t?5have?5a?5stride?5more?5than?525@ 005a751c     d3d8d:vshader.obj
 0003:00043f44       ??_C@_0CA@IPBCNNEN@Can?8t?5specify?5NULL?5VertexBuffer?$AA@ 005a7544     d3d8d:vshader.obj
 0003:00043f6c       ??_C@_0CI@KAOAOIIK@Stream?5count?5can?8t?5be?50?5or?5more?5@ 005a756c     d3d8d:vshader.obj
 0003:00043f9c       ??_C@_0DM@LAAGKHEL@StreamCount?5and?5pStreamInputs?5mu@ 005a759c     d3d8d:vshader.obj
 0003:00043fe4       ?g_MinFilter@D3D@@3QAY02$$CBKA 005a75e4     d3d8d:precomp.obj
 0003:00044000       ?g_Pgraph@@3QBUPgraphEncoding@@B 005a7600     d3d8d:precomp.obj
 0003:00045754       ?g_Dimension@@3QBKB        005a8d54     d3d8d:precomp.obj
 0003:00045760       ?g_Dma@@3QBKB              005a8d60     d3d8d:precomp.obj
 0003:00045770       ?g_Format@@3QBKB           005a8d70     d3d8d:precomp.obj
 0003:000457bc       ?g_SwathWidth@@3QBKB       005a8dbc     d3d8d:precomp.obj
 0003:000457e4       ?g_TexGen@@3QBKB           005a8de4     d3d8d:precomp.obj
 0003:00045800       ?g_Face@@3QBKB             005a8e00     d3d8d:precomp.obj
 0003:0004580c       ?g_Cull@@3QBKB             005a8e0c     d3d8d:precomp.obj
 0003:00045820       ?g_FogMode@@3QBKB          005a8e20     d3d8d:precomp.obj
 0003:00045848       ?g_FaceMode@@3QBKB         005a8e48     d3d8d:precomp.obj
 0003:00045858       ?g_ShadeMode@@3QBKB        005a8e58     d3d8d:precomp.obj
 0003:00045864       ?g_StencilOperation@@3QBKB 005a8e64     d3d8d:precomp.obj
 0003:00045890       ?g_BlendEquation@@3QBKB    005a8e90     d3d8d:precomp.obj
 0003:000458b8       ?g_BlendFactor@@3QBKB      005a8eb8     d3d8d:precomp.obj
 0003:00045904       ?g_ComparisonFunction@@3QBKB 005a8f04     d3d8d:precomp.obj
 0003:00045930       ?g_LogicOp@@3QBKB          005a8f30     d3d8d:precomp.obj
 0003:0004597c       ?g_DebugRegister@@3QBKB    005a8f7c     d3d8d:precomp.obj
 0003:000459b0       ?g_Kelvin@@3QBU_FieldDescription@@B 005a8fb0     d3d8d:precomp.obj
 0003:0004b530       ??_C@_0BB@MJHELBHI@NV097_GET_REPORT?$AA@ 005aeb30     d3d8d:precomp.obj
 0003:0004b544       ??_C@_0CD@MDGHHGAI@NV097_SET_ZPASS_PIXEL_COUNT_ENAB@ 005aeb44     d3d8d:precomp.obj
 0003:0004b570       ??_C@_0BJ@KCFONLFE@NV097_CLEAR_REPORT_VALUE?$AA@ 005aeb70     d3d8d:precomp.obj
 0003:0004b590       ??_C@_0CB@OOAFJOA@NV097_SET_BACK_MATERIAL_EMISSION@ 005aeb90     d3d8d:precomp.obj
 0003:0004b5b8       ??_C@_0CD@MPEPHGJM@NV097_SET_BACK_SCENE_AMBIENT_COL@ 005aebb8     d3d8d:precomp.obj
 0003:0004b5e4       ??_C@_0BM@GBFPEFKI@NV097_SET_TWO_SIDE_LIGHT_EN?$AA@ 005aebe4     d3d8d:precomp.obj
 0003:0004b608       ??_C@_0BP@JHANHE@NV097_LAUNCH_TRANSFORM_PROGRAM?$AA@ 005aec08     d3d8d:precomp.obj
 0003:0004b630       ??_C@_0BJ@IEGPGNNA@NV097_SET_TRANSFORM_DATA?$AA@ 005aec30     d3d8d:precomp.obj
 0003:0004b650       ??_C@_0BN@NIFIKAJJ@NV097_SET_TRANSFORM_CONSTANT?$AA@ 005aec50     d3d8d:precomp.obj
 0003:0004b674       ??_C@_0N@ECIKCLFO@CONST_LD_PTR?$AA@ 005aec74     d3d8d:precomp.obj
 0003:0004b684       ??_C@_0CC@PMNCEGIM@NV097_SET_TRANSFORM_CONSTANT_LOA@ 005aec84     d3d8d:precomp.obj
 0003:0004b6ac       ??_C@_0BM@JNMKPDHL@NV097_SET_TRANSFORM_PROGRAM?$AA@ 005aecac     d3d8d:precomp.obj
 0003:0004b6d0       ??_C@_0CC@ICBJCFJE@NV097_SET_TRANSFORM_PROGRAM_STAR@ 005aecd0     d3d8d:precomp.obj
 0003:0004b6f8       ??_C@_0M@EENDGNIF@PROG_LD_PTR?$AA@ 005aecf8     d3d8d:precomp.obj
 0003:0004b708       ??_C@_0CB@EOHKFKB@NV097_SET_TRANSFORM_PROGRAM_LOAD@ 005aed08     d3d8d:precomp.obj
 0003:0004b730       ??_C@_0CJ@IOMABCND@NV097_SET_TRANSFORM_PROGRAM_CXT_@ 005aed30     d3d8d:precomp.obj
 0003:0004b764       ??_C@_0L@ICLIPPDK@RANGE_MODE?$AA@ 005aed64     d3d8d:precomp.obj
 0003:0004b774       ??_C@_04KAFEECCN@MODE?$AA@ 005aed74     d3d8d:precomp.obj
 0003:0004b77c       ??_C@_0CD@DIOFKAMI@NV097_SET_TRANSFORM_EXECUTION_MO@ 005aed7c     d3d8d:precomp.obj
 0003:0004b7a8       ??_C@_0O@JLOLCGL@CD_DOT_ENABLE?$AA@ 005aeda8     d3d8d:precomp.obj
 0003:0004b7b8       ??_C@_0O@EIDFKJBL@AB_DOT_ENABLE?$AA@ 005aedb8     d3d8d:precomp.obj
 0003:0004b7c8       ??_C@_0P@FNJPJAOE@BLUETOALPHA_CD?$AA@ 005aedc8     d3d8d:precomp.obj
 0003:0004b7dc       ??_C@_0P@IEBODAM@BLUETOALPHA_AB?$AA@ 005aeddc     d3d8d:precomp.obj
 0003:0004b7f0       ??_C@_0BN@DOBPBEMD@NV097_SET_COMBINER_COLOR_OCW?$AA@ 005aedf0     d3d8d:precomp.obj
 0003:0004b814       ??_C@_07LJBODBPP@FACTOR1?$AA@ 005aee14     d3d8d:precomp.obj
 0003:0004b820       ??_C@_07KAAFAALO@FACTOR0?$AA@ 005aee20     d3d8d:precomp.obj
 0003:0004b82c       ??_C@_0L@EDHPILII@MUX_SELECT?$AA@ 005aee2c     d3d8d:precomp.obj
 0003:0004b83c       ??_C@_0BA@KKKIFKCN@ITERATION_COUNT?$AA@ 005aee3c     d3d8d:precomp.obj
 0003:0004b850       ??_C@_0BL@FALLIJBC@NV097_SET_COMBINER_CONTROL?$AA@ 005aee50     d3d8d:precomp.obj
 0003:0004b870       ??_C@_0BO@GFOCKLNH@NV097_SET_SPECULAR_FOG_FACTOR?$AA@ 005aee70     d3d8d:precomp.obj
 0003:0004b894       ??_C@_0CD@LJMHBMJH@NV097_SET_SHADER_OTHER_STAGE_INP@ 005aee94     d3d8d:precomp.obj
 0003:0004b8c0       ??_C@_08MFKJKKCJ@STAGE3_Q?$AA@ 005aeec0     d3d8d:precomp.obj
 0003:0004b8cc       ??_C@_08OOIEPJOK@STAGE3_R?$AA@ 005aeecc     d3d8d:precomp.obj
 0003:0004b8d8       ??_C@_08LINOFOGM@STAGE3_T?$AA@ 005aeed8     d3d8d:precomp.obj
 0003:0004b8e4       ??_C@_08PHJPMIKL@STAGE3_S?$AA@ 005aeee4     d3d8d:precomp.obj
 0003:0004b8f0       ??_C@_08HNBFMNEM@STAGE2_Q?$AA@ 005aeef0     d3d8d:precomp.obj
 0003:0004b8fc       ??_C@_08FGDIJOIP@STAGE2_R?$AA@ 005aeefc     d3d8d:precomp.obj
 0003:0004b908       ??_C@_08GCDJAJ@STAGE2_T?$AA@ 005aef08     d3d8d:precomp.obj
 0003:0004b914       ??_C@_08EPCDKPMO@STAGE2_S?$AA@ 005aef14     d3d8d:precomp.obj
 0003:0004b920       ??_C@_08GPKAGCKC@STAGE1_Q?$AA@ 005aef20     d3d8d:precomp.obj
 0003:0004b92c       ??_C@_08EEINDBGB@STAGE1_R?$AA@ 005aef2c     d3d8d:precomp.obj
 0003:0004b938       ??_C@_08BCNHJGOH@STAGE1_T?$AA@ 005aef38     d3d8d:precomp.obj
 0003:0004b944       ??_C@_08FNJGAACA@STAGE1_S?$AA@ 005aef44     d3d8d:precomp.obj
 0003:0004b950       ??_C@_08NHBMAFMH@STAGE0_Q?$AA@ 005aef50     d3d8d:precomp.obj
 0003:0004b95c       ??_C@_08PMDBFGAE@STAGE0_R?$AA@ 005aef5c     d3d8d:precomp.obj
 0003:0004b968       ??_C@_08KKGLPBIC@STAGE0_T?$AA@ 005aef68     d3d8d:precomp.obj
 0003:0004b974       ??_C@_08OFCKGHEF@STAGE0_S?$AA@ 005aef74     d3d8d:precomp.obj
 0003:0004b980       ??_C@_0CB@MONMCLMG@NV097_SET_SHADER_CLIP_PLANE_MODE@ 005aef80     d3d8d:precomp.obj
 0003:0004b9a8       ??_C@_0BJ@HEIBDKPA@NV097_SET_DOT_RGBMAPPING?$AA@ 005aefa8     d3d8d:precomp.obj
 0003:0004b9c8       ??_C@_0BF@LJODBMMP@NV097_SET_EYE_VECTOR?$AA@ 005aefc8     d3d8d:precomp.obj
 0003:0004b9e4       ??_C@_06GNLKCCM@STAGE3?$AA@ 005aefe4     d3d8d:precomp.obj
 0003:0004b9ec       ??_C@_06BPMAJDGN@STAGE2?$AA@ 005aefec     d3d8d:precomp.obj
 0003:0004b9f4       ??_C@_06DEONMAKO@STAGE1?$AA@ 005aeff4     d3d8d:precomp.obj
 0003:0004b9fc       ??_C@_06CNPGPBOP@STAGE0?$AA@ 005aeffc     d3d8d:precomp.obj
 0003:0004ba04       ??_C@_0BP@OAKALPGI@NV097_SET_SHADER_STAGE_PROGRAM?$AA@ 005af004     d3d8d:precomp.obj
 0003:0004ba2c       ??_C@_0BM@OMCPMIDJ@NV097_SET_SHADOW_DEPTH_FUNC?$AA@ 005af02c     d3d8d:precomp.obj
 0003:0004ba50       ??_C@_0CC@ECHGEIMM@NV097_SET_SHADOW_ZSLOPE_THRESHOL@ 005af050     d3d8d:precomp.obj
 0003:0004ba78       ??_C@_0BJ@ILFKLEHH@NV097_SET_END_TRANSITION?$AA@ 005af078     d3d8d:precomp.obj
 0003:0004ba98       ??_C@_0BB@KPBFMOBB@OUTSIDE_SEGMENTS?$AA@ 005af098     d3d8d:precomp.obj
 0003:0004baac       ??_C@_0BA@HDONCNNH@INSIDE_SEGMENTS?$AA@ 005af0ac     d3d8d:precomp.obj
 0003:0004bac0       ??_C@_0BM@EAGOKBMN@NV097_SET_BEGIN_TRANSITION2?$AA@ 005af0c0     d3d8d:precomp.obj
 0003:0004bae4       ??_C@_0BM@GLEDPCAO@NV097_SET_BEGIN_TRANSITION1?$AA@ 005af0e4     d3d8d:precomp.obj
 0003:0004bb08       ??_C@_0BM@HCFIMDEP@NV097_SET_BEGIN_TRANSITION0?$AA@ 005af108     d3d8d:precomp.obj
 0003:0004bb2c       ??_C@_0BN@GCINPNHL@NV097_SET_CURVE_COEFFICIENTS?$AA@ 005af12c     d3d8d:precomp.obj
 0003:0004bb50       ??_C@_03LLENEDKC@CMD?$AA@  005af150     d3d8d:precomp.obj
 0003:0004bb54       ??_C@_0BK@FFMPELDA@NV097_SET_BEGIN_END_CURVE?$AA@ 005af154     d3d8d:precomp.obj
 0003:0004bb74       ??_C@_0O@KJFNIJBE@NARROW_SWATCH?$AA@ 005af174     d3d8d:precomp.obj
 0003:0004bb84       ??_C@_0N@EBHLLNHN@SHORT_SWATCH?$AA@ 005af184     d3d8d:precomp.obj
 0003:0004bb94       ??_C@_0P@DDDALMBE@SKIP_FIRST_COL?$AA@ 005af194     d3d8d:precomp.obj
 0003:0004bba8       ??_C@_0P@HCKDEHHE@SKIP_FIRST_ROW?$AA@ 005af1a8     d3d8d:precomp.obj
 0003:0004bbbc       ??_C@_09PCOJJAOI@NEW_SWATH?$AA@ 005af1bc     d3d8d:precomp.obj
 0003:0004bbc8       ??_C@_0L@HPDEFOMB@SWATCH_CMD?$AA@ 005af1c8     d3d8d:precomp.obj
 0003:0004bbd8       ??_C@_0BL@LNPOFOEE@NV097_SET_BEGIN_END_SWATCH?$AA@ 005af1d8     d3d8d:precomp.obj
 0003:0004bbf8       ??_C@_0BE@LMJJNAEB@NV097_SET_END_PATCH?$AA@ 005af1f8     d3d8d:precomp.obj
 0003:0004bc10       ??_C@_0L@KMKAMMKM@NUM_COEFFS?$AA@ 005af210     d3d8d:precomp.obj
 0003:0004bc20       ??_C@_0M@BNNFHBDB@TESSELATION?$AA@ 005af220     d3d8d:precomp.obj
 0003:0004bc30       ??_C@_09MCMHJBE@PRIMITIVE?$AA@ 005af230     d3d8d:precomp.obj
 0003:0004bc3c       ??_C@_0BK@GKELJGNM@NORMAL_GUARD_CURVE_DEGREE?$AA@ 005af23c     d3d8d:precomp.obj
 0003:0004bc5c       ??_C@_0BM@EHDNFGJL@POSITION_GUARD_CURVE_DEGREE?$AA@ 005af25c     d3d8d:precomp.obj
 0003:0004bc80       ??_C@_08DHCCKBIC@COL_TRNS?$AA@ 005af280     d3d8d:precomp.obj
 0003:0004bc8c       ??_C@_08OJEADPIE@ROW_TRNS?$AA@ 005af28c     d3d8d:precomp.obj
 0003:0004bc98       ??_C@_0BH@NEOHDHLG@NV097_SET_BEGIN_PATCH3?$AA@ 005af298     d3d8d:precomp.obj
 0003:0004bcb4       ??_C@_0L@FAKBHDC@PATCH_TYPE?$AA@ 005af2b4     d3d8d:precomp.obj
 0003:0004bcc4       ??_C@_0BG@DHFJECPL@PARTIAL_SWATCH_HEIGHT?$AA@ 005af2c4     d3d8d:precomp.obj
 0003:0004bce0       ??_C@_0BF@DGAFAGLN@PARTIAL_SWATCH_WIDTH?$AA@ 005af2e0     d3d8d:precomp.obj
 0003:0004bcfc       ??_C@_0M@JICIPDJH@SWATCH_SIZE?$AA@ 005af2fc     d3d8d:precomp.obj
 0003:0004bd0c       ??_C@_0M@NJJAFBNM@SWATCH_COLS?$AA@ 005af30c     d3d8d:precomp.obj
 0003:0004bd1c       ??_C@_0M@JEGDKDHP@SWATCH_ROWS?$AA@ 005af31c     d3d8d:precomp.obj
 0003:0004bd2c       ??_C@_0BH@MNPMAGPH@NV097_SET_BEGIN_PATCH2?$AA@ 005af32c     d3d8d:precomp.obj
 0003:0004bd48       ??_C@_0P@FFAHNDLP@PARAM15_DEGREE?$AA@ 005af348     d3d8d:precomp.obj
 0003:0004bd5c       ??_C@_0P@ECHMMHPM@PARAM14_DEGREE?$AA@ 005af35c     d3d8d:precomp.obj
 0003:0004bd70       ??_C@_0P@CGBNKKDF@PARAM13_DEGREE?$AA@ 005af370     d3d8d:precomp.obj
 0003:0004bd84       ??_C@_0P@DBGGLOHG@PARAM12_DEGREE?$AA@ 005af384     d3d8d:precomp.obj
 0003:0004bd98       ??_C@_0P@IOLICLD@PARAM11_DEGREE?$AA@ 005af398     d3d8d:precomp.obj
 0003:0004bdac       ??_C@_0P@BPJAJGPA@PARAM10_DEGREE?$AA@ 005af3ac     d3d8d:precomp.obj
 0003:0004bdc0       ??_C@_0O@FEFLGBGK@PARAM9_DEGREE?$AA@ 005af3c0     d3d8d:precomp.obj
 0003:0004bdd0       ??_C@_0O@EDCAHFCJ@PARAM8_DEGREE?$AA@ 005af3d0     d3d8d:precomp.obj
 0003:0004bde0       ??_C@_0BH@OGNBFFDE@NV097_SET_BEGIN_PATCH1?$AA@ 005af3e0     d3d8d:precomp.obj
 0003:0004bdfc       ??_C@_0O@JMJJLKPI@PARAM7_DEGREE?$AA@ 005af3fc     d3d8d:precomp.obj
 0003:0004be0c       ??_C@_0O@ILOCKOLL@PARAM6_DEGREE?$AA@ 005af40c     d3d8d:precomp.obj
 0003:0004be1c       ??_C@_0O@LCGPJCHO@PARAM5_DEGREE?$AA@ 005af41c     d3d8d:precomp.obj
 0003:0004be2c       ??_C@_0O@KFBEIGDN@PARAM4_DEGREE?$AA@ 005af42c     d3d8d:precomp.obj
 0003:0004be3c       ??_C@_0O@MBHFOLPE@PARAM3_DEGREE?$AA@ 005af43c     d3d8d:precomp.obj
 0003:0004be4c       ??_C@_0O@NGAOPPLH@PARAM2_DEGREE?$AA@ 005af44c     d3d8d:precomp.obj
 0003:0004be5c       ??_C@_0O@OPIDMDHC@PARAM1_DEGREE?$AA@ 005af45c     d3d8d:precomp.obj
 0003:0004be6c       ??_C@_0BA@NMNKOPEO@POSITION_DEGREE?$AA@ 005af46c     d3d8d:precomp.obj
 0003:0004be80       ??_C@_0BH@PPMKGEHF@NV097_SET_BEGIN_PATCH0?$AA@ 005af480     d3d8d:precomp.obj
 0003:0004be9c       ??_C@_0BO@MOBPGGMH@NV097_SET_CLEAR_RECT_VERTICAL?$AA@ 005af49c     d3d8d:precomp.obj
 0003:0004bec0       ??_C@_0CA@DHOLFJHC@NV097_SET_CLEAR_RECT_HORIZONTAL?$AA@ 005af4c0     d3d8d:precomp.obj
 0003:0004bee8       ??_C@_01FHEEJDEE@A?$AA@    005af4e8     d3d8d:precomp.obj
 0003:0004beec       ??_C@_01HMGJMAIH@B?$AA@    005af4ec     d3d8d:precomp.obj
 0003:0004bef0       ??_C@_01BBODEMC@G?$AA@     005af4f0     d3d8d:precomp.obj
 0003:0004bef4       ??_C@_01DGKLNCNG@R?$AA@    005af4f4     d3d8d:precomp.obj
 0003:0004bef8       ??_C@_07IEJOCFHF@STENCIL?$AA@ 005af4f8     d3d8d:precomp.obj
 0003:0004bf04       ??_C@_01POHCFINO@Z?$AA@    005af504     d3d8d:precomp.obj
 0003:0004bf08       ??_C@_0BE@LHMFKHLP@NV097_CLEAR_SURFACE?$AA@ 005af508     d3d8d:precomp.obj
 0003:0004bf20       ??_C@_0BM@CMIAFBIA@NV097_SET_COLOR_CLEAR_VALUE?$AA@ 005af520     d3d8d:precomp.obj
 0003:0004bf44       ??_C@_0BP@EGFHCDGD@NV097_SET_ZSTENCIL_CLEAR_VALUE?$AA@ 005af544     d3d8d:precomp.obj
 0003:0004bf6c       ??_C@_0O@JBCBGEFJ@ANTI_ALIASING?$AA@ 005af56c     d3d8d:precomp.obj
 0003:0004bf7c       ??_C@_0BJ@OCAFFBJF@NV097_SET_SURFACE_FORMAT?$AA@ 005af57c     d3d8d:precomp.obj
 0003:0004bf9c       ??_C@_0BD@EFGOIHHM@OCCLUDE_STENCIL_EN?$AA@ 005af59c     d3d8d:precomp.obj
 0003:0004bfb4       ??_C@_0M@DABDIPCE@OCCLUDE_ZEN?$AA@ 005af5b4     d3d8d:precomp.obj
 0003:0004bfc4       ??_C@_0BO@LJIADFCM@NV097_SET_OCCLUDE_ZSTENCIL_EN?$AA@ 005af5c4     d3d8d:precomp.obj
 0003:0004bfe8       ??_C@_0BO@BNICDBHI@NV097_SET_COMPRESS_ZBUFFER_EN?$AA@ 005af5e8     d3d8d:precomp.obj
 0003:0004c00c       ??_C@_0M@KKHKCIPM@SAMPLE_MASK?$AA@ 005af60c     d3d8d:precomp.obj
 0003:0004c01c       ??_C@_0N@LCGPBJJK@ALPHA_TO_ONE?$AA@ 005af61c     d3d8d:precomp.obj
 0003:0004c02c       ??_C@_0BC@JJECAKHD@ALPHA_TO_COVERAGE?$AA@ 005af62c     d3d8d:precomp.obj
 0003:0004c044       ??_C@_0CA@EIDLLFEA@NV097_SET_ANTI_ALIASING_CONTROL?$AA@ 005af644     d3d8d:precomp.obj
 0003:0004c06c       ??_C@_0O@GBENCCGD@CULL_IGNORE_W?$AA@ 005af66c     d3d8d:precomp.obj
 0003:0004c07c       ??_C@_09MJACPDII@ZCLAMP_EN?$AA@ 005af67c     d3d8d:precomp.obj
 0003:0004c088       ??_C@_0BB@LFCKHBHD@CULL_NEAR_FAR_EN?$AA@ 005af688     d3d8d:precomp.obj
 0003:0004c09c       ??_C@_0BL@MFPCANCD@NV097_SET_ZMIN_MAX_CONTROL?$AA@ 005af69c     d3d8d:precomp.obj
 0003:0004c0bc       ??_C@_0CF@NCGGEPGN@NV097_TEXTURE_READ_SEMAPHORE_REL@ 005af6bc     d3d8d:precomp.obj
 0003:0004c0e8       ??_C@_0CH@LJBPPGLK@NV097_BACK_END_WRITE_SEMAPHORE_R@ 005af6e8     d3d8d:precomp.obj
 0003:0004c118       ??_C@_0BL@CCIBAOCA@NV097_SET_SEMAPHORE_OFFSET?$AA@ 005af718     d3d8d:precomp.obj
 0003:0004c138       ??_C@_0BH@LNEKBOMK@NV097_UNPARK_ATTRIBUTE?$AA@ 005af738     d3d8d:precomp.obj
 0003:0004c154       ??_C@_0BF@JDJJIFHO@NV097_PARK_ATTRIBUTE?$AA@ 005af754     d3d8d:precomp.obj
 0003:0004c170       ??_C@_0CG@IPGPEHHF@NV097_SET_TEXTURE_SET_BUMP_ENV_O@ 005af770     d3d8d:precomp.obj
 0003:0004c1a0       ??_C@_0CF@FAIGIOFF@NV097_SET_TEXTURE_SET_BUMP_ENV_S@ 005af7a0     d3d8d:precomp.obj
 0003:0004c1cc       ??_C@_0CF@HKDMGPMD@NV097_SET_TEXTURE_SET_BUMP_ENV_M@ 005af7cc     d3d8d:precomp.obj
 0003:0004c1f8       ??_C@_0CF@GDCHFOIC@NV097_SET_TEXTURE_SET_BUMP_ENV_M@ 005af7f8     d3d8d:precomp.obj
 0003:0004c224       ??_C@_0CF@GCOFDELF@NV097_SET_TEXTURE_SET_BUMP_ENV_M@ 005af824     d3d8d:precomp.obj
 0003:0004c250       ??_C@_0CF@HLPOAFPE@NV097_SET_TEXTURE_SET_BUMP_ENV_M@ 005af850     d3d8d:precomp.obj
 0003:0004c27c       ??_C@_0BP@CFGBKACF@NV097_SET_TEXTURE_BORDER_COLOR?$AA@ 005af87c     d3d8d:precomp.obj
 0003:0004c2a4       ??_C@_06MLIGBJO@LENGTH?$AA@ 005af8a4     d3d8d:precomp.obj
 0003:0004c2ac       ??_C@_0BK@FGJIHGBE@NV097_SET_TEXTURE_PALETTE?$AA@ 005af8ac     d3d8d:precomp.obj
 0003:0004c2cc       ??_C@_0BN@JJBMBLPL@NV097_SET_TEXTURE_IMAGE_RECT?$AA@ 005af8cc     d3d8d:precomp.obj
 0003:0004c2f0       ??_C@_07LIFDCDPF@BSIGNED?$AA@ 005af8f0     d3d8d:precomp.obj
 0003:0004c2fc       ??_C@_07PALDCNJB@GSIGNED?$AA@ 005af8fc     d3d8d:precomp.obj
 0003:0004c308       ??_C@_07MEOIBCNO@RSIGNED?$AA@ 005af908     d3d8d:precomp.obj
 0003:0004c314       ??_C@_07DGNMCEBG@ASIGNED?$AA@ 005af914     d3d8d:precomp.obj
 0003:0004c320       ??_C@_03HJKFJODG@MAG?$AA@  005af920     d3d8d:precomp.obj
 0003:0004c324       ??_C@_03KGHEHEMH@MIN?$AA@  005af924     d3d8d:precomp.obj
 0003:0004c328       ??_C@_0BD@IMOIILLF@CONVOLUTION_KERNEL?$AA@ 005af928     d3d8d:precomp.obj
 0003:0004c340       ??_C@_0BA@GPFCJDMJ@MIPMAP_LOD_BIAS?$AA@ 005af940     d3d8d:precomp.obj
 0003:0004c354       ??_C@_0BJ@GGECPHII@NV097_SET_TEXTURE_FILTER?$AA@ 005af954     d3d8d:precomp.obj
 0003:0004c374       ??_C@_0M@BMCJOLDA@IMAGE_PITCH?$AA@ 005af974     d3d8d:precomp.obj
 0003:0004c384       ??_C@_0BL@EIKPJJJ@NV097_SET_TEXTURE_CONTROL1?$AA@ 005af984     d3d8d:precomp.obj
 0003:0004c3a4       ??_C@_0BE@BKGAOHDP@COLOR_KEY_OPERATION?$AA@ 005af9a4     d3d8d:precomp.obj
 0003:0004c3bc       ??_C@_0BD@GBDMNPNH@IMAGE_FIELD_ENABLE?$AA@ 005af9bc     d3d8d:precomp.obj
 0003:0004c3d4       ??_C@_0O@FNHLNCOL@LOG_MAX_ANISO?$AA@ 005af9d4     d3d8d:precomp.obj
 0003:0004c3e4       ??_C@_0O@GBFEIDAI@MAX_LOD_CLAMP?$AA@ 005af9e4     d3d8d:precomp.obj
 0003:0004c3f4       ??_C@_0O@NIHCBIHJ@MIN_LOD_CLAMP?$AA@ 005af9f4     d3d8d:precomp.obj
 0003:0004c404       ??_C@_06OBPCDPOI@ENABLE?$AA@ 005afa04     d3d8d:precomp.obj
 0003:0004c40c       ??_C@_0BL@BNJBMINI@NV097_SET_TEXTURE_CONTROL0?$AA@ 005afa0c     d3d8d:precomp.obj
 0003:0004c42c       ??_C@_09ENBAOKD@CYLWRAP_Q?$AA@ 005afa2c     d3d8d:precomp.obj
 0003:0004c438       ??_C@_09BNMKDPOC@CYLWRAP_P?$AA@ 005afa38     d3d8d:precomp.obj
 0003:0004c444       ??_C@_01EJNLAFE@P?$AA@     005afa44     d3d8d:precomp.obj
 0003:0004c448       ??_C@_09ELJAJIGE@CYLWRAP_V?$AA@ 005afa48     d3d8d:precomp.obj
 0003:0004c454       ??_C@_09GALNMLKH@CYLWRAP_U?$AA@ 005afa54     d3d8d:precomp.obj
 0003:0004c460       ??_C@_01HJOKEEBB@U?$AA@    005afa60     d3d8d:precomp.obj
 0003:0004c464       ??_C@_0BK@HLFADCFB@NV097_SET_TEXTURE_ADDRESS?$AA@ 005afa64     d3d8d:precomp.obj
 0003:0004c484       ??_C@_0M@DMMMKPIL@BASE_SIZE_P?$AA@ 005afa84     d3d8d:precomp.obj
 0003:0004c494       ??_C@_0M@GKJGAIAN@BASE_SIZE_V?$AA@ 005afa94     d3d8d:precomp.obj
 0003:0004c4a4       ??_C@_0M@EBLLFLMO@BASE_SIZE_U?$AA@ 005afaa4     d3d8d:precomp.obj
 0003:0004c4b4       ??_C@_0O@GDCFDEDC@MIPMAP_LEVELS?$AA@ 005afab4     d3d8d:precomp.obj
 0003:0004c4c4       ??_C@_0P@CKFHKEFO@DIMENSIONALITY?$AA@ 005afac4     d3d8d:precomp.obj
 0003:0004c4d8       ??_C@_0O@IIJIFPKC@BORDER_SOURCE?$AA@ 005afad8     d3d8d:precomp.obj
 0003:0004c4e8       ??_C@_0P@DEICCLOP@CUBEMAP_ENABLE?$AA@ 005afae8     d3d8d:precomp.obj
 0003:0004c4fc       ??_C@_0BJ@BDIJCKDJ@NV097_SET_TEXTURE_FORMAT?$AA@ 005afafc     d3d8d:precomp.obj
 0003:0004c51c       ??_C@_0BJ@IDLBIHBA@NV097_SET_TEXTURE_OFFSET?$AA@ 005afb1c     d3d8d:precomp.obj
 0003:0004c53c       ??_C@_0BD@FHINDLMF@NV097_INLINE_ARRAY?$AA@ 005afb3c     d3d8d:precomp.obj
 0003:0004c554       ??_C@_0BK@EIJPIAJD@NV097_INLINE_VERTEX_REUSE?$AA@ 005afb54     d3d8d:precomp.obj
 0003:0004c574       ??_C@_0M@PBFEJEFH@START_INDEX?$AA@ 005afb74     d3d8d:precomp.obj
 0003:0004c584       ??_C@_05EFFCCOAM@COUNT?$AA@ 005afb84     d3d8d:precomp.obj
 0003:0004c58c       ??_C@_0BC@LFALMAPM@NV097_DRAW_ARRAYS?$AA@ 005afb8c     d3d8d:precomp.obj
 0003:0004c5a4       ??_C@_0BG@GJOAHDKK@NV097_ARRAY_ELEMENT32?$AA@ 005afba4     d3d8d:precomp.obj
 0003:0004c5c0       ??_C@_07JLEKJAEL@VERTEX1?$AA@ 005afbc0     d3d8d:precomp.obj
 0003:0004c5cc       ??_C@_07ICFBKBAK@VERTEX0?$AA@ 005afbcc     d3d8d:precomp.obj
 0003:0004c5d8       ??_C@_0BG@OAIGCMA@NV097_ARRAY_ELEMENT16?$AA@ 005afbd8     d3d8d:precomp.obj
 0003:0004c5f4       ??_C@_02MBMDLBEE@OP?$AA@   005afbf4     d3d8d:precomp.obj
 0003:0004c5f8       ??_C@_0BE@PMFFFNFP@NV097_SET_BEGIN_END?$AA@ 005afbf8     d3d8d:precomp.obj
 0003:0004c610       ??_C@_0BD@OFCABPDA@NV097_SET_LOGIC_OP?$AA@ 005afc10     d3d8d:precomp.obj
 0003:0004c628       ??_C@_0BK@HFOEHFBB@NV097_SET_LOGIC_OP_ENABLE?$AA@ 005afc28     d3d8d:precomp.obj
 0003:0004c648       ??_C@_04EMFHLKGI@SIZE?$AA@ 005afc48     d3d8d:precomp.obj
 0003:0004c650       ??_C@_06LJODIMAK@STRIDE?$AA@ 005afc50     d3d8d:precomp.obj
 0003:0004c658       ??_C@_0CD@LKNKPGHA@NV097_SET_VERTEX_DATA_ARRAY_FORM@ 005afc58     d3d8d:precomp.obj
 0003:0004c684       ??_C@_06KPFMBGLO@OFFSET?$AA@ 005afc84     d3d8d:precomp.obj
 0003:0004c68c       ??_C@_0M@PAOHEAMP@CONTEXT_DMA?$AA@ 005afc8c     d3d8d:precomp.obj
 0003:0004c69c       ??_C@_0CD@CKOCFLFJ@NV097_SET_VERTEX_DATA_ARRAY_OFFS@ 005afc9c     d3d8d:precomp.obj
 0003:0004c6c8       ??_C@_0O@KKDKIJLC@NV097_TL_SYNC?$AA@ 005afcc8     d3d8d:precomp.obj
 0003:0004c6d8       ??_C@_0N@LBIJJCBL@NV097_TL_NOP?$AA@ 005afcd8     d3d8d:precomp.obj
 0003:0004c6e8       ??_C@_0BN@KACPMCDH@NV097_INVALIDATE_VERTEX_FILE?$AA@ 005afce8     d3d8d:precomp.obj
 0003:0004c70c       ??_C@_0CD@KDHFMNFG@NV097_INVALIDATE_VERTEX_CACHE_FI@ 005afd0c     d3d8d:precomp.obj
 0003:0004c738       ??_C@_0BL@OJAHJCDF@NV097_SET_LINEAR_FOG_CONST?$AA@ 005afd38     d3d8d:precomp.obj
 0003:0004c758       ??_C@_0BI@PKPCLBEP@NV097_SET_EYE_DIRECTION?$AA@ 005afd58     d3d8d:precomp.obj
 0003:0004c774       ??_C@_0BH@HCDHNELD@NV097_SET_TLCONST_ZERO?$AA@ 005afd74     d3d8d:precomp.obj
 0003:0004c790       ??_C@_0CB@BBCJMAOI@NV097_SET_TRANSFORM_FIXED_CONST3@ 005afd90     d3d8d:precomp.obj
 0003:0004c7b8       ??_C@_0CB@IDCPBKJ@NV097_SET_TRANSFORM_FIXED_CONST2@ 005afdb8     d3d8d:precomp.obj
 0003:0004c7e0       ??_C@_0CB@CDBPKCGK@NV097_SET_TRANSFORM_FIXED_CONST1@ 005afde0     d3d8d:precomp.obj
 0003:0004c808       ??_C@_0CB@DKAEJDCL@NV097_SET_TRANSFORM_FIXED_CONST0@ 005afe08     d3d8d:precomp.obj
 0003:0004c830       ??_C@_0BE@DGFBEHKI@NV097_SET_EDGE_FLAG?$AA@ 005afe30     d3d8d:precomp.obj
 0003:0004c848       ??_C@_0BD@NEKNEBAP@NV097_SET_WEIGHT4F?$AA@ 005afe48     d3d8d:precomp.obj
 0003:0004c860       ??_C@_0BD@NBOCFHIK@NV097_SET_WEIGHT3F?$AA@ 005afe60     d3d8d:precomp.obj
 0003:0004c878       ??_C@_0BD@NACADNLN@NV097_SET_WEIGHT2F?$AA@ 005afe78     d3d8d:precomp.obj
 0003:0004c890       ??_C@_0BD@NCGGIDOE@NV097_SET_WEIGHT1F?$AA@ 005afe90     d3d8d:precomp.obj
 0003:0004c8a8       ??_C@_0BA@FFCKOPAJ@NV097_SET_FOG1F?$AA@ 005afea8     d3d8d:precomp.obj
 0003:0004c8bc       ??_C@_0BH@EPHAPCGO@NV097_SET_TEXCOORD3_4S?$AA@ 005afebc     d3d8d:precomp.obj
 0003:0004c8d8       ??_C@_0BH@HIMFBEHK@NV097_SET_TEXCOORD3_4F?$AA@ 005afed8     d3d8d:precomp.obj
 0003:0004c8f4       ??_C@_0BH@ELPNIONM@NV097_SET_TEXCOORD3_2S?$AA@ 005afef4     d3d8d:precomp.obj
 0003:0004c910       ??_C@_0BH@EBCIEBHI@NV097_SET_TEXCOORD2_2F?$AA@ 005aff10     d3d8d:precomp.obj
 0003:0004c92c       ??_C@_0BH@HCBANLNO@NV097_SET_TEXCOORD2_4S?$AA@ 005aff2c     d3d8d:precomp.obj
 0003:0004c948       ??_C@_0BH@EFKFDNMK@NV097_SET_TEXCOORD2_4F?$AA@ 005aff48     d3d8d:precomp.obj
 0003:0004c964       ??_C@_0BH@HGJNKHGM@NV097_SET_TEXCOORD2_2S?$AA@ 005aff64     d3d8d:precomp.obj
 0003:0004c980       ??_C@_0BH@GIIDLKI@NV097_SET_TEXCOORD1_2F?$AA@ 005aff80     d3d8d:precomp.obj
 0003:0004c99c       ??_C@_0BH@DFLAKBAO@NV097_SET_TEXCOORD1_4S?$AA@ 005aff9c     d3d8d:precomp.obj
 0003:0004c9b8       ??_C@_0BH@CAFEHBK@NV097_SET_TEXCOORD1_4F?$AA@ 005affb8     d3d8d:precomp.obj
 0003:0004c9d4       ??_C@_0BH@DBDNNNLM@NV097_SET_TEXCOORD1_2S?$AA@ 005affd4     d3d8d:precomp.obj
 0003:0004c9f0       ??_C@_0BH@INAIILO@NV097_SET_TEXCOORD0_4S?$AA@ 005afff0     d3d8d:precomp.obj
 0003:0004ca0c       ??_C@_0BH@DPGFGOKK@NV097_SET_TEXCOORD0_4F?$AA@ 005b000c     d3d8d:precomp.obj
 0003:0004ca28       ??_C@_0BH@MFNPEAM@NV097_SET_TEXCOORD0_2S?$AA@ 005b0028     d3d8d:precomp.obj
 0003:0004ca44       ??_C@_0BH@DLOIBCBI@NV097_SET_TEXCOORD0_2F?$AA@ 005b0044     d3d8d:precomp.obj
 0003:0004ca60       ??_C@_0BM@HKGECKDH@NV097_SET_SPECULAR_COLOR4UB?$AA@ 005b0060     d3d8d:precomp.obj
 0003:0004ca84       ??_C@_0BL@PCACOICA@NV097_SET_SPECULAR_COLOR3F?$AA@ 005b0084     d3d8d:precomp.obj
 0003:0004caa4       ??_C@_0BL@PHENPOKF@NV097_SET_SPECULAR_COLOR4F?$AA@ 005b00a4     d3d8d:precomp.obj
 0003:0004cac4       ??_C@_0BL@FEMEPGJO@NV097_SET_DIFFUSE_COLOR4UB?$AA@ 005b00c4     d3d8d:precomp.obj
 0003:0004cae4       ??_C@_0BK@OGNDMAFN@NV097_SET_DIFFUSE_COLOR3F?$AA@ 005b00e4     d3d8d:precomp.obj
 0003:0004cb04       ??_C@_0BK@ODJMNGNI@NV097_SET_DIFFUSE_COLOR4F?$AA@ 005b0104     d3d8d:precomp.obj
 0003:0004cb24       ??_C@_0BD@CLALKPCP@NV097_SET_NORMAL3S?$AA@ 005b0124     d3d8d:precomp.obj
 0003:0004cb3c       ??_C@_0BD@BMLOEJDL@NV097_SET_NORMAL3F?$AA@ 005b013c     d3d8d:precomp.obj
 0003:0004cb54       ??_C@_0BD@KGLOHAFA@NV097_SET_VERTEX4S?$AA@ 005b0154     d3d8d:precomp.obj
 0003:0004cb6c       ??_C@_0BD@JBALJGEE@NV097_SET_VERTEX4F?$AA@ 005b016c     d3d8d:precomp.obj
 0003:0004cb84       ??_C@_0BD@JEEEIAMB@NV097_SET_VERTEX3F?$AA@ 005b0184     d3d8d:precomp.obj
 0003:0004cb9c       ??_C@_0CC@BGBINHFE@NV097_SET_LIGHT_LOCAL_ATTENUATIO@ 005b019c     d3d8d:precomp.obj
 0003:0004cbc4       ??_C@_0BP@NCMIFCPI@NV097_SET_LIGHT_LOCAL_POSITION?$AA@ 005b01c4     d3d8d:precomp.obj
 0003:0004cbec       ??_C@_0BP@FGBHCHDA@NV097_SET_LIGHT_SPOT_DIRECTION?$AA@ 005b01ec     d3d8d:precomp.obj
 0003:0004cc14       ??_C@_0BN@EDFOJIMA@NV097_SET_LIGHT_SPOT_FALLOFF?$AA@ 005b0214     d3d8d:precomp.obj
 0003:0004cc38       ??_C@_0CD@KIOOCNHK@NV097_SET_LIGHT_INFINITE_DIRECTI@ 005b0238     d3d8d:precomp.obj
 0003:0004cc64       ??_C@_0CF@ONHKBOFK@NV097_SET_LIGHT_INFINITE_HALF_VE@ 005b0264     d3d8d:precomp.obj
 0003:0004cc90       ??_C@_0BM@OFLAHKFM@NV097_SET_LIGHT_LOCAL_RANGE?$AA@ 005b0290     d3d8d:precomp.obj
 0003:0004ccb4       ??_C@_0BP@FLFPDHHB@NV097_SET_LIGHT_SPECULAR_COLOR?$AA@ 005b02b4     d3d8d:precomp.obj
 0003:0004ccdc       ??_C@_0BO@PKEHKIJL@NV097_SET_LIGHT_DIFFUSE_COLOR?$AA@ 005b02dc     d3d8d:precomp.obj
 0003:0004cd00       ??_C@_0BO@OEJDHGKC@NV097_SET_LIGHT_AMBIENT_COLOR?$AA@ 005b0300     d3d8d:precomp.obj
 0003:0004cd24       ??_C@_0CE@CAMOCDGM@NV097_SET_BACK_LIGHT_SPECULAR_CO@ 005b0324     d3d8d:precomp.obj
 0003:0004cd50       ??_C@_0CD@NKHIBLFB@NV097_SET_BACK_LIGHT_DIFFUSE_COL@ 005b0350     d3d8d:precomp.obj
 0003:0004cd7c       ??_C@_0CD@MEKMMFGI@NV097_SET_BACK_LIGHT_AMBIENT_COL@ 005b037c     d3d8d:precomp.obj
 0003:0004cda8       ??_C@_0BH@OHDLBIJP@NV097_SET_EYE_POSITION?$AA@ 005b03a8     d3d8d:precomp.obj
 0003:0004cdc4       ??_C@_0BH@CFLAKALB@NV097_SET_POINT_PARAMS?$AA@ 005b03c4     d3d8d:precomp.obj
 0003:0004cde0       ??_C@_0BK@POGHMCFD@NV097_SET_VIEWPORT_OFFSET?$AA@ 005b03e0     d3d8d:precomp.obj
 0003:0004ce00       ??_C@_0BJ@OJIGCBBB@NV097_SET_VIEWPORT_SCALE?$AA@ 005b0400     d3d8d:precomp.obj
 0003:0004ce20       ??_C@_0BO@OPHAMFFG@NV097_SET_SCENE_AMBIENT_COLOR?$AA@ 005b0420     d3d8d:precomp.obj
 0003:0004ce44       ??_C@_0BP@FBKJPACA@NV097_SET_BACK_SPECULAR_PARAMS?$AA@ 005b0444     d3d8d:precomp.obj
 0003:0004ce6c       ??_C@_0BK@NOODLMOP@NV097_SET_SPECULAR_PARAMS?$AA@ 005b046c     d3d8d:precomp.obj
 0003:0004ce8c       ??_C@_0BE@OMHLPGOA@NV097_SET_FOG_PLANE?$AA@ 005b048c     d3d8d:precomp.obj
 0003:0004cea4       ??_C@_0BF@PMNOCIHL@NV097_SET_FOG_PARAMS?$AA@ 005b04a4     d3d8d:precomp.obj
 0003:0004cec0       ??_C@_0BJ@IOLEHMLG@NV097_SET_TEXGEN_PLANE_Q?$AA@ 005b04c0     d3d8d:precomp.obj
 0003:0004cee0       ??_C@_0BJ@KFJJCPHF@NV097_SET_TEXGEN_PLANE_R?$AA@ 005b04e0     d3d8d:precomp.obj
 0003:0004cf00       ??_C@_0BJ@PDMDIIPD@NV097_SET_TEXGEN_PLANE_T?$AA@ 005b0500     d3d8d:precomp.obj
 0003:0004cf20       ??_C@_0BJ@LMICBODE@NV097_SET_TEXGEN_PLANE_S?$AA@ 005b0520     d3d8d:precomp.obj
 0003:0004cf40       ??_C@_0BK@FOGPDBNM@NV097_SET_TEXTURE_MATRIX3?$AA@ 005b0540     d3d8d:precomp.obj
 0003:0004cf60       ??_C@_0BK@EHHEAAJN@NV097_SET_TEXTURE_MATRIX2?$AA@ 005b0560     d3d8d:precomp.obj
 0003:0004cf80       ??_C@_0BK@GMFJFDFO@NV097_SET_TEXTURE_MATRIX1?$AA@ 005b0580     d3d8d:precomp.obj
 0003:0004cfa0       ??_C@_0BK@HFECGCBP@NV097_SET_TEXTURE_MATRIX0?$AA@ 005b05a0     d3d8d:precomp.obj
 0003:0004cfc0       ??_C@_0BL@LMCBEEAM@NV097_SET_COMPOSITE_MATRIX?$AA@ 005b05c0     d3d8d:precomp.obj
 0003:0004cfe0       ??_C@_0CF@PEHKIBHG@NV097_SET_INVERSE_MODEL_VIEW_MAT@ 005b05e0     d3d8d:precomp.obj
 0003:0004d00c       ??_C@_0CF@ONGBLADH@NV097_SET_INVERSE_MODEL_VIEW_MAT@ 005b060c     d3d8d:precomp.obj
 0003:0004d038       ??_C@_0CF@MGEMODPE@NV097_SET_INVERSE_MODEL_VIEW_MAT@ 005b0638     d3d8d:precomp.obj
 0003:0004d064       ??_C@_0CF@NPFHNCLF@NV097_SET_INVERSE_MODEL_VIEW_MAT@ 005b0664     d3d8d:precomp.obj
 0003:0004d090       ??_C@_0BN@MCFJIAKH@NV097_SET_MODEL_VIEW_MATRIX3?$AA@ 005b0690     d3d8d:precomp.obj
 0003:0004d0b4       ??_C@_0BN@NLECLBOG@NV097_SET_MODEL_VIEW_MATRIX2?$AA@ 005b06b4     d3d8d:precomp.obj
 0003:0004d0d8       ??_C@_0BN@PAGPOCCF@NV097_SET_MODEL_VIEW_MATRIX1?$AA@ 005b06d8     d3d8d:precomp.obj
 0003:0004d0fc       ??_C@_0BN@OJHENDGE@NV097_SET_MODEL_VIEW_MATRIX0?$AA@ 005b06fc     d3d8d:precomp.obj
 0003:0004d120       ??_C@_0BM@JMIKDKAL@NV097_SET_PROJECTION_MATRIX?$AA@ 005b0720     d3d8d:precomp.obj
 0003:0004d144       ??_C@_0BI@BBLODPHA@NV097_SET_FLAT_SHADE_OP?$AA@ 005b0744     d3d8d:precomp.obj
 0003:0004d160       ??_C@_0BG@HAALKMBJ@NV097_SET_SWATH_WIDTH?$AA@ 005b0760     d3d8d:precomp.obj
 0003:0004d17c       ??_C@_0BF@PCPIIKFB@NV097_SET_POINT_SIZE?$AA@ 005b077c     d3d8d:precomp.obj
 0003:0004d198       ??_C@_0CA@PIPPADBA@NV097_SET_TEXTURE_MATRIX_ENABLE?$AA@ 005b0798     d3d8d:precomp.obj
 0003:0004d1c0       ??_C@_0BM@NCFKHAPD@NV097_SET_TEXGEN_VIEW_MODEL?$AA@ 005b07c0     d3d8d:precomp.obj
 0003:0004d1e4       ??_C@_0BD@KKLMDJKN@NV097_SET_TEXGEN_Q?$AA@ 005b07e4     d3d8d:precomp.obj
 0003:0004d1fc       ??_C@_0BD@IBJBGKGO@NV097_SET_TEXGEN_R?$AA@ 005b07fc     d3d8d:precomp.obj
 0003:0004d214       ??_C@_0BD@NHMLMNOI@NV097_SET_TEXGEN_T?$AA@ 005b0814     d3d8d:precomp.obj
 0003:0004d22c       ??_C@_0BD@JIIKFLCP@NV097_SET_TEXGEN_S?$AA@ 005b082c     d3d8d:precomp.obj
 0003:0004d244       ??_C@_0BK@FHCBPEDE@NV097_SET_VERTEX_DATA4S_M?$AA@ 005b0844     d3d8d:precomp.obj
 0003:0004d264       ??_C@_0BJ@LKMNDMPH@NV097_SET_VERTEX_DATA4UB?$AA@ 005b0864     d3d8d:precomp.obj
 0003:0004d284       ??_C@_0BI@NHAPAJHM@NV097_SET_VERTEX_DATA2S?$AA@ 005b0884     d3d8d:precomp.obj
 0003:0004d2a0       ??_C@_0BK@DAOGFDJJ@NV097_SET_VERTEX_DATA4F_M?$AA@ 005b08a0     d3d8d:precomp.obj
 0003:0004d2c0       ??_C@_0BK@LPKGKGDJ@NV097_SET_VERTEX_DATA2F_M?$AA@ 005b08c0     d3d8d:precomp.obj
 0003:0004d2e0       ??_C@_06IGKOLGPL@LIGHT7?$AA@ 005b08e0     d3d8d:precomp.obj
 0003:0004d2e8       ??_C@_06JPLFIHLK@LIGHT6?$AA@ 005b08e8     d3d8d:precomp.obj
 0003:0004d2f0       ??_C@_06LEJINEHJ@LIGHT5?$AA@ 005b08f0     d3d8d:precomp.obj
 0003:0004d2f8       ??_C@_06KNIDOFDI@LIGHT4?$AA@ 005b08f8     d3d8d:precomp.obj
 0003:0004d300       ??_C@_06OCMCHDPP@LIGHT3?$AA@ 005b0900     d3d8d:precomp.obj
 0003:0004d308       ??_C@_06PLNJECLO@LIGHT2?$AA@ 005b0908     d3d8d:precomp.obj
 0003:0004d310       ??_C@_06NAPEBBHN@LIGHT1?$AA@ 005b0910     d3d8d:precomp.obj
 0003:0004d318       ??_C@_06MJOPCADM@LIGHT0?$AA@ 005b0918     d3d8d:precomp.obj
 0003:0004d320       ??_C@_0BM@ODOAHINO@NV097_SET_LIGHT_ENABLE_MASK?$AA@ 005b0920     d3d8d:precomp.obj
 0003:0004d344       ??_C@_0BK@DCPMCAAP@NV097_SET_SPECULAR_ENABLE?$AA@ 005b0944     d3d8d:precomp.obj
 0003:0004d364       ??_C@_0BO@MOMGMOLJ@NV097_SET_BACK_MATERIAL_ALPHA?$AA@ 005b0964     d3d8d:precomp.obj
 0003:0004d388       ??_C@_0BJ@OBBEPOGF@NV097_SET_MATERIAL_ALPHA?$AA@ 005b0988     d3d8d:precomp.obj
 0003:0004d3a8       ??_C@_0BM@DNOIBAJA@NV097_SET_MATERIAL_EMISSION?$AA@ 005b09a8     d3d8d:precomp.obj
 0003:0004d3cc       ??_C@_0BP@LLIEMBPI@NV097_SET_NORMALIZATION_ENABLE?$AA@ 005b09cc     d3d8d:precomp.obj
 0003:0004d3f4       ??_C@_0BF@GLLCFPOJ@NV097_SET_FRONT_FACE?$AA@ 005b09f4     d3d8d:precomp.obj
 0003:0004d410       ??_C@_0BE@ILNOFGGJ@NV097_SET_CULL_FACE?$AA@ 005b0a10     d3d8d:precomp.obj
 0003:0004d428       ??_C@_0BD@FNLHLNJJ@NV097_SET_CLIP_MAX?$AA@ 005b0a28     d3d8d:precomp.obj
 0003:0004d440       ??_C@_0BD@EPDMFJPG@NV097_SET_CLIP_MIN?$AA@ 005b0a40     d3d8d:precomp.obj
 0003:0004d458       ??_C@_0BM@JGNBIEEN@NV097_SET_BACK_POLYGON_MODE?$AA@ 005b0a58     d3d8d:precomp.obj
 0003:0004d47c       ??_C@_0BN@JJHACMMJ@NV097_SET_FRONT_POLYGON_MODE?$AA@ 005b0a7c     d3d8d:precomp.obj
 0003:0004d4a0       ??_C@_0BO@IPPLBMAB@NV097_SET_POLYGON_OFFSET_BIAS?$AA@ 005b0aa0     d3d8d:precomp.obj
 0003:0004d4c4       ??_C@_0CG@CGJPAEAJ@NV097_SET_POLYGON_OFFSET_SCALE_F@ 005b0ac4     d3d8d:precomp.obj
 0003:0004d4f4       ??_C@_0BF@OLFPAPKL@NV097_SET_LINE_WIDTH?$AA@ 005b0af4     d3d8d:precomp.obj
 0003:0004d510       ??_C@_0BF@IOHECGMG@NV097_SET_SHADE_MODE?$AA@ 005b0b10     d3d8d:precomp.obj
 0003:0004d52c       ??_C@_0BL@BADJMALL@NV097_SET_STENCIL_OP_ZPASS?$AA@ 005b0b2c     d3d8d:precomp.obj
 0003:0004d54c       ??_C@_0BL@CDHCIKKB@NV097_SET_STENCIL_OP_ZFAIL?$AA@ 005b0b4c     d3d8d:precomp.obj
 0003:0004d56c       ??_C@_0BK@JPCEPEIL@NV097_SET_STENCIL_OP_FAIL?$AA@ 005b0b6c     d3d8d:precomp.obj
 0003:0004d58c       ??_C@_0BM@HFENIDOH@NV097_SET_STENCIL_FUNC_MASK?$AA@ 005b0b8c     d3d8d:precomp.obj
 0003:0004d5b0       ??_C@_0BL@POOIOKNL@NV097_SET_STENCIL_FUNC_REF?$AA@ 005b0bb0     d3d8d:precomp.obj
 0003:0004d5d0       ??_C@_0BH@GKCMIIN@NV097_SET_STENCIL_FUNC?$AA@ 005b0bd0     d3d8d:precomp.obj
 0003:0004d5ec       ??_C@_0BH@HCCOIDHP@NV097_SET_STENCIL_MASK?$AA@ 005b0bec     d3d8d:precomp.obj
 0003:0004d608       ??_C@_0BF@DNKFJFKP@NV097_SET_DEPTH_MASK?$AA@ 005b0c08     d3d8d:precomp.obj
 0003:0004d624       ??_C@_0BF@KLDHEPHN@NV097_SET_COLOR_MASK?$AA@ 005b0c24     d3d8d:precomp.obj
 0003:0004d640       ??_C@_0BF@EJCJNOFN@NV097_SET_DEPTH_FUNC?$AA@ 005b0c40     d3d8d:precomp.obj
 0003:0004d65c       ??_C@_0BJ@JHOCINHB@NV097_SET_BLEND_EQUATION?$AA@ 005b0c5c     d3d8d:precomp.obj
 0003:0004d67c       ??_C@_0BG@HPCGBIFH@NV097_SET_BLEND_COLOR?$AA@ 005b0c7c     d3d8d:precomp.obj
 0003:0004d698       ??_C@_0BN@NKEKCPON@NV097_SET_BLEND_FUNC_DFACTOR?$AA@ 005b0c98     d3d8d:precomp.obj
 0003:0004d6bc       ??_C@_0BN@KMDEBHNP@NV097_SET_BLEND_FUNC_SFACTOR?$AA@ 005b0cbc     d3d8d:precomp.obj
 0003:0004d6e0       ??_C@_0BE@GJDDDDBB@NV097_SET_ALPHA_REF?$AA@ 005b0ce0     d3d8d:precomp.obj
 0003:0004d6f8       ??_C@_0BF@HKOHDIGC@NV097_SET_ALPHA_FUNC?$AA@ 005b0cf8     d3d8d:precomp.obj
 0003:0004d714       ??_C@_0CC@DBAOAKIM@NV097_SET_POLY_OFFSET_FILL_ENABL@ 005b0d14     d3d8d:precomp.obj
 0003:0004d73c       ??_C@_0CC@HDGPIEIL@NV097_SET_POLY_OFFSET_LINE_ENABL@ 005b0d3c     d3d8d:precomp.obj
 0003:0004d764       ??_C@_0CD@NDJNLJKE@NV097_SET_POLY_OFFSET_POINT_ENAB@ 005b0d64     d3d8d:precomp.obj
 0003:0004d790       ??_C@_0BO@GALFOIIK@NV097_SET_STENCIL_TEST_ENABLE?$AA@ 005b0d90     d3d8d:precomp.obj
 0003:0004d7b4       ??_C@_0BE@IFENABII@NV097_SET_SKIN_MODE?$AA@ 005b0db4     d3d8d:precomp.obj
 0003:0004d7cc       ??_C@_0BK@LEAGEONA@NV097_SET_STIPPLE_PATTERN?$AA@ 005b0dcc     d3d8d:precomp.obj
 0003:0004d7ec       ??_C@_0BK@FPEGBPDP@NV097_SET_STIPPLE_CONTROL?$AA@ 005b0dec     d3d8d:precomp.obj
 0003:0004d80c       ??_C@_0BN@LJJCBBNA@NV097_SET_POLY_SMOOTH_ENABLE?$AA@ 005b0e0c     d3d8d:precomp.obj
 0003:0004d830       ??_C@_0BN@NBFMPLKJ@NV097_SET_LINE_SMOOTH_ENABLE?$AA@ 005b0e30     d3d8d:precomp.obj
 0003:0004d854       ??_C@_0BO@MEGGNBFL@NV097_SET_POINT_SMOOTH_ENABLE?$AA@ 005b0e54     d3d8d:precomp.obj
 0003:0004d878       ??_C@_0BO@BHFCPMOB@NV097_SET_POINT_PARAMS_ENABLE?$AA@ 005b0e78     d3d8d:precomp.obj
 0003:0004d89c       ??_C@_0BK@JDCIDGBL@NV097_SET_LIGHTING_ENABLE?$AA@ 005b0e9c     d3d8d:precomp.obj
 0003:0004d8bc       ??_C@_0BI@LLPFMPME@NV097_SET_DITHER_ENABLE?$AA@ 005b0ebc     d3d8d:precomp.obj
 0003:0004d8d8       ??_C@_0BM@BLLIMDKB@NV097_SET_DEPTH_TEST_ENABLE?$AA@ 005b0ed8     d3d8d:precomp.obj
 0003:0004d8fc       ??_C@_0BL@MHADOMNN@NV097_SET_CULL_FACE_ENABLE?$AA@ 005b0efc     d3d8d:precomp.obj
 0003:0004d91c       ??_C@_0BH@MMLACNIG@NV097_SET_BLEND_ENABLE?$AA@ 005b0f1c     d3d8d:precomp.obj
 0003:0004d938       ??_C@_0BM@DBDFOPHA@NV097_SET_ALPHA_TEST_ENABLE?$AA@ 005b0f38     d3d8d:precomp.obj
 0003:0004d95c       ??_C@_04GGJKBFBD@YMAX?$AA@ 005b0f5c     d3d8d:precomp.obj
 0003:0004d964       ??_C@_04HEBBPBHM@YMIN?$AA@ 005b0f64     d3d8d:precomp.obj
 0003:0004d96c       ??_C@_0BP@BKEICPMO@NV097_SET_WINDOW_CLIP_VERTICAL?$AA@ 005b0f6c     d3d8d:precomp.obj
 0003:0004d994       ??_C@_04FLPKDMKD@XMAX?$AA@ 005b0f94     d3d8d:precomp.obj
 0003:0004d99c       ??_C@_04EJHBNIMM@XMIN?$AA@ 005b0f9c     d3d8d:precomp.obj
 0003:0004d9a4       ??_C@_0CB@OJCJMPFI@NV097_SET_WINDOW_CLIP_HORIZONTAL@ 005b0fa4     d3d8d:precomp.obj
 0003:0004d9cc       ??_C@_0BL@HHIFIGMC@NV097_SET_WINDOW_CLIP_TYPE?$AA@ 005b0fcc     d3d8d:precomp.obj
 0003:0004d9ec       ??_C@_0BK@INKHNKII@NV097_SET_COLOR_KEY_COLOR?$AA@ 005b0fec     d3d8d:precomp.obj
 0003:0004da0c       ??_C@_0BE@NILCMKHJ@NV097_SET_FOG_COLOR?$AA@ 005b100c     d3d8d:precomp.obj
 0003:0004da24       ??_C@_0BF@BAMBLEJL@NV097_SET_FOG_ENABLE?$AA@ 005b1024     d3d8d:precomp.obj
 0003:0004da40       ??_C@_0BH@MMGFDGHB@NV097_SET_FOG_GEN_MODE?$AA@ 005b1040     d3d8d:precomp.obj
 0003:0004da5c       ??_C@_0BD@HBEIJECD@NV097_SET_FOG_MODE?$AA@ 005b105c     d3d8d:precomp.obj
 0003:0004da74       ??_C@_0BD@OJPDDNDK@BACK_DIFF_MATERIAL?$AA@ 005b1074     d3d8d:precomp.obj
 0003:0004da8c       ??_C@_0BG@IFHMIJDJ@BACK_AMBIENT_MATERIAL?$AA@ 005b108c     d3d8d:precomp.obj
 0003:0004daa8       ??_C@_0BH@MGCBLMMA@BACK_EMISSIVE_MATERIAL?$AA@ 005b10a8     d3d8d:precomp.obj
 0003:0004dac4       ??_C@_0BC@KPNANEGM@SPECULAR_MATERIAL?$AA@ 005b10c4     d3d8d:precomp.obj
 0003:0004dadc       ??_C@_0O@COELGFFC@DIFF_MATERIAL?$AA@ 005b10dc     d3d8d:precomp.obj
 0003:0004daec       ??_C@_0BB@HEGAPPIE@AMBIENT_MATERIAL?$AA@ 005b10ec     d3d8d:precomp.obj
 0003:0004db00       ??_C@_0BC@HDAAGPIH@EMISSIVE_MATERIAL?$AA@ 005b1100     d3d8d:precomp.obj
 0003:0004db18       ??_C@_0BJ@EFGGFLPE@NV097_SET_COLOR_MATERIAL?$AA@ 005b1118     d3d8d:precomp.obj
 0003:0004db38       ??_C@_0BF@KBJHEEOL@SEPARATE_SPECULAR_EN?$AA@ 005b1138     d3d8d:precomp.obj
 0003:0004db54       ??_C@_04DBLJIBJJ@SOUT?$AA@ 005b1154     d3d8d:precomp.obj
 0003:0004db5c       ??_C@_08LPKAMOBG@LOCALEYE?$AA@ 005b115c     d3d8d:precomp.obj
 0003:0004db68       ??_C@_0BI@GOPANCCI@NV097_SET_LIGHT_CONTROL?$AA@ 005b1168     d3d8d:precomp.obj
 0003:0004db84       ??_C@_0BF@BAHICDJE@STENCIL_WRITE_ENABLE?$AA@ 005b1184     d3d8d:precomp.obj
 0003:0004dba0       ??_C@_08CPHLFKMF@Z_FORMAT?$AA@ 005b11a0     d3d8d:precomp.obj
 0003:0004dbac       ??_C@_0BF@OADKEIJL@Z_PERSPECTIVE_ENABLE?$AA@ 005b11ac     d3d8d:precomp.obj
 0003:0004dbc8       ??_C@_0BD@MOCHDPFB@TEXTUREPERSPECTIVE?$AA@ 005b11c8     d3d8d:precomp.obj
 0003:0004dbe0       ??_C@_0BD@IMOBKENL@PREMULTIPLIEDALPHA?$AA@ 005b11e0     d3d8d:precomp.obj
 0003:0004dbf8       ??_C@_0BE@CFDFCCMG@COLOR_SPACE_CONVERT?$AA@ 005b11f8     d3d8d:precomp.obj
 0003:0004dc10       ??_C@_0BD@HKGLLICE@NV097_SET_CONTROL0?$AA@ 005b1210     d3d8d:precomp.obj
 0003:0004dc28       ??_C@_0BI@OMGDELEN@SPECULAR_ADD_INVERT_R12?$AA@ 005b1228     d3d8d:precomp.obj
 0003:0004dc44       ??_C@_0BH@KMACPPEF@SPECULAR_ADD_INVERT_R5?$AA@ 005b1244     d3d8d:precomp.obj
 0003:0004dc60       ??_C@_0P@EBKKDIK@SPECULAR_CLAMP?$AA@ 005b1260     d3d8d:precomp.obj
 0003:0004dc74       ??_C@_08KNBFCACN@G_SOURCE?$AA@ 005b1274     d3d8d:precomp.obj
 0003:0004dc80       ??_C@_07GJPJLDCD@G_ALPHA?$AA@ 005b1280     d3d8d:precomp.obj
 0003:0004dc8c       ??_C@_09CHCKACEG@G_INVERSE?$AA@ 005b128c     d3d8d:precomp.obj
 0003:0004dc98       ??_C@_08LKGODEGO@F_SOURCE?$AA@ 005b1298     d3d8d:precomp.obj
 0003:0004dca4       ??_C@_07KFFDLDLN@F_ALPHA?$AA@ 005b12a4     d3d8d:precomp.obj
 0003:0004dcb0       ??_C@_09MIOIGJHI@F_INVERSE?$AA@ 005b12b0     d3d8d:precomp.obj
 0003:0004dcbc       ??_C@_08IDODAIKL@E_SOURCE?$AA@ 005b12bc     d3d8d:precomp.obj
 0003:0004dcc8       ??_C@_07CLNMLEFO@E_ALPHA?$AA@ 005b12c8     d3d8d:precomp.obj
 0003:0004dcd4       ??_C@_09CDNPNCHL@E_INVERSE?$AA@ 005b12d4     d3d8d:precomp.obj
 0003:0004dce0       ??_C@_0CE@EAHKDCDN@NV097_SET_COMBINER_SPECULAR_FOG_@ 005b12e0     d3d8d:precomp.obj
 0003:0004dd0c       ??_C@_09MMBNLJEF@D_INVERSE?$AA@ 005b130c     d3d8d:precomp.obj
 0003:0004dd18       ??_C@_09COMBKCDM@C_INVERSE?$AA@ 005b1318     d3d8d:precomp.obj
 0003:0004dd24       ??_C@_09MBADMJAC@B_INVERSE?$AA@ 005b1324     d3d8d:precomp.obj
 0003:0004dd30       ??_C@_09CKDEHCAB@A_INVERSE?$AA@ 005b1330     d3d8d:precomp.obj
 0003:0004dd3c       ??_C@_0CE@FJGBADHM@NV097_SET_COMBINER_SPECULAR_FOG_@ 005b133c     d3d8d:precomp.obj
 0003:0004dd68       ??_C@_06JNKBJING@CD_DST?$AA@ 005b1368     d3d8d:precomp.obj
 0003:0004dd70       ??_C@_06NMGHGKOC@AB_DST?$AA@ 005b1370     d3d8d:precomp.obj
 0003:0004dd78       ??_C@_07JNEHJENI@SUM_DST?$AA@ 005b1378     d3d8d:precomp.obj
 0003:0004dd84       ??_C@_0L@BAHEEKJK@MUX_ENABLE?$AA@ 005b1384     d3d8d:precomp.obj
 0003:0004dd94       ??_C@_09COBGLBMG@OPERATION?$AA@ 005b1394     d3d8d:precomp.obj
 0003:0004dda0       ??_C@_0BN@GIJGJCOE@NV097_SET_COMBINER_ALPHA_OCW?$AA@ 005b13a0     d3d8d:precomp.obj
 0003:0004ddc4       ??_C@_0BL@NIOGFHCP@NV097_SET_COMBINER_FACTOR1?$AA@ 005b13c4     d3d8d:precomp.obj
 0003:0004dde4       ??_C@_05ELNMJPED@ALPHA?$AA@ 005b13e4     d3d8d:precomp.obj
 0003:0004ddec       ??_C@_03FNPLCCOA@RED?$AA@  005b13ec     d3d8d:precomp.obj
 0003:0004ddf0       ??_C@_05KKNCHNIM@GREEN?$AA@ 005b13f0     d3d8d:precomp.obj
 0003:0004ddf8       ??_C@_04CNFFLDFF@BLUE?$AA@ 005b13f8     d3d8d:precomp.obj
 0003:0004de00       ??_C@_0BL@MBPNGGGO@NV097_SET_COMBINER_FACTOR0?$AA@ 005b1400     d3d8d:precomp.obj
 0003:0004de20       ??_C@_0BN@BLHEELBP@NV097_SET_COMBINER_COLOR_ICW?$AA@ 005b1420     d3d8d:precomp.obj
 0003:0004de44       ??_C@_08JEJIBMOI@D_SOURCE?$AA@ 005b1444     d3d8d:precomp.obj
 0003:0004de50       ??_C@_07OHHGLEMA@D_ALPHA?$AA@ 005b1450     d3d8d:precomp.obj
 0003:0004de5c       ??_C@_05MCCKHEHP@D_MAP?$AA@ 005b145c     d3d8d:precomp.obj
 0003:0004de64       ??_C@_08PAPJHBCB@C_SOURCE?$AA@ 005b1464     d3d8d:precomp.obj
 0003:0004de70       ??_C@_07ONLDLNNJ@C_ALPHA?$AA@ 005b1470     d3d8d:precomp.obj
 0003:0004de7c       ??_C@_05NPCPEEMH@C_MAP?$AA@ 005b147c     d3d8d:precomp.obj
 0003:0004de84       ??_C@_08OHICGFGC@B_SOURCE?$AA@ 005b1484     d3d8d:precomp.obj
 0003:0004de90       ??_C@_07CBBJLNEH@B_ALPHA?$AA@ 005b1490     d3d8d:precomp.obj
 0003:0004de9c       ??_C@_05BEHDJHGC@B_MAP?$AA@ 005b149c     d3d8d:precomp.obj
 0003:0004dea4       ??_C@_08NOAPFJKH@A_SOURCE?$AA@ 005b14a4     d3d8d:precomp.obj
 0003:0004deb0       ??_C@_07KPJGLKKE@A_ALPHA?$AA@ 005b14b0     d3d8d:precomp.obj
 0003:0004debc       ??_C@_05JCOHOFMM@A_MAP?$AA@ 005b14bc     d3d8d:precomp.obj
 0003:0004dec4       ??_C@_0BN@ENPNMNDI@NV097_SET_COMBINER_ALPHA_ICW?$AA@ 005b14c4     d3d8d:precomp.obj
 0003:0004dee8       ??_C@_0BO@HDCHDAAK@NV097_SET_SURFACE_ZETA_OFFSET?$AA@ 005b14e8     d3d8d:precomp.obj
 0003:0004df0c       ??_C@_0BP@DFNCENEJ@NV097_SET_SURFACE_COLOR_OFFSET?$AA@ 005b150c     d3d8d:precomp.obj
 0003:0004df34       ??_C@_04GFGDIPKP@ZETA?$AA@ 005b1534     d3d8d:precomp.obj
 0003:0004df3c       ??_C@_05DPNLPLKI@COLOR?$AA@ 005b153c     d3d8d:precomp.obj
 0003:0004df44       ??_C@_0BI@HFNFMJJN@NV097_SET_SURFACE_PITCH?$AA@ 005b1544     d3d8d:precomp.obj
 0003:0004df60       ??_C@_06LJJMJONE@HEIGHT?$AA@ 005b1560     d3d8d:precomp.obj
 0003:0004df68       ??_C@_01NFFPALBN@Y?$AA@    005b1568     d3d8d:precomp.obj
 0003:0004df6c       ??_C@_0CA@ELFKILKJ@NV097_SET_SURFACE_CLIP_VERTICAL?$AA@ 005b156c     d3d8d:precomp.obj
 0003:0004df94       ??_C@_05ENDGNACA@WIDTH?$AA@ 005b1594     d3d8d:precomp.obj
 0003:0004df9c       ??_C@_01MMEEDKFM@X?$AA@    005b159c     d3d8d:precomp.obj
 0003:0004dfa0       ??_C@_0CC@BCCOAENL@NV097_SET_SURFACE_CLIP_HORIZONTA@ 005b15a0     d3d8d:precomp.obj
 0003:0004dfc8       ??_C@_0BN@PBCDOEKM@NV097_SET_CONTEXT_DMA_REPORT?$AA@ 005b15c8     d3d8d:precomp.obj
 0003:0004dfec       ??_C@_0CA@NJMNAFIL@NV097_SET_CONTEXT_DMA_SEMAPHORE?$AA@ 005b15ec     d3d8d:precomp.obj
 0003:0004e014       ??_C@_0BP@DLAOCGPK@NV097_SET_CONTEXT_DMA_VERTEX_B?$AA@ 005b1614     d3d8d:precomp.obj
 0003:0004e03c       ??_C@_0BP@BACDHFDJ@NV097_SET_CONTEXT_DMA_VERTEX_A?$AA@ 005b163c     d3d8d:precomp.obj
 0003:0004e064       ??_C@_0BL@EICGHCIL@NV097_SET_CONTEXT_DMA_ZETA?$AA@ 005b1664     d3d8d:precomp.obj
 0003:0004e084       ??_C@_0BM@DPFFKIE@NV097_SET_CONTEXT_DMA_COLOR?$AA@ 005b1684     d3d8d:precomp.obj
 0003:0004e0a8       ??_C@_0BM@PAIJOOFG@NV097_SET_CONTEXT_DMA_STATE?$AA@ 005b16a8     d3d8d:precomp.obj
 0003:0004e0cc       ??_C@_0BI@BAALFGGH@NV097_SET_CONTEXT_DMA_B?$AA@ 005b16cc     d3d8d:precomp.obj
 0003:0004e0e8       ??_C@_0BI@DLCGAFKE@NV097_SET_CONTEXT_DMA_A?$AA@ 005b16e8     d3d8d:precomp.obj
 0003:0004e104       ??_C@_0BP@IMCDLBLI@NV097_SET_CONTEXT_DMA_NOTIFIES?$AA@ 005b1704     d3d8d:precomp.obj
 0003:0004e12c       ??_C@_0BB@EFOELFGO@NV097_FLIP_STALL?$AA@ 005b172c     d3d8d:precomp.obj
 0003:0004e140       ??_C@_0BL@PLLKFIGN@NV097_FLIP_INCREMENT_WRITE?$AA@ 005b1740     d3d8d:precomp.obj
 0003:0004e160       ??_C@_0BG@DKHMBOF@NV097_SET_FLIP_MODULO?$AA@ 005b1760     d3d8d:precomp.obj
 0003:0004e17c       ??_C@_0BF@OPBHMOOO@NV097_SET_FLIP_WRITE?$AA@ 005b177c     d3d8d:precomp.obj
 0003:0004e198       ??_C@_0BE@IFJHNCOD@NV097_SET_FLIP_READ?$AA@ 005b1798     d3d8d:precomp.obj
 0003:0004e1b0       ??_C@_0BB@KNNEBDDK@NV097_PM_TRIGGER?$AA@ 005b17b0     d3d8d:precomp.obj
 0003:0004e1c4       ??_C@_0BE@EMDOAHMO@NV097_WAIT_FOR_IDLE?$AA@ 005b17c4     d3d8d:precomp.obj
 0003:0004e1dc       ??_C@_08JHHIJFJE@GETSTATE?$AA@ 005b17dc     d3d8d:precomp.obj
 0003:0004e1e8       ??_C@_0BA@HPBOPOPE@NV097_GET_STATE?$AA@ 005b17e8     d3d8d:precomp.obj
 0003:0004e1fc       ??_C@_01FCMHBHNC@V?$AA@    005b17fc     d3d8d:precomp.obj
 0003:0004e200       ??_C@_0BJ@KODGDHHD@NV097_SET_WARNING_ENABLE?$AA@ 005b1800     d3d8d:precomp.obj
 0003:0004e220       ??_C@_04KDPJLEDB@TYPE?$AA@ 005b1820     d3d8d:precomp.obj
 0003:0004e228       ??_C@_0N@MAKHKKFL@NV097_NOTIFY?$AA@ 005b1828     d3d8d:precomp.obj
 0003:0004e238       ??_C@_04PCJGBDOP@Zero?$AA@ 005b1838     d3d8d:precomp.obj
 0003:0004e240       ??_C@_0BD@IJMBNHPO@NV097_NO_OPERATION?$AA@ 005b1840     d3d8d:precomp.obj
 0003:0004e258       ??_C@_03HIPFDOEB@D3D?$AA@  005b1858     d3d8d:debug.obj
 0003:0004ef38       ??_C@_09NJHEAKNJ@RESULTARG?$AA@ 005b2538     d3d8d:stats.obj
 0003:0004ef44       ??_C@_09BNGJABHD@ALPHAARG0?$AA@ 005b2544     d3d8d:stats.obj
 0003:0004ef50       ??_C@_09ELOAIHFE@COLORARG0?$AA@ 005b2550     d3d8d:stats.obj
 0003:0004ef5c       ??_C@_08FOGBOEJL@ADDRESSW?$AA@ 005b255c     d3d8d:stats.obj
 0003:0004ef68       ??_C@_0BG@ONDPMHDF@TEXTURETRANSFORMFLAGS?$AA@ 005b2568     d3d8d:stats.obj
 0003:0004ef84       ??_C@_0P@LKPKGDAC@BUMPENVLOFFSET?$AA@ 005b2584     d3d8d:stats.obj
 0003:0004ef98       ??_C@_0O@HAAKADHN@BUMPENVLSCALE?$AA@ 005b2598     d3d8d:stats.obj
 0003:0004efa8       ??_C@_0O@BPHLIGBH@MAXANISOTROPY?$AA@ 005b25a8     d3d8d:stats.obj
 0003:0004efb8       ??_C@_0M@IBELFJEO@MAXMIPLEVEL?$AA@ 005b25b8     d3d8d:stats.obj
 0003:0004efc8       ??_C@_0O@LMMLNGGL@MIPMAPLODBIAS?$AA@ 005b25c8     d3d8d:stats.obj
 0003:0004efd8       ??_C@_09HIBKBLKE@MIPFILTER?$AA@ 005b25d8     d3d8d:stats.obj
 0003:0004efe4       ??_C@_09BBCLDILN@MINFILTER?$AA@ 005b25e4     d3d8d:stats.obj
 0003:0004eff0       ??_C@_09LFLMIBIO@MAGFILTER?$AA@ 005b25f0     d3d8d:stats.obj
 0003:0004effc       ??_C@_0M@IHIMGIEL@BORDERCOLOR?$AA@ 005b25fc     d3d8d:stats.obj
 0003:0004f00c       ??_C@_08EHHKNFNK@ADDRESSV?$AA@ 005b260c     d3d8d:stats.obj
 0003:0004f018       ??_C@_08GMFHIGBJ@ADDRESSU?$AA@ 005b2618     d3d8d:stats.obj
 0003:0004f024       ??_C@_0O@NDJAGMKB@TEXCOORDINDEX?$AA@ 005b2624     d3d8d:stats.obj
 0003:0004f034       ??_C@_0N@LEJDFAJA@BUMPENVMAT11?$AA@ 005b2634     d3d8d:stats.obj
 0003:0004f044       ??_C@_0N@KNIIGBNB@BUMPENVMAT10?$AA@ 005b2644     d3d8d:stats.obj
 0003:0004f054       ??_C@_0N@LFFBDKKH@BUMPENVMAT01?$AA@ 005b2654     d3d8d:stats.obj
 0003:0004f064       ??_C@_0N@KMEKALOG@BUMPENVMAT00?$AA@ 005b2664     d3d8d:stats.obj
 0003:0004f074       ??_C@_09CPFPGDPB@ALPHAARG2?$AA@ 005b2674     d3d8d:stats.obj
 0003:0004f080       ??_C@_09EHCDADC@ALPHAARG1?$AA@ 005b2680     d3d8d:stats.obj
 0003:0004f08c       ??_C@_07HKJJEOGG@ALPHAOP?$AA@ 005b268c     d3d8d:stats.obj
 0003:0004f098       ??_C@_09HJNGOFNG@COLORARG2?$AA@ 005b2698     d3d8d:stats.obj
 0003:0004f0a4       ??_C@_09FCPLLGBF@COLORARG1?$AA@ 005b26a4     d3d8d:stats.obj
 0003:0004f0b0       ??_C@_07INMMLFAH@COLOROP?$AA@ 005b26b0     d3d8d:stats.obj
 0003:0004f0bc       ??_C@_07BPJDNPDP@BLENDOP?$AA@ 005b26bc     d3d8d:stats.obj
 0003:0004f0c8       ??_C@_0BB@KOJBIKMA@COLORWRITEENABLE?$AA@ 005b26c8     d3d8d:stats.obj
 0003:0004f0dc       ??_C@_0O@HPIDPBID@POINTSIZE_MAX?$AA@ 005b26dc     d3d8d:stats.obj
 0003:0004f0ec       ??_C@_0O@JNNNMPPB@PATCHSEGMENTS?$AA@ 005b26ec     d3d8d:stats.obj
 0003:0004f0fc       ??_C@_0P@FDMCFNLL@PATCHEDGESTYLE?$AA@ 005b26fc     d3d8d:stats.obj
 0003:0004f110       ??_C@_0BA@EOIGANJC@MULTISAMPLEMASK?$AA@ 005b2710     d3d8d:stats.obj
 0003:0004f124       ??_C@_0BF@NFOEAMCN@MULTISAMPLEANTIALIAS?$AA@ 005b2724     d3d8d:stats.obj
 0003:0004f140       ??_C@_0N@FOANIMIK@POINTSCALE_C?$AA@ 005b2740     d3d8d:stats.obj
 0003:0004f150       ??_C@_0N@EHBGLNML@POINTSCALE_B?$AA@ 005b2750     d3d8d:stats.obj
 0003:0004f160       ??_C@_0N@GMDLOOAI@POINTSCALE_A?$AA@ 005b2760     d3d8d:stats.obj
 0003:0004f170       ??_C@_0BB@IMIGEIPA@POINTSCALEENABLE?$AA@ 005b2770     d3d8d:stats.obj
 0003:0004f184       ??_C@_0BC@HKMABPOH@POINTSPRITEENABLE?$AA@ 005b2784     d3d8d:stats.obj
 0003:0004f19c       ??_C@_0O@GNAIBFOM@POINTSIZE_MIN?$AA@ 005b279c     d3d8d:stats.obj
 0003:0004f1ac       ??_C@_09GEDJPCJO@POINTSIZE?$AA@ 005b27ac     d3d8d:stats.obj
 0003:0004f1b8       ??_C@_0M@IOCDMCGM@VERTEXBLEND?$AA@ 005b27b8     d3d8d:stats.obj
 0003:0004f1c8       ??_C@_0BH@OFPGONAA@EMISSIVEMATERIALSOURCE?$AA@ 005b27c8     d3d8d:stats.obj
 0003:0004f1e4       ??_C@_0BG@BIIACLJD@AMBIENTMATERIALSOURCE?$AA@ 005b27e4     d3d8d:stats.obj
 0003:0004f200       ??_C@_0BH@NAIFGNHG@SPECULARMATERIALSOURCE?$AA@ 005b2800     d3d8d:stats.obj
 0003:0004f21c       ??_C@_0BG@CPIBGMAH@DIFFUSEMATERIALSOURCE?$AA@ 005b281c     d3d8d:stats.obj
 0003:0004f238       ??_C@_0BB@DMDBLADF@NORMALIZENORMALS?$AA@ 005b2838     d3d8d:stats.obj
 0003:0004f24c       ??_C@_0M@GGOCEFHL@LOCALVIEWER?$AA@ 005b284c     d3d8d:stats.obj
 0003:0004f25c       ??_C@_0M@JNGLFIB@COLORVERTEX?$AA@ 005b285c     d3d8d:stats.obj
 0003:0004f26c       ??_C@_07EFFMPHJG@AMBIENT?$AA@ 005b286c     d3d8d:stats.obj
 0003:0004f278       ??_C@_08JLJGAGMG@LIGHTING?$AA@ 005b2878     d3d8d:stats.obj
 0003:0004f284       ??_C@_05KGBKIOGA@WRAP3?$AA@ 005b2884     d3d8d:stats.obj
 0003:0004f28c       ??_C@_05LPABLPCB@WRAP2?$AA@ 005b288c     d3d8d:stats.obj
 0003:0004f294       ??_C@_05JECMOMOC@WRAP1?$AA@ 005b2894     d3d8d:stats.obj
 0003:0004f29c       ??_C@_05INDHNNKD@WRAP0?$AA@ 005b289c     d3d8d:stats.obj
 0003:0004f2a4       ??_C@_0O@GLBNFMOK@TEXTUREFACTOR?$AA@ 005b28a4     d3d8d:stats.obj
 0003:0004f2b4       ??_C@_0BB@HGHJGPPM@STENCILWRITEMASK?$AA@ 005b28b4     d3d8d:stats.obj
 0003:0004f2c8       ??_C@_0M@JJMMJBIP@STENCILMASK?$AA@ 005b28c8     d3d8d:stats.obj
 0003:0004f2d8       ??_C@_0L@BMAIKEBK@STENCILREF?$AA@ 005b28d8     d3d8d:stats.obj
 0003:0004f2e8       ??_C@_0M@ONEANKHN@STENCILFUNC?$AA@ 005b28e8     d3d8d:stats.obj
 0003:0004f2f8       ??_C@_0M@IDKHFKOF@STENCILPASS?$AA@ 005b28f8     d3d8d:stats.obj
 0003:0004f308       ??_C@_0N@HEDFPHGA@STENCILZFAIL?$AA@ 005b2908     d3d8d:stats.obj
 0003:0004f318       ??_C@_0M@LAOMBAPP@STENCILFAIL?$AA@ 005b2918     d3d8d:stats.obj
 0003:0004f328       ??_C@_0O@GKAMAGKE@STENCILENABLE?$AA@ 005b2928     d3d8d:stats.obj
 0003:0004f338       ??_C@_0P@EELMKGFJ@RANGEFOGENABLE?$AA@ 005b2938     d3d8d:stats.obj
 0003:0004f34c       ??_C@_05MHMJIADD@ZBIAS?$AA@ 005b294c     d3d8d:stats.obj
 0003:0004f354       ??_C@_0O@ENIMOEIA@EDGEANTIALIAS?$AA@ 005b2954     d3d8d:stats.obj
 0003:0004f364       ??_C@_0L@GIBCJAFE@FOGDENSITY?$AA@ 005b2964     d3d8d:stats.obj
 0003:0004f374       ??_C@_06BDEONOOG@FOGEND?$AA@ 005b2974     d3d8d:stats.obj
 0003:0004f37c       ??_C@_08BAKBEEOO@FOGSTART?$AA@ 005b297c     d3d8d:stats.obj
 0003:0004f388       ??_C@_0N@HHOOJBN@FOGTABLEMODE?$AA@ 005b2988     d3d8d:stats.obj
 0003:0004f398       ??_C@_08LEIJKPJO@FOGCOLOR?$AA@ 005b2998     d3d8d:stats.obj
 0003:0004f3a4       ??_C@_0P@KHHIJEKI@SPECULARENABLE?$AA@ 005b29a4     d3d8d:stats.obj
 0003:0004f3b8       ??_C@_09COMDPICF@FOGENABLE?$AA@ 005b29b8     d3d8d:stats.obj
 0003:0004f3c4       ??_C@_0BB@LJLBKFFE@ALPHABLENDENABLE?$AA@ 005b29c4     d3d8d:stats.obj
 0003:0004f3d8       ??_C@_0N@GFBIILEJ@DITHERENABLE?$AA@ 005b29d8     d3d8d:stats.obj
 0003:0004f3e8       ??_C@_09DJFNPEGA@ALPHAFUNC?$AA@ 005b29e8     d3d8d:stats.obj
 0003:0004f3f4       ??_C@_08LKBGFLHJ@ALPHAREF?$AA@ 005b29f4     d3d8d:stats.obj
 0003:0004f400       ??_C@_05GJBIJLLI@ZFUNC?$AA@ 005b2a00     d3d8d:stats.obj
 0003:0004f408       ??_C@_08IBJHLGOE@CULLMODE?$AA@ 005b2a08     d3d8d:stats.obj
 0003:0004f414       ??_C@_09IOFKNDHB@DESTBLEND?$AA@ 005b2a14     d3d8d:stats.obj
 0003:0004f420       ??_C@_08KNIBJBFG@SRCBLEND?$AA@ 005b2a20     d3d8d:stats.obj
 0003:0004f42c       ??_C@_0BA@NODJIODI@ALPHATESTENABLE?$AA@ 005b2a2c     d3d8d:stats.obj
 0003:0004f440       ??_C@_0N@EGCNALM@ZWRITEENABLE?$AA@ 005b2a40     d3d8d:stats.obj
 0003:0004f450       ??_C@_09LIHDEJNE@SHADEMODE?$AA@ 005b2a50     d3d8d:stats.obj
 0003:0004f45c       ??_C@_08OABENHMP@FILLMODE?$AA@ 005b2a5c     d3d8d:stats.obj
 0003:0004f468       ??_C@_07NNFKNAPB@ZENABLE?$AA@ 005b2a68     d3d8d:stats.obj
 0003:0004f474       ??_C@_0P@CKFOMMB@D3DFIXUP_RESET?$AA@ 005b2a74     d3d8d:stats.obj
 0003:0004f488       ??_C@_0BC@BLJPNOIF@D3DFIXUP_GETSPACE?$AA@ 005b2a88     d3d8d:stats.obj
 0003:0004f4a0       ??_C@_0BB@PDPFLIEI@D3DFIXUP_GETSIZE?$AA@ 005b2aa0     d3d8d:stats.obj
 0003:0004f4b4       ??_C@_0BF@DOLFDKNM@D3DPUSHBUFFER_VERIFY?$AA@ 005b2ab4     d3d8d:stats.obj
 0003:0004f4d0       ??_C@_0CD@MGIIDEOK@D3DPUSHBUFFER_SETVERTEXSHADERINP@ 005b2ad0     d3d8d:stats.obj
 0003:0004f4fc       ??_C@_0CG@MDHLCEBJ@D3DPUSHBUFFER_SETVERTEXSHADERCON@ 005b2afc     d3d8d:stats.obj
 0003:0004f52c       ??_C@_0CG@MJDOKEKM@D3DPUSHBUFFER_SETVERTEXBLENDMODE@ 005b2b2c     d3d8d:stats.obj
 0003:0004f55c       ??_C@_0BJ@NBJMMODO@D3DPUSHBUFFER_SETTEXTURE?$AA@ 005b2b5c     d3d8d:stats.obj
 0003:0004f57c       ??_C@_0BO@GAFKFNDD@D3DPUSHBUFFER_SETRENDERTARGET?$AA@ 005b2b7c     d3d8d:stats.obj
 0003:0004f5a0       ??_C@_0BJ@NIGPABLP@D3DPUSHBUFFER_SETPALETTE?$AA@ 005b2ba0     d3d8d:stats.obj
 0003:0004f5c0       ??_C@_0BL@IBBFHIGH@D3DPUSHBUFFER_SETMODELVIEW?$AA@ 005b2bc0     d3d8d:stats.obj
 0003:0004f5e0       ??_C@_0BM@MLFLHIDC@D3DPUSHBUFFER_RUNPUSHBUFFER?$AA@ 005b2be0     d3d8d:stats.obj
 0003:0004f604       ??_C@_0BD@BAACLFJP@D3DPUSHBUFFER_JUMP?$AA@ 005b2c04     d3d8d:stats.obj
 0003:0004f61c       ??_C@_0CA@DCECJFNO@D3DPUSHBUFFER_ENDVISIBILITYTEST?$AA@ 005b2c1c     d3d8d:stats.obj
 0003:0004f644       ??_C@_0BH@DMNOFFGM@D3DPUSHBUFFER_ENDFIXUP?$AA@ 005b2c44     d3d8d:stats.obj
 0003:0004f660       ??_C@_0BJ@KPCMMDBF@D3DPUSHBUFFER_BEGINFIXUP?$AA@ 005b2c60     d3d8d:stats.obj
 0003:0004f680       ??_C@_0BA@EAFFGDHJ@D3DPALETTE_LOCK?$AA@ 005b2c80     d3d8d:stats.obj
 0003:0004f694       ??_C@_0BD@LDJBGEGJ@D3DPALETTE_GETSIZE?$AA@ 005b2c94     d3d8d:stats.obj
 0003:0004f6ac       ??_C@_0BE@MKPAHHEF@D3DSURFACE_LOCKRECT?$AA@ 005b2cac     d3d8d:stats.obj
 0003:0004f6c4       ??_C@_0BD@JGEPAMBC@D3DSURFACE_GETDESC?$AA@ 005b2cc4     d3d8d:stats.obj
 0003:0004f6dc       ??_C@_0BI@CKOODHGE@D3DSURFACE_GETCONTAINER?$AA@ 005b2cdc     d3d8d:stats.obj
 0003:0004f6f8       ??_C@_0BC@BLMEPDDF@D3DVOLUME_LOCKBOX?$AA@ 005b2cf8     d3d8d:stats.obj
 0003:0004f710       ??_C@_0BC@FPIALMOI@D3DVOLUME_GETDESC?$AA@ 005b2d10     d3d8d:stats.obj
 0003:0004f728       ??_C@_0BH@LFNDIMHI@D3DVOLUME_GETCONTAINER?$AA@ 005b2d28     d3d8d:stats.obj
 0003:0004f744       ??_C@_0BH@GDOCMOJO@D3DINDEXBUFFER_GETDESC?$AA@ 005b2d44     d3d8d:stats.obj
 0003:0004f760       ??_C@_0BF@LLHCKPGB@D3DVERTEXBUFFER_LOCK?$AA@ 005b2d60     d3d8d:stats.obj
 0003:0004f77c       ??_C@_0BI@KCHMNDFA@D3DVERTEXBUFFER_GETDESC?$AA@ 005b2d7c     d3d8d:stats.obj
 0003:0004f798       ??_C@_0BI@KHMPDNPJ@D3DVOLUMETEXURE_LOCKBOX?$AA@ 005b2d98     d3d8d:stats.obj
 0003:0004f7b4       ??_C@_0BP@PMMOJLPJ@D3DVOLUMETEXURE_GETVOLUMELEVEL?$AA@ 005b2db4     d3d8d:stats.obj
 0003:0004f7dc       ??_C@_0BN@JJCONOIJ@D3DVOLUMETEXURE_GETLEVELDESC?$AA@ 005b2ddc     d3d8d:stats.obj
 0003:0004f800       ??_C@_0BI@EFOGCDAP@D3DCUBETEXTURE_LOCKRECT?$AA@ 005b2e00     d3d8d:stats.obj
 0003:0004f81c       ??_C@_0BM@GMCOCHM@D3DCUBETEXTURE_GETLEVELDESC?$AA@ 005b2e1c     d3d8d:stats.obj
 0003:0004f840       ??_C@_0CB@ENNAFLLC@D3DCUBETEXTURE_GETCUBEMAPSURFACE@ 005b2e40     d3d8d:stats.obj
 0003:0004f868       ??_C@_0BE@PJFNNJI@D3DTEXTURE_LOCKRECT?$AA@ 005b2e68     d3d8d:stats.obj
 0003:0004f880       ??_C@_0BL@INNFFDDD@D3DTEXTURE_GETSURFACELEVEL?$AA@ 005b2e80     d3d8d:stats.obj
 0003:0004f8a0       ??_C@_0BI@LBEOHAA@D3DTEXTURE_GETLEVELDESC?$AA@ 005b2ea0     d3d8d:stats.obj
 0003:0004f8bc       ??_C@_0BN@EHJNFCCL@D3DBASETEXTURE_GETLEVELCOUNT?$AA@ 005b2ebc     d3d8d:stats.obj
 0003:0004f8e0       ??_C@_0BL@KLNGOLKD@D3DRESOURCE_SETPRIVATEDATA?$AA@ 005b2ee0     d3d8d:stats.obj
 0003:0004f900       ??_C@_0BE@JJJNBDOE@D3DRESOURCE_RELEASE?$AA@ 005b2f00     d3d8d:stats.obj
 0003:0004f918       ??_C@_0BF@NNEBOMHO@D3DRESOURCE_REGISTER?$AA@ 005b2f18     d3d8d:stats.obj
 0003:0004f934       ??_C@_0BD@CIMGLEME@D3DRESOURCE_ISBUSY?$AA@ 005b2f34     d3d8d:stats.obj
 0003:0004f94c       ??_C@_0BE@IICINDEG@D3DRESOURCE_GETTYPE?$AA@ 005b2f4c     d3d8d:stats.obj
 0003:0004f964       ??_C@_0BL@GFMIBBIP@D3DRESOURCE_GETPRIVATEDATA?$AA@ 005b2f64     d3d8d:stats.obj
 0003:0004f984       ??_C@_0BG@JAHHHPCK@D3DRESOURCE_GETDEVICE?$AA@ 005b2f84     d3d8d:stats.obj
 0003:0004f9a0       ??_C@_0BM@EDBCPLOI@D3DRESOURCE_FREEPRIVATEDATA?$AA@ 005b2fa0     d3d8d:stats.obj
 0003:0004f9c4       ??_C@_0BO@HCLADHMB@D3DRESOURCE_BLOCKUNTILNOTBUSY?$AA@ 005b2fc4     d3d8d:stats.obj
 0003:0004f9e8       ??_C@_0BD@MCJMNEMF@D3DRESOURCE_ADDREF?$AA@ 005b2fe8     d3d8d:stats.obj
 0003:0004fa00       ??_C@_0BL@NEAKECMN@D3DDEVICE_SETTIMERCALLBACK?$AA@ 005b3000     d3d8d:stats.obj
 0003:0004fa20       ??_C@_0BK@BEPJEJDH@D3DDEVICE_GETPUSHDISTANCE?$AA@ 005b3020     d3d8d:stats.obj
 0003:0004fa40       ??_C@_0BK@GNJOELHJ@D3DDEVICE_SETWAITCALLBACK?$AA@ 005b3040     d3d8d:stats.obj
 0003:0004fa60       ??_C@_0BF@MOKDEPCJ@D3DDEVICE_GETSTIPPLE?$AA@ 005b3060     d3d8d:stats.obj
 0003:0004fa7c       ??_C@_0BF@NAIMPIGA@D3DDEVICE_SETSTIPPLE?$AA@ 005b307c     d3d8d:stats.obj
 0003:0004fa98       ??_C@_0BP@CDEDLCGA@D3DDEVICE_SETSOFTDISPLAYFILTER?$AA@ 005b3098     d3d8d:stats.obj
 0003:0004fac0       ??_C@_0BL@EMBIBPNI@D3DDEVICE_SETFLICKERFILTER?$AA@ 005b30c0     d3d8d:stats.obj
 0003:0004fae0       ??_C@_0BL@JKIEKLHF@D3DDEVICE_GETOVERSCANCOLOR?$AA@ 005b30e0     d3d8d:stats.obj
 0003:0004fb00       ??_C@_0BL@PONNBFMH@D3DDEVICE_SETOVERSCANCOLOR?$AA@ 005b3100     d3d8d:stats.obj
 0003:0004fb20       ??_C@_0BI@MFIHLIFL@D3DDEVICE_UPDATEOVERLAY?$AA@ 005b3120     d3d8d:stats.obj
 0003:0004fb3c       ??_C@_0BI@KHOMPGLO@D3DDEVICE_SWITCHTEXTURE?$AA@ 005b313c     d3d8d:stats.obj
 0003:0004fb58       ??_C@_0BC@PIJKAHCL@D3DDEVICE_SUSPEND?$AA@ 005b3158     d3d8d:stats.obj
 0003:0004fb70       ??_C@_0BG@OPOFFEJC@D3DDEVICE_SETVIEWPORT?$AA@ 005b3170     d3d8d:stats.obj
 0003:0004fb8c       ??_C@_0CD@BODFOKJO@D3DDEVICE_SETVERTICALBLANKCALLBA@ 005b318c     d3d8d:stats.obj
 0003:0004fbb8       ??_C@_0BP@JPBKFHOH@D3DDEVICE_SETVERTEXSHADERINPUT?$AA@ 005b31b8     d3d8d:stats.obj
 0003:0004fbe0       ??_C@_0CC@JLHCHNBP@D3DDEVICE_SETVERTEXSHADERCONSTAN@ 005b31e0     d3d8d:stats.obj
 0003:0004fc08       ??_C@_0BK@MLMDEIPP@D3DDEVICE_SETVERTEXSHADER?$AA@ 005b3208     d3d8d:stats.obj
 0003:0004fc28       ??_C@_0BN@OHEHPMID@D3DDEVICE_SETVERTEXDATACOLOR?$AA@ 005b3228     d3d8d:stats.obj
 0003:0004fc4c       ??_C@_0BL@EBFHLBIH@D3DDEVICE_SETVERTEXDATA4UB?$AA@ 005b324c     d3d8d:stats.obj
 0003:0004fc6c       ??_C@_0BK@JNEDGAJB@D3DDEVICE_SETVERTEXDATA4S?$AA@ 005b326c     d3d8d:stats.obj
 0003:0004fc8c       ??_C@_0BK@KKPGIGIF@D3DDEVICE_SETVERTEXDATA4F?$AA@ 005b328c     d3d8d:stats.obj
 0003:0004fcac       ??_C@_0BK@JJMOBMCD@D3DDEVICE_SETVERTEXDATA2S?$AA@ 005b32ac     d3d8d:stats.obj
 0003:0004fccc       ??_C@_0BK@KOHLPKDH@D3DDEVICE_SETVERTEXDATA2F?$AA@ 005b32cc     d3d8d:stats.obj
 0003:0004fcec       ??_C@_0CC@JBDHPNKK@D3DDEVICE_SETVERTEXBLENDMODELVIE@ 005b32ec     d3d8d:stats.obj
 0003:0004fd14       ??_C@_0BH@CKCPBOCN@D3DDEVICE_SETTRANSFORM?$AA@ 005b3314     d3d8d:stats.obj
 0003:0004fd30       ??_C@_0BC@CHIIFHAK@D3DDEVICE_SETTILE?$AA@ 005b3330     d3d8d:stats.obj
 0003:0004fd48       ??_C@_0CI@IABDEICE@D3DDEVICE_SETTEXTURESTATE_TEXCOO@ 005b3348     d3d8d:stats.obj
 0003:0004fd78       ??_C@_0CJ@JGIAFJPA@D3DDEVICE_SETTEXTURESTATE_PARAME@ 005b3378     d3d8d:stats.obj
 0003:0004fdac       ??_C@_0CI@ONMLCNOH@D3DDEVICE_SETTEXTURESTATE_COLORK@ 005b33ac     d3d8d:stats.obj
 0003:0004fddc       ??_C@_0CC@PAPCLHEG@D3DDEVICE_SETTEXTURESTATE_BUMPEN@ 005b33dc     d3d8d:stats.obj
 0003:0004fe04       ??_C@_0CG@IFMGHDKE@D3DDEVICE_SETTEXTURESTATE_BORDER@ 005b3404     d3d8d:stats.obj
 0003:0004fe34       ??_C@_0CI@ICMHPFOM@D3DDEVICE_SETTEXTURESTAGESTATENO@ 005b3434     d3d8d:stats.obj
 0003:0004fe64       ??_C@_0BF@HIMGPLF@D3DDEVICE_SETTEXTURE?$AA@ 005b3464     d3d8d:stats.obj
 0003:0004fe80       ??_C@_0BK@PNCKCIMM@D3DDEVICE_SETSWAPCALLBACK?$AA@ 005b3480     d3d8d:stats.obj
 0003:0004fea0       ??_C@_0BK@BMJDCPHH@D3DDEVICE_SETSTREAMSOURCE?$AA@ 005b34a0     d3d8d:stats.obj
 0003:0004fec0       ??_C@_0CA@NIHKLFC@D3DDEVICE_SETSHADERCONSTANTMODE?$AA@ 005b34c0     d3d8d:stats.obj
 0003:0004fee8       ??_C@_0BP@IMEHPMGL@D3DDEVICE_SETSCREENSPACEOFFSET?$AA@ 005b34e8     d3d8d:stats.obj
 0003:0004ff10       ??_C@_0BG@GAGCMJGA@D3DDEVICE_SETSCISSORS?$AA@ 005b3510     d3d8d:stats.obj
 0003:0004ff2c       ??_C@_0BK@JIPPGDDJ@D3DDEVICE_SETRENDERTARGET?$AA@ 005b352c     d3d8d:stats.obj
 0003:0004ff4c       ??_C@_0CC@KGCKLDDI@D3DDEVICE_SETRENDERSTATENOTINLIN@ 005b354c     d3d8d:stats.obj
 0003:0004ff74       ??_C@_0CF@ILOABJFP@D3DDEVICE_SETRENDERSTATE_SAMPLEA@ 005b3574     d3d8d:stats.obj
 0003:0004ffa0       ??_C@_0CH@KBHCLBIJ@D3DDEVICE_SETRENDERSTATE_STIPPLE@ 005b35a0     d3d8d:stats.obj
 0003:0004ffd0       ??_C@_0CO@FLPNJOIA@D3DDEVICE_SETRENDERSTATE_PRESENT@ 005b35d0     d3d8d:stats.obj
 0003:00050008       ??_C@_0CB@EEKONPMH@D3DDEVICE_SETRENDERSTATE_ZENABLE@ 005b3608     d3d8d:stats.obj
 0003:00050030       ??_C@_0BP@PLLMPJCJ@D3DDEVICE_SETRENDERSTATE_ZBIAS?$AA@ 005b3630     d3d8d:stats.obj
 0003:00050058       ??_C@_0CD@GIDKMOAK@D3DDEVICE_SETRENDERSTATE_YUVENAB@ 005b3658     d3d8d:stats.obj
 0003:00050084       ??_C@_0CF@KJDMCNHF@D3DDEVICE_SETRENDERSTATE_VERTEXB@ 005b3684     d3d8d:stats.obj
 0003:000500b0       ??_C@_0CK@GKLGKJCK@D3DDEVICE_SETRENDERSTATE_TWOSIDE@ 005b36b0     d3d8d:stats.obj
 0003:000500e4       ??_C@_0CH@MAKICNAE@D3DDEVICE_SETRENDERSTATE_TEXTURE@ 005b36e4     d3d8d:stats.obj
 0003:00050114       ??_C@_0CF@JHPDPPOG@D3DDEVICE_SETRENDERSTATE_STENCIL@ 005b3714     d3d8d:stats.obj
 0003:00050140       ??_C@_0CH@MBLJHHEK@D3DDEVICE_SETRENDERSTATE_STENCIL@ 005b3740     d3d8d:stats.obj
 0003:00050170       ??_C@_0CL@PABCPPNJ@D3DDEVICE_SETRENDERSTATE_STENCIL@ 005b3770     d3d8d:stats.obj
 0003:000501a4       ??_C@_0CA@DKEHFILC@D3DDEVICE_SETRENDERSTATE_SIMPLE?$AA@ 005b37a4     d3d8d:stats.obj
 0003:000501cc       ??_C@_0CE@KICBAJOK@D3DDEVICE_SETRENDERSTATE_SHADOWF@ 005b37cc     d3d8d:stats.obj
 0003:000501f8       ??_C@_0CC@PPFIKIAC@D3DDEVICE_SETRENDERSTATE_ROPZREA@ 005b37f8     d3d8d:stats.obj
 0003:00050220       ??_C@_0CL@KEHFFNII@D3DDEVICE_SETRENDERSTATE_ROPZCMP@ 005b3820     d3d8d:stats.obj
 0003:00050254       ??_C@_0CI@KJGPJJG@D3DDEVICE_SETRENDERSTATE_PSTEXTU@ 005b3854     d3d8d:stats.obj
 0003:00050284       ??_C@_0CI@EMBINHHF@D3DDEVICE_SETRENDERSTATE_PARAMET@ 005b3884     d3d8d:stats.obj
 0003:000502b4       ??_C@_0CN@IMPNHIAF@D3DDEVICE_SETRENDERSTATE_OCCLUSI@ 005b38b4     d3d8d:stats.obj
 0003:000502ec       ??_C@_0CK@BCGCECIA@D3DDEVICE_SETRENDERSTATE_NORMALI@ 005b38ec     d3d8d:stats.obj
 0003:00050320       ??_C@_0DF@GOMDBAJI@D3DDEVICE_SETRENDERSTATE_MULTISA@ 005b3920     d3d8d:stats.obj
 0003:00050360       ??_C@_0CJ@MOEMNGKH@D3DDEVICE_SETRENDERSTATE_MULTISA@ 005b3960     d3d8d:stats.obj
 0003:00050394       ??_C@_0CJ@KJHJDJOP@D3DDEVICE_SETRENDERSTATE_MULTISA@ 005b3994     d3d8d:stats.obj
 0003:000503c8       ??_C@_0CO@EEIBGGD@D3DDEVICE_SETRENDERSTATE_MULTISA@ 005b39c8     d3d8d:stats.obj
 0003:00050400       ??_C@_0CB@MADKJNAE@D3DDEVICE_SETRENDERSTATE_LOGICOP@ 005b3a00     d3d8d:stats.obj
 0003:00050428       ??_C@_0CD@NKEONEJG@D3DDEVICE_SETRENDERSTATE_LINEWID@ 005b3a28     d3d8d:stats.obj
 0003:00050454       ??_C@_0CD@LCIJBCGC@D3DDEVICE_SETRENDERSTATE_FRONTFA@ 005b3a54     d3d8d:stats.obj
 0003:00050480       ??_C@_0CC@HLKKMOAI@D3DDEVICE_SETRENDERSTATE_FOGCOLO@ 005b3a80     d3d8d:stats.obj
 0003:000504a8       ??_C@_0CC@CPDHLGFJ@D3DDEVICE_SETRENDERSTATE_FILLMOD@ 005b3aa8     d3d8d:stats.obj
 0003:000504d0       ??_C@_0CH@OGDJJFGO@D3DDEVICE_SETRENDERSTATE_EDGEANT@ 005b3ad0     d3d8d:stats.obj
 0003:00050500       ??_C@_0CJ@PMCCGJMN@D3DDEVICE_SETRENDERSTATE_DXT1NOI@ 005b3b00     d3d8d:stats.obj
 0003:00050534       ??_C@_0CP@DFHAGOMB@D3DDEVICE_SETRENDERSTATE_DONOTCU@ 005b3b34     d3d8d:stats.obj
 0003:0005056c       ??_C@_0CC@EOLENHHC@D3DDEVICE_SETRENDERSTATE_CULLMOD@ 005b3b6c     d3d8d:stats.obj
 0003:00050594       ??_C@_0CG@DCMCGOAK@D3DDEVICE_SETRENDERSTATE_BACKFIL@ 005b3b94     d3d8d:stats.obj
 0003:000505c4       ??_C@_0CA@JICDLHHJ@D3DDEVICE_SETPIXELSHADERPROGRAM?$AA@ 005b3bc4     d3d8d:stats.obj
 0003:000505ec       ??_C@_0CB@DGFDCIPB@D3DDEVICE_SETPIXELSHADERCONSTANT@ 005b3bec     d3d8d:stats.obj
 0003:00050614       ??_C@_0BJ@CEPGHDNP@D3DDEVICE_SETPIXELSHADER?$AA@ 005b3c14     d3d8d:stats.obj
 0003:00050634       ??_C@_0BF@OHPKADE@D3DDEVICE_SETPALETTE?$AA@ 005b3c34     d3d8d:stats.obj
 0003:00050650       ??_C@_0BH@PILDHMIJ@D3DDEVICE_SETMODELVIEW?$AA@ 005b3c50     d3d8d:stats.obj
 0003:0005066c       ??_C@_0BG@FOPCCOKN@D3DDEVICE_SETMATERIAL?$AA@ 005b3c6c     d3d8d:stats.obj
 0003:00050688       ??_C@_0BD@OHJGNLN@D3DDEVICE_SETLIGHT?$AA@ 005b3c88     d3d8d:stats.obj
 0003:000506a0       ??_C@_0BF@HONCIGAH@D3DDEVICE_SETINDICES?$AA@ 005b3ca0     d3d8d:stats.obj
 0003:000506bc       ??_C@_0BH@MGALDIBA@D3DDEVICE_SETGAMMARAMP?$AA@ 005b3cbc     d3d8d:stats.obj
 0003:000506d8       ??_C@_0BN@GJNJGKHG@D3DDEVICE_SETDEPTHCLIPPLANES?$AA@ 005b3cd8     d3d8d:stats.obj
 0003:000506fc       ??_C@_0BK@KCNBHJGG@D3DDEVICE_SETBACKMATERIAL?$AA@ 005b3cfc     d3d8d:stats.obj
 0003:0005071c       ??_C@_0BN@DNNBOGBO@D3DDEVICE_SETBACKBUFFERSCALE?$AA@ 005b3d1c     d3d8d:stats.obj
 0003:00050740       ??_C@_0BB@HMOGFEML@D3DDEVICE_SENDCC?$AA@ 005b3d40     d3d8d:stats.obj
 0003:00050754       ??_C@_0BN@EBFKHJFA@D3DDEVICE_SELECTVERTEXSHADER?$AA@ 005b3d54     d3d8d:stats.obj
 0003:00050778       ??_C@_0BP@PMABMAKB@D3DDEVICE_RUNVERTEXSTATESHADER?$AA@ 005b3d78     d3d8d:stats.obj
 0003:000507a0       ??_C@_0BI@IMJABBEJ@D3DDEVICE_RUNPUSHBUFFER?$AA@ 005b3da0     d3d8d:stats.obj
 0003:000507bc       ??_C@_0BB@PGIALGDK@D3DDEVICE_RESUME?$AA@ 005b3dbc     d3d8d:stats.obj
 0003:000507d0       ??_C@_0BA@LIAANOKC@D3DDEVICE_RESET?$AA@ 005b3dd0     d3d8d:stats.obj
 0003:000507e4       ??_C@_0CD@PEPPEGLA@D3DDEVICE_READVERTEXSHADERCONSTA@ 005b3de4     d3d8d:stats.obj
 0003:00050810       ??_C@_0BL@FKKFFKLK@D3DDEVICE_PRIMEVERTEXCACHE?$AA@ 005b3e10     d3d8d:stats.obj
 0003:00050830       ??_C@_0BC@GLFPLHEB@D3DDEVICE_PRESENT?$AA@ 005b3e30     d3d8d:stats.obj
 0003:00050848       ??_C@_0BJ@KEDIHEOJ@D3DDEVICE_PERSISTDISPLAY?$AA@ 005b3e48     d3d8d:stats.obj
 0003:00050868       ??_C@_0O@PMJMKAIJ@D3DDEVICE_NOP?$AA@ 005b3e68     d3d8d:stats.obj
 0003:00050878       ??_C@_0BM@CHLAECPP@D3DDEVICE_MULTIPLYTRANSFORM?$AA@ 005b3e78     d3d8d:stats.obj
 0003:0005089c       ??_C@_0CC@BDMGNANJ@D3DDEVICE_LOADVERTEXSHADERPROGRA@ 005b3e9c     d3d8d:stats.obj
 0003:000508c4       ??_C@_0BL@KIPEJAM@D3DDEVICE_LOADVERTEXSHADER?$AA@ 005b3ec4     d3d8d:stats.obj
 0003:000508e4       ??_C@_0BG@BKAEKLPM@D3DDEVICE_LIGHTENABLE?$AA@ 005b3ee4     d3d8d:stats.obj
 0003:00050900       ??_C@_0BJ@CMALIOBB@D3DDEVICE_KICKPUSHBUFFER?$AA@ 005b3f00     d3d8d:stats.obj
 0003:00050920       ??_C@_0BJ@NHFHDAGI@D3DDEVICE_ISFENCEPENDING?$AA@ 005b3f20     d3d8d:stats.obj
 0003:00050940       ??_C@_0BB@OLJJPCJN@D3DDEVICE_ISBUSY?$AA@ 005b3f40     d3d8d:stats.obj
 0003:00050954       ??_C@_0BG@CLAJENHP@D3DDEVICE_INSERTFENCE?$AA@ 005b3f54     d3d8d:stats.obj
 0003:00050970       ??_C@_0BJ@DLGLAIPM@D3DDEVICE_INSERTCALLBACK?$AA@ 005b3f70     d3d8d:stats.obj
 0003:00050990       ??_C@_0CC@LGFBBEBK@D3DDEVICE_GETVISIBILITYTESTRESUL@ 005b3f90     d3d8d:stats.obj
 0003:000509b8       ??_C@_0CE@EIBBMLME@D3DDEVICE_GETVIEWPORTOFFSETANDSC@ 005b3fb8     d3d8d:stats.obj
 0003:000509e4       ??_C@_0BG@OAPLICBB@D3DDEVICE_GETVIEWPORT?$AA@ 005b3fe4     d3d8d:stats.obj
 0003:00050a00       ??_C@_0BO@HIOCLJJD@D3DDEVICE_GETVERTEXSHADERTYPE?$AA@ 005b4000     d3d8d:stats.obj
 0003:00050a24       ??_C@_0BO@JHEMLHMK@D3DDEVICE_GETVERTEXSHADERSIZE?$AA@ 005b4024     d3d8d:stats.obj
 0003:00050a48       ??_C@_0BP@MGAHEBLA@D3DDEVICE_GETVERTEXSHADERINPUT?$AA@ 005b4048     d3d8d:stats.obj
 0003:00050a70       ??_C@_0CC@FNHOEOEJ@D3DDEVICE_GETVERTEXSHADERFUNCTIO@ 005b4070     d3d8d:stats.obj
 0003:00050a98       ??_C@_0CF@HMHODAHO@D3DDEVICE_GETVERTEXSHADERDECLARA@ 005b4098     d3d8d:stats.obj
 0003:00050ac4       ??_C@_0CC@INBPJMHN@D3DDEVICE_GETVERTEXSHADERCONSTAN@ 005b40c4     d3d8d:stats.obj
 0003:00050aec       ??_C@_0BK@PJNFDKOG@D3DDEVICE_GETVERTEXSHADER?$AA@ 005b40ec     d3d8d:stats.obj
 0003:00050b0c       ??_C@_0CC@IHFKBMMI@D3DDEVICE_GETVERTEXBLENDMODELVIE@ 005b410c     d3d8d:stats.obj
 0003:00050b34       ??_C@_0BH@FOJBNCGB@D3DDEVICE_GETTRANSFORM?$AA@ 005b4134     d3d8d:stats.obj
 0003:00050b50       ??_C@_0CB@BDDPAKH@D3DDEVICE_GETTILECOMPRESSIONTAGS@ 005b4150     d3d8d:stats.obj
 0003:00050b78       ??_C@_0BC@NPHJGINL@D3DDEVICE_GETTILE?$AA@ 005b4178     d3d8d:stats.obj
 0003:00050b90       ??_C@_0BP@FMJALMBL@D3DDEVICE_GETTEXTURESTAGESTATE?$AA@ 005b4190     d3d8d:stats.obj
 0003:00050bb8       ??_C@_0BF@BJKDNIPM@D3DDEVICE_GETTEXTURE?$AA@ 005b41b8     d3d8d:stats.obj
 0003:00050bd4       ??_C@_0BK@COIFFNGO@D3DDEVICE_GETSTREAMSOURCE?$AA@ 005b41d4     d3d8d:stats.obj
 0003:00050bf4       ??_C@_0CA@PINBHCBD@D3DDEVICE_GETSHADERCONSTANTMODE?$AA@ 005b41f4     d3d8d:stats.obj
 0003:00050c1c       ??_C@_0BP@NFFKOKDM@D3DDEVICE_GETSCREENSPACEOFFSET?$AA@ 005b421c     d3d8d:stats.obj
 0003:00050c44       ??_C@_0BG@GPHMBPOD@D3DDEVICE_GETSCISSORS?$AA@ 005b4244     d3d8d:stats.obj
 0003:00050c60       ??_C@_0BK@KKOJBBCA@D3DDEVICE_GETRENDERTARGET?$AA@ 005b4260     d3d8d:stats.obj
 0003:00050c80       ??_C@_0BJ@GGJCCHJB@D3DDEVICE_GETRENDERSTATE?$AA@ 005b4280     d3d8d:stats.obj
 0003:00050ca0       ??_C@_0BK@ELBEKPEJ@D3DDEVICE_GETRASTERSTATUS?$AA@ 005b42a0     d3d8d:stats.obj
 0003:00050cc0       ??_C@_0BO@JFPAJEO@D3DDEVICE_GETPUSHBUFFEROFFSET?$AA@ 005b42c0     d3d8d:stats.obj
 0003:00050ce4       ??_C@_0CG@LPDDCDBJ@D3DDEVICE_GETPROJECTIONVIEWPORTM@ 005b42e4     d3d8d:stats.obj
 0003:00050d14       ??_C@_0CB@OHBMNNBK@D3DDEVICE_GETPIXELSHADERFUNCTION@ 005b4314     d3d8d:stats.obj
 0003:00050d3c       ??_C@_0CB@DHHNAPCO@D3DDEVICE_GETPIXELSHADERCONSTANT@ 005b433c     d3d8d:stats.obj
 0003:00050d64       ??_C@_0BJ@OKOIIJPD@D3DDEVICE_GETPIXELSHADER?$AA@ 005b4364     d3d8d:stats.obj
 0003:00050d84       ??_C@_0BF@BAFABHHN@D3DDEVICE_GETPALETTE?$AA@ 005b4384     d3d8d:stats.obj
 0003:00050da0       ??_C@_0CB@KCEEJIME@D3DDEVICE_GETOVERLAYUPDATESTATUS@ 005b43a0     d3d8d:stats.obj
 0003:00050dc8       ??_C@_0BH@IMANLAMF@D3DDEVICE_GETMODELVIEW?$AA@ 005b43c8     d3d8d:stats.obj
 0003:00050de4       ??_C@_0BG@FBOMPICO@D3DDEVICE_GETMATERIAL?$AA@ 005b43e4     d3d8d:stats.obj
 0003:00050e00       ??_C@_0BJ@JGCAJEAO@D3DDEVICE_GETLIGHTENABLE?$AA@ 005b4400     d3d8d:stats.obj
 0003:00050e20       ??_C@_0BD@PPFFHOMA@D3DDEVICE_GETLIGHT?$AA@ 005b4420     d3d8d:stats.obj
 0003:00050e38       ??_C@_0BF@GAPNDBEO@D3DDEVICE_GETINDICES?$AA@ 005b4438     d3d8d:stats.obj
 0003:00050e54       ??_C@_0BH@LCLFPEFM@D3DDEVICE_GETGAMMARAMP?$AA@ 005b4454     d3d8d:stats.obj
 0003:00050e70       ??_C@_0BJ@NFDKHLMB@D3DDEVICE_GETDISPLAYMODE?$AA@ 005b4470     d3d8d:stats.obj
 0003:00050e90       ??_C@_0CA@NJDKENIF@D3DDEVICE_GETDISPLAYFIELDSTATUS?$AA@ 005b4490     d3d8d:stats.obj
 0003:00050eb8       ??_C@_0BG@CNCFGHLM@D3DDEVICE_GETDIRECT3D?$AA@ 005b44b8     d3d8d:stats.obj
 0003:00050ed4       ??_C@_0BI@HAHFHNED@D3DDEVICE_GETDEVICECAPS?$AA@ 005b44d4     d3d8d:stats.obj
 0003:00050ef0       ??_C@_0CB@GADDPEOP@D3DDEVICE_GETDEPTHSTENCILSURFACE@ 005b44f0     d3d8d:stats.obj
 0003:00050f18       ??_C@_0BN@JDPDFMJO@D3DDEVICE_GETDEPTHCLIPPLANES?$AA@ 005b4518     d3d8d:stats.obj
 0003:00050f3c       ??_C@_0CA@FIDFOPFG@D3DDEVICE_GETCREATIONPARAMETERS?$AA@ 005b453c     d3d8d:stats.obj
 0003:00050f64       ??_C@_0BG@IFGAKMFD@D3DDEVICE_GETCCSTATUS?$AA@ 005b4564     d3d8d:stats.obj
 0003:00050f80       ??_C@_0BK@JAMHALHP@D3DDEVICE_GETBACKMATERIAL?$AA@ 005b4580     d3d8d:stats.obj
 0003:00050fa0       ??_C@_0BN@MHPLNAPG@D3DDEVICE_GETBACKBUFFERSCALE?$AA@ 005b45a0     d3d8d:stats.obj
 0003:00050fc4       ??_C@_0BI@MGDJPJAF@D3DDEVICE_GETBACKBUFFER?$AA@ 005b45c4     d3d8d:stats.obj
 0003:00050fe0       ??_C@_0BL@MHPHIDMD@D3DDEVICE_FLUSHVERTEXCACHE?$AA@ 005b45e0     d3d8d:stats.obj
 0003:00051000       ??_C@_0BM@JMMJIFK@D3DDEVICE_ENDVISIBILITYTEST?$AA@ 005b4600     d3d8d:stats.obj
 0003:00051024       ??_C@_0BI@JKFFLLHN@D3DDEVICE_ENDSTATEBLOCK?$AA@ 005b4624     d3d8d:stats.obj
 0003:00051040       ??_C@_0BI@DGBGHGPN@D3DDEVICE_ENDPUSHBUFFER?$AA@ 005b4640     d3d8d:stats.obj
 0003:0005105c       ??_C@_0BC@NBBGONCA@D3DDEVICE_ENDPUSH?$AA@ 005b465c     d3d8d:stats.obj
 0003:00051074       ??_C@_0O@EPBJKOK@D3DDEVICE_END?$AA@ 005b4674     d3d8d:stats.obj
 0003:00051084       ??_C@_0BI@NIOMPOFA@D3DDEVICE_ENABLEOVERLAY?$AA@ 005b4684     d3d8d:stats.obj
 0003:000510a0       ??_C@_0BD@OIBKLEIF@D3DDEVICE_ENABLECC?$AA@ 005b46a0     d3d8d:stats.obj
 0003:000510b8       ??_C@_0BJ@BCMMINEE@D3DDEVICE_DRAWVERTICESUP?$AA@ 005b46b8     d3d8d:stats.obj
 0003:000510d8       ??_C@_0BH@MODOFCOB@D3DDEVICE_DRAWVERTICES?$AA@ 005b46d8     d3d8d:stats.obj
 0003:000510f4       ??_C@_0BH@DIPLFLLI@D3DDEVICE_DRAWTRIPATCH?$AA@ 005b46f4     d3d8d:stats.obj
 0003:00051110       ??_C@_0BI@PMADCLMH@D3DDEVICE_DRAWRECTPATCH?$AA@ 005b4710     d3d8d:stats.obj
 0003:0005112c       ??_C@_0CA@EJEAALLP@D3DDEVICE_DRAWINDEXEDVERTICESUP?$AA@ 005b472c     d3d8d:stats.obj
 0003:00051154       ??_C@_0BO@IODKNLFC@D3DDEVICE_DRAWINDEXEDVERTICES?$AA@ 005b4754     d3d8d:stats.obj
 0003:00051178       ??_C@_0BN@DMPIIEFO@D3DDEVICE_DELETEVERTEXSHADER?$AA@ 005b4778     d3d8d:stats.obj
 0003:0005119c       ??_C@_0BL@MHDFBNIE@D3DDEVICE_DELETESTATEBLOCK?$AA@ 005b479c     d3d8d:stats.obj
 0003:000511bc       ??_C@_0BM@HNGNIPEL@D3DDEVICE_DELETEPIXELSHADER?$AA@ 005b47bc     d3d8d:stats.obj
 0003:000511e0       ??_C@_0BG@ONOBABLN@D3DDEVICE_DELETEPATCH?$AA@ 005b47e0     d3d8d:stats.obj
 0003:000511fc       ??_C@_0BO@BNEAIPIG@D3DDEVICE_CREATEVOLUMETEXTURE?$AA@ 005b47fc     d3d8d:stats.obj
 0003:00051220       ??_C@_0BN@MMMJBDD@D3DDEVICE_CREATEVERTEXSHADER?$AA@ 005b4820     d3d8d:stats.obj
 0003:00051244       ??_C@_0BN@GKAEADJH@D3DDEVICE_CREATEVERTEXBUFFER?$AA@ 005b4844     d3d8d:stats.obj
 0003:00051268       ??_C@_0BI@DCOHCBAP@D3DDEVICE_CREATETEXTURE?$AA@ 005b4868     d3d8d:stats.obj
 0003:00051284       ??_C@_0BL@JDKHDPFA@D3DDEVICE_CREATESTATEBLOCK?$AA@ 005b4884     d3d8d:stats.obj
 0003:000512a4       ??_C@_0BN@FPPALKPF@D3DDEVICE_CREATERENDERTARGET?$AA@ 005b48a4     d3d8d:stats.obj
 0003:000512c8       ??_C@_0BL@DPOEPCNA@D3DDEVICE_CREATEPUSHBUFFER?$AA@ 005b48c8     d3d8d:stats.obj
 0003:000512e8       ??_C@_0BM@PMIHALKE@D3DDEVICE_CREATEPIXELSHADER?$AA@ 005b48e8     d3d8d:stats.obj
 0003:0005130c       ??_C@_0BI@DLBEOOIO@D3DDEVICE_CREATEPALETTE?$AA@ 005b490c     d3d8d:stats.obj
 0003:00051328       ??_C@_0BM@OHKGAFFJ@D3DDEVICE_CREATEINDEXBUFFER?$AA@ 005b4928     d3d8d:stats.obj
 0003:0005134c       ??_C@_0BN@HKDNNAJE@D3DDEVICE_CREATEIMAGESURFACE?$AA@ 005b494c     d3d8d:stats.obj
 0003:00051370       ??_C@_0BG@IKNEBBNI@D3DDEVICE_CREATEFIXUP?$AA@ 005b4970     d3d8d:stats.obj
 0003:0005138c       ??_C@_0CE@DGFLCKEG@D3DDEVICE_CREATEDEPTHSTENCILSURF@ 005b498c     d3d8d:stats.obj
 0003:000513b8       ??_C@_0BM@OHKIOLBP@D3DDEVICE_CREATECUBETEXTURE?$AA@ 005b49b8     d3d8d:stats.obj
 0003:000513dc       ??_C@_0BE@ODLECIBH@D3DDEVICE_COPYRECTS?$AA@ 005b49dc     d3d8d:stats.obj
 0003:000513f4       ??_C@_0BA@FJLLGKPE@D3DDEVICE_CLEAR?$AA@ 005b49f4     d3d8d:stats.obj
 0003:00051408       ??_C@_0BM@CCEJMLNC@D3DDEVICE_CAPTURESTATEBLOCK?$AA@ 005b4a08     d3d8d:stats.obj
 0003:0005142c       ??_C@_0CC@FPJJEION@D3DDEVICE_BLOCKUNTILVERTICALBLAN@ 005b4a2c     d3d8d:stats.obj
 0003:00051454       ??_C@_0BJ@LNPFBNDB@D3DDEVICE_BLOCKUNTILIDLE?$AA@ 005b4a54     d3d8d:stats.obj
 0003:00051474       ??_C@_0BH@PKGBKJDH@D3DDEVICE_BLOCKONFENCE?$AA@ 005b4a74     d3d8d:stats.obj
 0003:00051490       ??_C@_0BO@MOOAAIEH@D3DDEVICE_BEGINVISIBILITYTEST?$AA@ 005b4a90     d3d8d:stats.obj
 0003:000514b4       ??_C@_0BK@KFPOKOKN@D3DDEVICE_BEGINSTATEBLOCK?$AA@ 005b4ab4     d3d8d:stats.obj
 0003:000514d4       ??_C@_0BK@JLNGDCN@D3DDEVICE_BEGINPUSHBUFFER?$AA@ 005b4ad4     d3d8d:stats.obj
 0003:000514f4       ??_C@_0BE@INOHGCAF@D3DDEVICE_BEGINPUSH?$AA@ 005b4af4     d3d8d:stats.obj
 0003:0005150c       ??_C@_0BA@NNJKBPEO@D3DDEVICE_BEGIN?$AA@ 005b4b0c     d3d8d:stats.obj
 0003:00051520       ??_C@_0BK@JNADBKFH@D3DDEVICE_APPLYSTATEBLOCK?$AA@ 005b4b20     d3d8d:stats.obj
 0003:00051540       ??_C@_0BL@LFEFEFHD@DIRECT3D_SETPUSHBUFFERSIZE?$AA@ 005b4b40     d3d8d:stats.obj
 0003:00051560       ??_C@_0BH@OLCFEAMM@DIRECT3D_GETDEVICECAPS?$AA@ 005b4b60     d3d8d:stats.obj
 0003:0005157c       ??_C@_0BN@OFKIAMLE@DIRECT3D_GETADAPTERMODECOUNT?$AA@ 005b4b7c     d3d8d:stats.obj
 0003:000515a0       ??_C@_0BO@JFBPDNNO@DIRECT3D_GETADAPTERIDENTIFIER?$AA@ 005b4ba0     d3d8d:stats.obj
 0003:000515c4       ??_C@_0BP@BLNODCNK@DIRECT3D_GETADAPTERDISPLAYMODE?$AA@ 005b4bc4     d3d8d:stats.obj
 0003:000515ec       ??_C@_0BK@COEJJFPC@DIRECT3D_ENUMADAPTERMODES?$AA@ 005b4bec     d3d8d:stats.obj
 0003:0005160c       ??_C@_0BG@GKLBJAEK@DIRECT3D_CREATEDEVICE?$AA@ 005b4c0c     d3d8d:stats.obj
 0003:00051628       ??_C@_0BJ@OLBDBKJH@DIRECT3D_CHECKDEVICETYPE?$AA@ 005b4c28     d3d8d:stats.obj
 0003:00051648       ??_C@_0CE@NBCHIMIC@DIRECT3D_CHECKDEVICEMULTISAMPLET@ 005b4c48     d3d8d:stats.obj
 0003:00051674       ??_C@_0BL@PGFHGGPN@DIRECT3D_CHECKDEVICEFORMAT?$AA@ 005b4c74     d3d8d:stats.obj
 0003:00051694       ??_C@_0CA@JNJFNKFF@DIRECT3D_CHECKDEPTHSTENCILMATCH?$AA@ 005b4c94     d3d8d:stats.obj
 0003:000516bc       ??_C@_0BD@KFJNCFKH@SETSTATE_TRANSFORM?$AA@ 005b4cbc     d3d8d:stats.obj
 0003:000516d4       ??_C@_0BA@OEKFAMGG@SETSTATE_LIGHTS?$AA@ 005b4cd4     d3d8d:stats.obj
 0003:000516e8       ??_C@_0BG@MJBAOMOF@SETSTATE_TEXTRANSFORM?$AA@ 005b4ce8     d3d8d:stats.obj
 0003:00051704       ??_C@_0BJ@CEFJOOJG@SETSTATE_SPECFOGCOMBINER?$AA@ 005b4d04     d3d8d:stats.obj
 0003:00051724       ??_C@_0BG@GLOJKGHF@SETSTATE_TEXTURESTATE?$AA@ 005b4d24     d3d8d:stats.obj
 0003:00051740       ??_C@_0BD@IEKONAKM@SETSTATE_COMBINERS?$AA@ 005b4d40     d3d8d:stats.obj
 0003:00051758       ??_C@_0BF@EIDCMHJC@SETSTATE_POINTPARAMS?$AA@ 005b4d58     d3d8d:stats.obj
 0003:00051774       ??_C@_0BK@GPMLGPGO@REDUNDANT_SETSTREAMSOURCE?$AA@ 005b4d74     d3d8d:stats.obj
 0003:00051794       ??_C@_0BF@PMFJFHGO@REDUNDANT_SETPALETTE?$AA@ 005b4d94     d3d8d:stats.obj
 0003:000517b0       ??_C@_0BF@PFKKJIOP@REDUNDANT_SETTEXTURE?$AA@ 005b4db0     d3d8d:stats.obj
 0003:000517cc       ??_C@_0BH@EJKCDOGK@REDUNDANT_SETTRANSFORM?$AA@ 005b4dcc     d3d8d:stats.obj
 0003:000517e8       ??_C@_0BK@LIJLAIOG@REDUNDANT_SETVERTEXSHADER?$AA@ 005b4de8     d3d8d:stats.obj
 0003:00051808       ??_C@_0BK@ONMOEFCN@REDUNDANT_SETTEXTURESTATE?$AA@ 005b4e08     d3d8d:stats.obj
 0003:00051828       ??_C@_0BJ@CMNKEHDK@REDUNDANT_SETRENDERSTATE?$AA@ 005b4e28     d3d8d:stats.obj
 0003:00051848       ??_C@_0BE@GPFJPGEF@RUNPUSHBUFFER_BYTES?$AA@ 005b4e48     d3d8d:stats.obj
 0003:00051860       ??_C@_0BL@GKDEAGGB@PUSHBUFFER_JUMPTOBEGINNING?$AA@ 005b4e60     d3d8d:stats.obj
 0003:00051880       ??_C@_0BK@DGMLEHC@UNSWIZZLING_TEXTURE_LOCKS?$AA@ 005b4e80     d3d8d:stats.obj
 0003:000518a0       ??_C@_0BH@BIKBMNFD@CPUSPINDURINGWAIT_TIME?$AA@ 005b4ea0     d3d8d:stats.obj
 0003:000518bc       ??_C@_0BN@OCDLODDG@D3DDEVICE_BLOCKONFENCE_WAITS?$AA@ 005b4ebc     d3d8d:stats.obj
 0003:000518e0       ??_C@_0CI@NIELJDND@D3DDEVICE_BLOCKUNTILVERTICALBLAN@ 005b4ee0     d3d8d:stats.obj
 0003:00051910       ??_C@_0BP@JGNCEDEJ@D3DDEVICE_BLOCKUNTILIDLE_WAITS?$AA@ 005b4f10     d3d8d:stats.obj
 0003:00051938       ??_C@_0O@CLBABCLD@PRESENT_WAITS?$AA@ 005b4f38     d3d8d:stats.obj
 0003:00051948       ??_C@_0BB@MOGPPBMD@OBJECTLOCK_WAITS?$AA@ 005b4f48     d3d8d:stats.obj
 0003:0005195c       ??_C@_0BB@MJOPNANF@PUSHBUFFER_WAITS?$AA@ 005b4f5c     d3d8d:stats.obj
 0003:00051970       ??_C@_0BE@PJMHHPML@PUSHBUFFER_SEGMENTS?$AA@ 005b4f70     d3d8d:stats.obj
 0003:00051988       ??_C@_0BF@GDPPMKIO@SETTRANSFORM_TEXTURE?$AA@ 005b4f88     d3d8d:stats.obj
 0003:000519a4       ??_C@_0BI@CCHDEPBB@SETTRANSFORM_PROJECTION?$AA@ 005b4fa4     d3d8d:stats.obj
 0003:000519c0       ??_C@_0BC@EGDFJNMC@SETTRANSFORM_VIEW?$AA@ 005b4fc0     d3d8d:stats.obj
 0003:000519d8       ??_C@_0BD@HIJIBJLC@SETTRANSFORM_WORLD?$AA@ 005b4fd8     d3d8d:stats.obj
 0003:000519f0       ??_C@_08GBBDCBAM@VERTICES?$AA@ 005b4ff0     d3d8d:stats.obj
 0003:000519fc       ??_C@_0L@EFCDGGAC@swap?5stall?$AA@ 005b4ffc     d3d8d:stats.obj
 0003:00051a0c       ??_C@_07KHALEBB@backend?$AA@ 005b500c     d3d8d:stats.obj
 0003:00051a18       ??_C@_08NEIINOAD@frontend?$AA@ 005b5018     d3d8d:stats.obj
 0003:00051a24       ??_C@_03HOPDAKLK@gpu?$AA@  005b5024     d3d8d:stats.obj
 0003:00051a28       ??_C@_0CN@EMJDKNKL@?$CBg_PerfCounters?4m_PushBufferEndD@ 005b5028     d3d8d:stats.obj
 0003:00051a60       ??_C@_0DE@FHGAGMLD@?$CB?$CIg_pDevice?9?$DOm_StateFlags?5?$CG?5STAT@ 005b5060     d3d8d:stats.obj
 0003:00051aa0       ??_C@_06PEMDLAIA@User10?$AA@ 005b50a0     d3d8d:stats.obj
 0003:00051aa8       ??_C@_05PJAFGLLC@User9?$AA@ 005b50a8     d3d8d:stats.obj
 0003:00051ab0       ??_C@_05OABOFKPD@User8?$AA@ 005b50b0     d3d8d:stats.obj
 0003:00051ab8       ??_C@_05GHIGEGDM@User7?$AA@ 005b50b8     d3d8d:stats.obj
 0003:00051ac0       ??_C@_05HOJNHHHN@User6?$AA@ 005b50c0     d3d8d:stats.obj
 0003:00051ac8       ??_C@_05FFLACELO@User5?$AA@ 005b50c8     d3d8d:stats.obj
 0003:00051ad0       ??_C@_05EMKLBFPP@User4?$AA@ 005b50d0     d3d8d:stats.obj
 0003:00051ad8       ??_C@_05DOKIDDI@User3?$AA@ 005b50d8     d3d8d:stats.obj
 0003:00051ae0       ??_C@_05BKPBLCHJ@User2?$AA@ 005b50e0     d3d8d:stats.obj
 0003:00051ae8       ??_C@_05DBNMOBLK@User1?$AA@ 005b50e8     d3d8d:stats.obj
 0003:00051af0       ??_C@_05CIMHNAPL@User0?$AA@ 005b50f0     d3d8d:stats.obj
 0003:00051af8       ??_C@_07OPKBAMFL@event20?$AA@ 005b50f8     d3d8d:stats.obj
 0003:00051b04       ??_C@_07DMCFAJEL@event19?$AA@ 005b5104     d3d8d:stats.obj
 0003:00051b10       ??_C@_07CFDODIAK@event18?$AA@ 005b5110     d3d8d:stats.obj
 0003:00051b1c       ??_C@_07KCKGCEMF@event17?$AA@ 005b511c     d3d8d:stats.obj
 0003:00051b28       ??_C@_07LLLNBFIE@event16?$AA@ 005b5128     d3d8d:stats.obj
 0003:00051b34       ??_C@_07JAJAEGEH@event15?$AA@ 005b5134     d3d8d:stats.obj
 0003:00051b40       ??_C@_07IJILHHAG@event14?$AA@ 005b5140     d3d8d:stats.obj
 0003:00051b4c       ??_C@_0P@IFNJFJMC@ObjectLockWait?$AA@ 005b514c     d3d8d:stats.obj
 0003:00051b60       ??_C@_0P@NMDIHADG@PushBufferWait?$AA@ 005b5160     d3d8d:stats.obj
 0003:00051b74       ??_C@_0N@NMNOCPO@BlockOnFence?$AA@ 005b5174     d3d8d:stats.obj
 0003:00051b84       ??_C@_0P@NDLNDBJC@BlockUntilIdle?$AA@ 005b5184     d3d8d:stats.obj
 0003:00051b98       ??_C@_07FHKFELEN@Present?$AA@ 005b5198     d3d8d:stats.obj
 0003:00051ba4       ??_C@_07IMDOFAFF@Kickoff?$AA@ 005b51a4     d3d8d:stats.obj
 0003:00051bb0       ??_C@_06HLBOAJAH@VBlank?$AA@ 005b51b0     d3d8d:stats.obj
 0003:00051bb8       ??_C@_0O@PPDGOOMA@RunPushBuffer?$AA@ 005b51b8     d3d8d:stats.obj
 0003:00051bc8       ??_C@_08NJGDGLFM@BeginEnd?$AA@ 005b51c8     d3d8d:stats.obj
 0003:00051bd4       ??_C@_0BB@KJBHGFML@DrawIndexedVerts?$AA@ 005b51d4     d3d8d:stats.obj
 0003:00051be8       ??_C@_0N@EFLJPMOL@DrawVertices?$AA@ 005b51e8     d3d8d:stats.obj
 0003:00051bf8       ??_C@_0BD@MFBKIDEK@DrawIndexedVertsUP?$AA@ 005b51f8     d3d8d:stats.obj
 0003:00051c10       ??_C@_0P@NJENGAKG@DrawVerticesUP?$AA@ 005b5210     d3d8d:stats.obj
 0003:00051c24       ??_C@_06OENKJGA@Header?$AA@ 005b5224     d3d8d:stats.obj
 0003:00051c2c       ??_C@_0CN@MFAIGAC@?$CFs?$CF?9?$CKs?5?$CF9I64u?5?$CF9lu?5?$CF9I64u?5?$CF8lu?5?$CF@ 005b522c     d3d8d:stats.obj
 0003:00051c78       ??_C@_0BA@FOGOMHOF@?5?5?5?5?$CK?$CK?$CK?5?$CFs?5?$CK?$CK?$CK?6?$AA@ 005b5278     d3d8d:stats.obj
 0003:00051c8c       ??_C@_0DA@GKPJMMFN@Total?5Perf?5Events?3?5?$CFlu?5?5Presents@ 005b528c     d3d8d:stats.obj
 0003:00051cc8       ??_C@_0FC@IBLHLFPJ@?6Event?5?5?5?5?5?5?5?5?5?5?5?5?5?5?5?5CpuStart?5?5@ 005b52c8     d3d8d:stats.obj
 0003:00051d2c       ??_C@_0L@HINCJDMI@?$CF20s?3?5?$CFLu?6?$AA@ 005b532c     d3d8d:stats.obj
 0003:00051d3c       ??_C@_0O@HCGAGGAP@total?5samples?$AA@ 005b533c     d3d8d:stats.obj
 0003:00051d4c       ??_C@_0BD@LKANBAHL@?$CF20s?3?5?$CFLu?5?$CI?$CFLu?$CF?$CF?$CJ?6?$AA@ 005b534c     d3d8d:stats.obj
 0003:00051d64       ??_C@_0BP@NPOABBDJ@?$CD?$CFLu?$CJ?5?$CFs?5?$CFI64u?5cycles?5?$CI?$CFLums?$CJ?6?$AA@ 005b5364     d3d8d:stats.obj
 0003:00051d8c       ??_C@_0CH@HOLJAEAG@Interrupts?3?5?$CFLu?6Context?5Switches@ 005b538c     d3d8d:stats.obj
 0003:00051dbc       ??_C@_0BL@MOFOIDFH@Available?5RAM?3?5?$CFLu?5kbytes?6?$AA@ 005b53bc     d3d8d:stats.obj
 0003:00051ddc       ??_C@_0DM@DBJILFIM@RunPushBuffer?5bytes?5traversed?3?5?$CF@ 005b53dc     d3d8d:stats.obj
 0003:00051e24       ??_C@_0DE@IICFGBCN@PushBuffer?5writes?3?5?$CFI64u?5bytes?5?$CI@ 005b5424     d3d8d:stats.obj
 0003:00051e64       ??_C@_0DM@JHKNCDDE@?5?9?9?$DO?5Doesn?8t?5include?5vertices?5pr@ 005b5464     d3d8d:stats.obj
 0003:00051eac       ??_C@_0DB@KDKNMGMG@Vertices?5processed?3?5?$CFLu?5verts?5?$CI?$CF@ 005b54ac     d3d8d:stats.obj
 0003:00051ee8       ??_C@_0ED@DINHKLGP@?5?9?9?$DO?5D3DPERF_DUMP_FPS_PERFEVENTS@ 005b54e8     d3d8d:stats.obj
 0003:00051f38       ??_C@_0DG@JMHNIINE@?$CFs?5?$CI?$CFLu?$CJ?3?5?$CFLu?4?$CFLums?5?$CI?$CFLu?4?$CFLums?1w@ 005b5538     d3d8d:stats.obj
 0003:00051f9c       ??_C@_0DK@MPAMDMOK@Min?1max?5frame?5times?3?5?5frame?5?$CD?$CFLu@ 005b559c     d3d8d:stats.obj
 0003:00051fe4       ??_C@_0DL@JCELCDEA@fps?3?5?$CFLu?4?$CFLu?5?$CI?$CFLu?4?$CFLu?5ms?1frame?$CJ?5@ 005b55e4     d3d8d:stats.obj
 0003:0005202c       ??_C@_0BG@GFDKCHNP@?6Total?5Cycles?3?5?$CFI64u?6?$AA@ 005b562c     d3d8d:stats.obj
 0003:00052048       ??_C@_0BK@MMIHDHNG@?6TextureState?5counters?3?6?6?$AA@ 005b5648     d3d8d:stats.obj
 0003:00052068       ??_C@_0BE@KCNOLBHC@missing?5description?$AA@ 005b5668     d3d8d:stats.obj
 0003:00052080       ??_C@_0BJ@PGEIBDGH@?6RenderState?5counters?3?6?6?$AA@ 005b5680     d3d8d:stats.obj
 0003:000520a0       ??_C@_0BB@DHNALNHG@?6API?5Counters?3?6?6?$AA@ 005b56a0     d3d8d:stats.obj
 0003:000520b4       ??_C@_0M@NHEDINIE@?$CF10Lu?5?9?5?$CFs?6?$AA@ 005b56b4     d3d8d:stats.obj
 0003:000520c4       ??_C@_0BE@BCDBGCFM@?$CF10Lu?5?9?5?$CFs?5?9?5?$CFI64u?6?$AA@ 005b56c4     d3d8d:stats.obj
 0003:000520dc       ??_C@_0BI@OGFLFPOI@Performance?5Counters?3?6?6?$AA@ 005b56dc     d3d8d:stats.obj
 0003:00052108       ?g_DisplayModeCount@D3D@@3KB 005b5708     d3d8d:mpmode.obj
 0003:00052110       ?g_DisplayModes@D3D@@3QBUDISPLAYMODE@1@B 005b5710     d3d8d:mpmode.obj
 0003:00052b78       ??_C@_0CP@CGJJBMOJ@?$CIpMode?9?$DOAvInfo?5?$CG?5AV_STANDARD_MAS@ 005b6178     d3d8d:mpmode.obj
 0003:00052bb0       ??_C@_06PDGMHEMN@i?5?$CB?$DN?5c?$AA@ 005b61b0     d3d8d:mpmode.obj
 0003:00052bb8       ??_C@_0CJ@FBDMDGBB@SetVideoMode?5?9?5Unsupported?5displ@ 005b61b8     d3d8d:mpmode.obj
 0003:00052bf0       ??_C@_0EA@CDKPLOPJ@SetVideoMode?5?9?5Current?5system?5do@ 005b61f0     d3d8d:mpmode.obj
 0003:00052c40       ??_C@_0EN@PEHABGEM@SetVideoMode?5?9?5Current?5AV?5setup?5@ 005b6240     d3d8d:mpmode.obj
 0003:00052c9c       ??_C@_0CB@PECAFMLE@SetVideoMode?5?9?5Bad?5refresh?5rate?6@ 005b629c     d3d8d:mpmode.obj
 0003:00052cc4       ?g_PerfCounter@D3D@@3QBUPERFCOUNTER@1@B 005b62c4     d3d8d:dxgcreate.obj
 0003:00052cf0       ??_C@_0CJ@EFFBKMKO@Direct3D?5non?9contiguous?5memory?5a@ 005b62f0     d3d8d:dxgcreate.obj
 0003:00052d24       ??_C@_0CF@KDLLBAOG@Direct3D?5contiguous?5memory?5alloc@ 005b6324     d3d8d:dxgcreate.obj
 0003:00052d50       ??_C@_0BN@HADIKKBF@?$CISwPut?9HwGet?$CJ?1PushBufferSize?$AA@ 005b6350     d3d8d:dxgcreate.obj
 0003:00052d74       ?g_InitialTextureStates@D3D@@3QBEB 005b6374     d3d8d:dxgcreate.obj
 0003:00052da0       ?g_InitialRenderStates@D3D@@3QBKB 005b63a0     d3d8d:dxgcreate.obj
 0003:00052fac       ??_C@_0DI@IJONGKON@No?5point?5in?5more?5than?52?5back?5buf@ 005b65ac     d3d8d:dxgcreate.obj
 0003:00052ff0       ??_C@_0BJ@HOALAPMM@Invalid?5SwapEffect?5value?$AA@ 005b65f0     d3d8d:dxgcreate.obj
 0003:00053010       ??_C@_0DC@BEEBDCLA@FullScreen_RefreshRateInHz?5must?5@ 005b6610     d3d8d:dxgcreate.obj
 0003:0005304c       ??_C@_0CO@FIOOKALM@Invalid?5FullScreen_PresentationI@ 005b664c     d3d8d:dxgcreate.obj
 0003:00053084       ??_C@_0CH@BIOMEOKC@Improper?5D3DMULTISAMPLE?5scale?5en@ 005b6684     d3d8d:dxgcreate.obj
 0003:000530b8       ??_C@_0ED@ICJPKIPJ@Can?8t?5specifcy?5D3DMULTISAMPLE_PR@ 005b66b8     d3d8d:dxgcreate.obj
 0003:00053108       ??_C@_0CN@NKLHABAB@Invalid?5D3DMULTISAMPLE_PREFILTER@ 005b6708     d3d8d:dxgcreate.obj
 0003:00053140       ??_C@_0DF@IFDFNEAH@InitializeFrameBuffers?5?9?5unable?5@ 005b6740     d3d8d:dxgcreate.obj
 0003:00053180       ??_C@_0DO@GBHMEBGF@InitializeFrameBuffers?5?9?5unable?5@ 005b6780     d3d8d:dxgcreate.obj
 0003:000531cc       ??_C@_0DF@FPPEEAGO@?$CIframeSize?5?$CG?5?$CID3D_RENDER_MEMORY_@ 005b67cc     d3d8d:dxgcreate.obj
 0003:0005320c       ??_C@_0DO@FBKEAPEH@DepthStencilSurface?5must?5be?5at?5l@ 005b680c     d3d8d:dxgcreate.obj
 0003:00053258       ??_C@_0EK@DHMLCNBA@Front?9buffer?5surfaces?5must?5be?5at@ 005b6858     d3d8d:dxgcreate.obj
 0003:000532b0       ??_C@_0GJ@LDKEPOPL@Unexpected?5mistmatch?5between?5Buf@ 005b68b0     d3d8d:dxgcreate.obj
 0003:00053330       ??_C@_0CI@LIKPMBDN@Not?5all?5BufferSurfaces?5have?5same@ 005b6930     d3d8d:dxgcreate.obj
 0003:00053360       ??_C@_0DF@JMKGNFFO@Not?5all?5BufferSurfaces?5have?5same@ 005b6960     d3d8d:dxgcreate.obj
 0003:000533a0       ??_C@_0CH@KMIJELMK@Unexpected?5NULL?5BufferSurfaces?5s@ 005b69a0     d3d8d:dxgcreate.obj
 0003:000533d0       ??_C@_0BK@CNNEKOMJ@Graphics?5processor?5error?4?$AA@ 005b69d0     d3d8d:dxgcreate.obj
 0003:000533f0       ??_C@_0DE@LJMIBGAL@Possible?5deadlock?0?5blocked?5for?5m@ 005b69f0     d3d8d:dxgcreate.obj
 0003:00053430       ??_C@_0EB@EPEOAPGO@CDevice?3?3Init?5?9?5unable?5to?5alloca@ 005b6a30     d3d8d:dxgcreate.obj
 0003:00053480       ??_C@_0DC@EOAHPKO@?$CIm_pRenderTarget?5?$DN?$DN?5NULL?$CJ?5?$CG?$CG?5?$CIm_@ 005b6a80     d3d8d:dxgcreate.obj
 0003:000534bc       ??_C@_0CL@MELILLMH@?$CB?$CIm_StateFlags?5?$CG?5?$CISTATE_RECORDPU@ 005b6abc     d3d8d:dxgcreate.obj
 0003:000534f0       ??_C@_0CB@MPNLHHBK@D3D__AllocsNoncontiguous?5?$DO?$DN?5size@ 005b6af0     d3d8d:memory.obj
 0003:00053518       ??_C@_0BN@DFCDNKKM@MemFree?5?9?5Invalid?5pointer?5?$CFx?$AA@ 005b6b18     d3d8d:memory.obj
 0003:0005353c       ??_C@_0DJ@MFIMKNEL@D3D_AllocContiguousMemory?5alignm@ 005b6b3c     d3d8d:memory.obj
 0003:00053580       ??_C@_0DK@JKONBLGE@D3D_AllocContiguousMemory?5alignm@ 005b6b80     d3d8d:memory.obj
 0003:000535c8       ??_C@_0JO@DMAGKHGM@Pusher?5?9?5The?5push?5buffer?5allocat@ 005b6bc8     d3d8d:pusher.obj
 0003:00053688       ??_C@_0IO@HIHOLHB@Pusher?5?9?5Nested?5calls?5to?5the?5pus@ 005b6c88     d3d8d:pusher.obj
 0003:00053734       ??_C@_0CK@MCPGFLIH@Previous?5BeginState?5never?5had?5an@ 005b6d34     d3d8d:pusher.obj
 0003:00053768       ??_C@_0DJ@GDCJOKNO@pPush?5parameter?5not?5within?5range@ 005b6d68     d3d8d:pusher.obj
 0003:000537ac       ??_C@_0DA@MAEDDFEJ@EndState?5without?5having?5first?5do@ 005b6dac     d3d8d:pusher.obj
 0003:000537e8       ??_C@_0BO@PNILCEEC@g_PushIndex?5?$DM?$DN?5g_ReservedSize?$AA@ 005b6de8     d3d8d:pusher.obj
 0003:0005380c       ??_C@_0CA@CKIGJMAF@g_PushState?5?$DN?$DN?5PUSH_STATE_START?$AA@ 005b6e0c     d3d8d:pusher.obj
 0003:00053834       ??_C@_0BF@CPBJDFPD@pPush?5?$DN?$DN?5g_pPushNext?$AA@ 005b6e34     d3d8d:pusher.obj
 0003:00053850       ??_C@_0N@HKEOOOIJ@count?5?$DM?52048?$AA@ 005b6e50     d3d8d:pusher.obj
 0003:00053860       ??_C@_0EE@LEMNGJKP@?$CIpResource?9?$DOCommon?5?$CG?5D3DCOMMON_T@ 005b6e60     d3d8d:pusher.obj
 0003:000538b4       ??_C@_0DG@BGJIKCDG@FATAL?3?5Unable?5to?5allocate?5segmen@ 005b6eb4     d3d8d:pusher.obj
 0003:000538f4       ??_C@_0BI@KKGBLDEB@m_PusherSegment?5?$DN?$DN?5NULL?$AA@ 005b6ef4     d3d8d:pusher.obj
 0003:00053910       ??_C@_0DB@EHKIKKHM@segments?5?$DO?$DN?5m_PushBufferSize?5?1?5m@ 005b6f10     d3d8d:pusher.obj
 0003:00053950       ??_C@_0EL@CCJHLPGL@m_PushBufferSize?5?1?5sizeof?$CIFenceE@ 005b6f50     d3d8d:pusher.obj
 0003:000539ac       ??_C@_0DE@DCOCPMLL@FATAL?3?5Unable?5to?5allocate?5push?5b@ 005b6fac     d3d8d:pusher.obj
 0003:000539ec       ??_C@_0DH@ELMDKKKP@pDevice?9?$DOAge?$CIpFence?9?$DOTime?$CJ?5?$DM?$DN?5pD@ 005b6fec     d3d8d:pusher.obj
 0003:00053a30       ??_C@_0CG@CDFIIKAJ@pFence?9?$DOTime?5?$CG?5PUSHER_TIME_VALID@ 005b7030     d3d8d:pusher.obj
 0003:00053a60       ??_C@_0BK@NOHAGFLI@pFence?9?$DOpEncoding?5?$CB?$DN?5NULL?$AA@ 005b7060     d3d8d:pusher.obj
 0003:00053a80       ??_C@_0CB@PAGAHGHL@TargetTime?5?$CB?$DN?5pDevice?9?$DOm_CpuTime@ 005b7080     d3d8d:pusher.obj
 0003:00053aa8       ??_C@_0CE@LDCNIMHO@TargetTime?5?$CG?5PUSHER_TIME_VALID_F@ 005b70a8     d3d8d:pusher.obj
 0003:00053ad4       ??_C@_0BB@FGJFAJMN@previousAge?5?$DM?$DN?52?$AA@ 005b70d4     d3d8d:pusher.obj
 0003:00053ae8       ??_C@_0BA@HCFOLNM@segmentAge?5?$DM?$DN?52?$AA@ 005b70e8     d3d8d:pusher.obj
 0003:00053afc       ??_C@_0DH@JCJMMBFP@?$CIpSegment?5?$DO?$DN?5m_pPushBase?$CJ?5?$CG?$CG?5?$CIpS@ 005b70fc     d3d8d:pusher.obj
 0003:00053b40       ??_C@_0CJ@NJGAHMII@GetPushDistance?5?9?5Invalid?5Handle@ 005b7140     d3d8d:pusher.obj
 0003:00053b78       ??_C@_0EE@BMMFLGPL@?$CIm_pPut?5?$DM?5m_pPushLimit?$CJ?5?$HM?$HM?5?$CIm_St@ 005b7178     d3d8d:pusher.obj
 0003:00053bcc       ??_C@_0CA@BJHGAKML@g_PushState?5?$CB?$DN?5PUSH_STATE_START?$AA@ 005b71cc     d3d8d:pusher.obj
 0003:00053bf8       ??_C@_0FP@NKAIKJMN@?$CIpDevice?9?$DOm_pPut?5?$DM?5pDevice?9?$DOm_pP@ 005b71f8     d3d8d:pusher.obj
 0003:00053c6c       ??_C@_0DG@OJGKICGJ@Bad?5EndPush?3?5Expected?5?$CFlx?0?5got?5?$CF@ 005b726c     d3d8d:pusher.obj
 0003:00053cb0       ??_C@_0FF@MHFJKMLI@Pusher?5?9?5End?5push?5is?5not?5paired?5@ 005b72b0     d3d8d:pusher.obj
 0003:00053d18       ??_C@_0BO@PMEDCDKC@time?5?$CG?5PUSHER_TIME_VALID_FLAG?$AA@ 005b7318     d3d8d:pusher.obj
 0003:00053d40       ??_C@_0EI@GGLKDPDE@D3DDevice_InsertFence?5?9?5can?8t?5In@ 005b7340     d3d8d:pusher.obj
 0003:00053d98       ??_C@_0EJ@JKCFODAN@D3DDevice_InsertFence?5?9?5can?8t?5In@ 005b7398     d3d8d:pusher.obj
 0003:00053df0       ??_C@_0BC@IDLPAGBG@Possible?5deadlock?$AA@ 005b73f0     d3d8d:pusher.obj
 0003:00053e08       ??_C@_0DP@IGGLDOFI@?$CB?$CIFlags?5?$CG?5D3DWAIT_PUSHBUFFER?$CJ?5?$HM?$HM@ 005b7408     d3d8d:pusher.obj
 0003:00053e54       ??_C@_0DE@FCFGEMNL@targetFence?9?$DOTime?5?$DN?$DN?5targetFence@ 005b7454     d3d8d:pusher.obj
 0003:00053e98       ??_C@_0GN@GIDMDFOF@targetFence?9?$DOpEncoding?9?$DOm_Semaph@ 005b7498     d3d8d:pusher.obj
 0003:00053f1c       ??_C@_0BA@MCJGLJHD@Unexpected?5type?$AA@ 005b751c     d3d8d:pusher.obj
 0003:00053f30       ??_C@_0JN@LCHGPGNH@Pusher?5?9?5Attempting?5to?5block?5on?5@ 005b7530     d3d8d:pusher.obj
 0003:00053ff0       ??_C@_0JO@NIHIIAA@Pusher?5?9?5Attempting?5to?5block?5whi@ 005b75f0     d3d8d:pusher.obj
 0003:000540b0       ??_C@_0IN@DAMOELKN@?$CIpDevice?9?$DOGpuTime?$CI?$CJ?5?$CB?$DN?5pDevice?9?$DO@ 005b76b0     d3d8d:pusher.obj
 0003:0005415c       ??_C@_0BO@BNJLFLKG@Time?5?$CG?5PUSHER_TIME_VALID_FLAG?$AA@ 005b775c     d3d8d:pusher.obj
 0003:00054180       ??_C@_0L@DDKPNMFP@Flags?5?$CB?$DN?50?$AA@ 005b7780     d3d8d:pusher.obj
 0003:00054190       ??_C@_0HC@DJGHABII@Space?5request?5is?5too?5big?5?9?5can?8t@ 005b7790     d3d8d:pusher.obj
 0003:00054218       ??_C@_0CI@IMMEDCI@pDevice?9?$DOm_pPut?5?$DM?5pDevice?9?$DOm_pPu@ 005b7818     d3d8d:pusher.obj
 0003:00054248       ??_C@_0DA@CJOGDLDC@RequestedSpace?5?$DM?$DN?5pDevice?9?$DOm_Pus@ 005b7848     d3d8d:pusher.obj
 0003:00054284       ??_C@_0CN@BADJEEFD@RequestedSpace?5?$DO?$DN?5pDevice?9?$DOm_Pus@ 005b7884     d3d8d:pusher.obj
 0003:000542bc       ??_C@_0BP@HCMDMHHN@MinimumSpace?5?$DM?$DN?5RequestedSpace?$AA@ 005b78bc     d3d8d:pusher.obj
 0003:000542e8       ??_C@_0EI@JNCMKHME@pDevice?9?$DOm_pPut?5?$CL?5count?5?$DM?5pDevic@ 005b78e8     d3d8d:pusher.obj
 0003:00054340       ??_C@_0KH@IHCKNDPD@StartPush?5?9?5an?5individual?5push?5b@ 005b7940     d3d8d:pusher.obj
 0003:00054408       ??_C@_0CN@CLPDINBO@pDevice?9?$DOm_PusherPendingFixupInt@ 005b7a08     d3d8d:pusher.obj
 0003:00054440       ??_C@_0DG@IMLHJHGJ@Resource?5has?5an?5invalid?5?8Lock?8?5f@ 005b7a40     d3d8d:pusher.obj
 0003:00054480       ??_C@_0DC@CDBNPOIE@D3DDevice_InsertCallback?5?9?5Inval@ 005b7a80     d3d8d:pusher.obj
 0003:000544bc       ??_C@_0CN@DGCDCJJP@D3DDevice_InsertCallback?5?9?5Callb@ 005b7abc     d3d8d:pusher.obj
 0003:000544f4       ??_C@_0CI@KLJLLNDJ@Previous?5BeginPush?5never?5had?5an?5@ 005b7af4     d3d8d:pusher.obj
 0003:00054528       ??_C@_0GK@NECMKACO@Texture?5stage?5?$CFd?5is?5mapped?5to?5te@ 005b7b28     d3d8d:pusher.obj
 0003:000545a8       ??_C@_0DI@BEJHKFDM@pPush?5parameter?5not?5within?5range@ 005b7ba8     d3d8d:pusher.obj
 0003:000545f0       ??_C@_0EK@FBOPPFK@End?5of?5buffer?5overwritten?5?$CImore?5@ 005b7bf0     d3d8d:pusher.obj
 0003:00054648       ??_C@_0CO@BIPEJAMA@EndPush?5without?5having?5first?5don@ 005b7c48     d3d8d:pusher.obj
 0003:00054680       ??_C@_0P@NIMHMNMK@startAddr?5?$CB?$DN?50?$AA@ 005b7c80     d3d8d:mpdac.obj
 0003:00054694       ??_C@_03CCCACEOK@oT3?$AA@  005b7c94     d3d8d:shadersnapshot.obj
 0003:00054698       ??_C@_03DLDLBFKL@oT2?$AA@  005b7c98     d3d8d:shadersnapshot.obj
 0003:0005469c       ??_C@_03BABGEGGI@oT1?$AA@  005b7c9c     d3d8d:shadersnapshot.obj
 0003:000546a0       ??_C@_03JANHHCJ@oT0?$AA@   005b7ca0     d3d8d:shadersnapshot.obj
 0003:000546a4       ??_C@_03ILNJJKK@oB1?$AA@   005b7ca4     d3d8d:shadersnapshot.obj
 0003:000546a8       ??_C@_03BBKGKIOL@oB0?$AA@  005b7ca8     d3d8d:shadersnapshot.obj
 0003:000546ac       ??_C@_04LOFIANGF@oPts?$AA@ 005b7cac     d3d8d:shadersnapshot.obj
 0003:000546b4       ??_C@_04PFPHJOOC@oFog?$AA@ 005b7cb4     d3d8d:shadersnapshot.obj
 0003:000546bc       ??_C@_03MDAOFBI@oD1?$AA@   005b7cbc     d3d8d:shadersnapshot.obj
 0003:000546c0       ??_C@_03BFCLNEFJ@oD0?$AA@  005b7cc0     d3d8d:shadersnapshot.obj
 0003:000546c4       ??_C@_03MCMPNMHE@o2?$DP?$AA@ 005b7cc4     d3d8d:shadersnapshot.obj
 0003:000546c8       ??_C@_03MAIJGCCN@o1?$DP?$AA@ 005b7cc8     d3d8d:shadersnapshot.obj
 0003:000546cc       ??_C@_04KOCLEBPE@oPos?$AA@ 005b7ccc     d3d8d:shadersnapshot.obj
 0003:000546d4       ??_C@_0CA@GJMEKBLB@Wait?5for?5image?5write?5timed?9out?6?$AA@ 005b7cd4     d3d8d:shadersnapshot.obj
 0003:000546fc       ??_C@_0BP@BPOFKPAI@Wait?5for?5image?5read?5timed?9out?6?$AA@ 005b7cfc     d3d8d:shadersnapshot.obj
 0003:00054724       ??_C@_02BKJPHGNJ@pc?$AA@   005b7d24     d3d8d:shadersnapshot.obj
 0003:00054728       ??_C@_05CCMOGDN@?$CFs?3?$CFs?$AA@ 005b7d28     d3d8d:shadersnapshot.obj
 0003:00054730       ??_C@_0M@FMMNPAHF@1?400?45933?41?$AA@ 005b7d30     d3d8d:shadersnapshot.obj
 0003:00054740       ??_C@_05GCIPIGEI@Debug?$AA@ 005b7d40     d3d8d:shadersnapshot.obj
 0003:00054748       ??_C@_07DLHCIBDH@default?$AA@ 005b7d48     d3d8d:shadersnapshot.obj
 0003:00054754       ??_C@_0DB@PLEMIDFP@Unable?5to?5re?9open?5movie?5cache?5fi@ 005b7d54     d3d8d:shadersnapshot.obj
 0003:00054790       ??_C@_0BM@PMANFOOE@createfile?5error?5?9?5st?$DN?$CF08x?6?$AA@ 005b7d90     d3d8d:shadersnapshot.obj
 0003:000547b4       ??_C@_0CF@JAIFDFBO@GetDiskFreeSpaceEx?5failed?5with?5?$CF@ 005b7db4     d3d8d:shadersnapshot.obj
 0003:000547e0       ??_C@_02HGOPDIBI@t?3?$AA@  005b7de0     d3d8d:shadersnapshot.obj
 0003:000547e4       ??_C@_0BO@NLABBOCC@?$CI?$CISize?$CL3?$CJ?$CG0xfffffffc?$CJ?5?$DN?$DN?5Size?$AA@ 005b7de4     d3d8d:timing.obj
 0003:00054808       ??_C@_0CF@FABCIBKL@TimingCapture?3?5Couldn?8t?5delete?5f@ 005b7e08     d3d8d:timing.obj
 0003:00054834       ??_C@_0CJ@CFMKMGIE@TimingCapture?3?5Disk?5error?4?5?5Abor@ 005b7e34     d3d8d:timing.obj
 0003:00054868       ??_C@_09JOIKCMGN@?$CFs?2?$CFs?4tmg?$AA@ 005b7e68     d3d8d:timing.obj
 0003:000548a4       ??_C@_0DD@JPPKDGGJ@Timing?5?5Capture?3?5Could?5not?5alloc@ 005b7ea4     d3d8d:timing.obj
 0003:000548e4       ??_C@_0CE@JBIMJEEJ@Could?5not?5allocate?5timing?5buffer@ 005b7ee4     d3d8d:timing.obj
 0003:00054910       ??_C@_0EN@MPFFNIFI@TimingCapture?3?5FileName?5can?8t?5in@ 005b7f10     d3d8d:timing.obj
 0003:0005496c       ??_C@_0CD@DKJFMKOB@TimingCapture?3?5Already?5capturing@ 005b7f6c     d3d8d:timing.obj
 0003:00054998       ??_C@_0FB@OIALHOLA@Timing?5Capture?3?5User?5Event?5Misma@ 005b7f98     d3d8d:timing.obj
 0003:00054a00       ??_C@_0FB@DFHBAJIE@Timing?5Capture?3?5User?5Event?5Misma@ 005b8000     d3d8d:timing.obj
 0003:00054a64       ??_C@_0CF@LOFFPJJL@Timing?5Capture?3?5CPU?5Buffer?5Over?9@ 005b8064     d3d8d:timing.obj
 0003:00054a90       ??_C@_0CF@KMKMPNCA@Timing?5Capture?3?5GPU?5Buffer?5Over?9@ 005b8090     d3d8d:timing.obj
 0003:00054abc       ??_C@_0DA@KEIJEMLP@Timing?5Capture?3?5Vertical?5Blank?5B@ 005b80bc     d3d8d:timing.obj
 0003:00054af8       ??_C@_09LEGDMPHC@depth?5?$DO?50?$AA@ 005b80f8     d3d8d:timing.obj
 0003:00054b04       ??_C@_0DG@GLIJJIDK@D3DPERF_SetMarker?3?5Device?5hasn?8t@ 005b8104     d3d8d:timing.obj
 0003:00054b44       ??_C@_0DH@ICAGGNCK@D3DPERF_BeginEvent?3?5Device?5hasn?8@ 005b8144     d3d8d:timing.obj
 0003:00054b88       ??_C@_0DH@MAAACIOP@Log?5?9?5fast?5log?5doesn?8t?5handle?5ze@ 005b8188     d3d8d:floatmath.obj
 0003:00054bcc       ??_C@_0BL@NCCLNEAK@?$CIValue?5?$CG?5?$CIValue?5?9?51?$CJ?$CJ?5?$DN?$DN?50?$AA@ 005b81cc     d3d8d:pixeljar.obj
 0003:00054bec       ??_C@_05LPIJGKJ@Value?$AA@ 005b81ec     d3d8d:pixeljar.obj
 0003:00054bf4       ??_C@_0BD@BHHJDIED@Unexpected?5format?6?$AA@ 005b81f4     d3d8d:pixeljar.obj
 0003:00054c0c       ??_C@_0DN@OEHIDMDD@PixelJar?3?3GetDepthBufferScale?5?9?5@ 005b820c     d3d8d:pixeljar.obj
 0003:00054c58       ??_C@_0DA@PGOIGIJI@IsValidDepthBufferD3DFORMAT?$CIGetF@ 005b8258     d3d8d:pixeljar.obj
 0003:00054c94       ??_C@_0CK@FCJONCHH@PixelJar?3?3GetSize?5?9?5invalid?5mipm@ 005b8294     d3d8d:pixeljar.obj
 0003:00054cc8       ??_C@_0DD@DBBKOJDP@PixelJar?3?3Get2DSurfaceDesc?5?9?5inv@ 005b82c8     d3d8d:pixeljar.obj
 0003:00054d08       ??_C@_0DD@LMJCBENN@PixelJar?3?3Get3DSurfaceDesc?5?9?5inv@ 005b8308     d3d8d:pixeljar.obj
 0003:00054d48       ??_C@_0CG@LEMEJEHP@PixelJar?3?3LockSurface?5?9?5invalid?5@ 005b8348     d3d8d:pixeljar.obj
 0003:00054d78       ??_C@_0CO@GECHDOGM@PixelJar?3?3LockSurface?5?9?5invalid?5@ 005b8378     d3d8d:pixeljar.obj
 0003:00054db0       ??_C@_0DG@BFHOFLKH@PixelJar?3?3Lock2DSurface?5?9?5Lock?5r@ 005b83b0     d3d8d:pixeljar.obj
 0003:00054df0       ??_C@_0FE@BENNHOGA@PixelJar?3?3Lock2DSurface?5?9?5Lock?5r@ 005b83f0     d3d8d:pixeljar.obj
 0003:00054e58       ??_C@_0EO@CLKCOMBB@PixelJar?3?3Lock3DSurface?5?9?5lock?5b@ 005b8458     d3d8d:pixeljar.obj
 0003:00054eb8       ??_C@_0HF@LGLNDKAD@PixelJar?3?3EncodeFormat?5?9?5The?5sur@ 005b84b8     d3d8d:pixeljar.obj
 0003:00054f48       ??_C@_0EL@NMLIBBOD@?$CI?$CI?$CKpSize?5?$CG?5D3DSIZE_HEIGHT_MASK?$CJ?5@ 005b8548     d3d8d:pixeljar.obj
 0003:00054fa4       ??_C@_0CP@EHBDBAGE@?$CI?$CKpSize?5?$CG?5D3DSIZE_WIDTH_MASK?$CJ?5?$CL?5@ 005b85a4     d3d8d:pixeljar.obj
 0003:00054fe0       ??_C@_0EO@JKLIIGDI@PixelJar?3?3EncodeFormat?5?9?5too?5man@ 005b85e0     d3d8d:pixeljar.obj
 0003:00055040       ??_C@_0EF@PLCLFDFM@PixelJar?3?3EncodeFormat?5?9?5Cube?5ma@ 005b8640     d3d8d:pixeljar.obj
 0003:00055098       ??_C@_0EG@FLICAEDJ@PixelJar?3?3EncodeFormat?5?9?5Depth?5f@ 005b8698     d3d8d:pixeljar.obj
 0003:000550f0       ??_C@_0FJ@LIHMNNAK@PixelJar?3?3EncodeFormat?5?9?5Texture@ 005b86f0     d3d8d:pixeljar.obj
 0003:00055160       ??_C@_0FE@CLFEGID@PixelJar?3?3EncodeFormat?5?9?5Each?5di@ 005b8760     d3d8d:pixeljar.obj
 0003:000551c8       ??_C@_0EF@FCLEABHL@PixelJar?3?3EncodeFormat?5?9?5Volume?5@ 005b87c8     d3d8d:pixeljar.obj
 0003:00055220       ??_C@_0EA@GDJMLFKD@PixelJar?3?3EncodeFormat?5?9?5Volume?5@ 005b8820     d3d8d:pixeljar.obj
 0003:00055270       ??_C@_0FE@BLHFEIKP@PixelJar?3?3EncodeFormat?5?9?5Volume?5@ 005b8870     d3d8d:pixeljar.obj
 0003:000552d8       ??_C@_0FF@GOCEMAOM@PixelJar?3?3EncodeFormat?5?9?5Volume?5@ 005b88d8     d3d8d:pixeljar.obj
 0003:00055340       ??_C@_0FE@MCGMJMEJ@PixelJar?3?3EncodeFormat?5?9?5Volume?5@ 005b8940     d3d8d:pixeljar.obj
 0003:000553a8       ??_C@_0FJ@NJNIHJKE@PixelJar?3?3EncodeFormat?5?9?5Non?5swi@ 005b89a8     d3d8d:pixeljar.obj
 0003:00055418       ??_C@_0FI@PJFHOBMK@PixelJar?3?3EncodeFormat?5?9?5Non?5swi@ 005b8a18     d3d8d:pixeljar.obj
 0003:00055488       ??_C@_0EP@HDIMJODC@PixelJar?3?3EncodeFormat?5?9?5Texture@ 005b8a88     d3d8d:pixeljar.obj
 0003:000554e8       ??_C@_0EO@CKMNPJIE@PixelJar?3?3EncodeFormat?5?9?5Texture@ 005b8ae8     d3d8d:pixeljar.obj
 0003:00055548       ??_C@_0FO@FKMLMKIF@PixelJar?3?3EncodeFormat?5?9?5Non?5swi@ 005b8b48     d3d8d:pixeljar.obj
 0003:000555b8       ??_C@_0CJ@JIGNJCPH@PixelJar?3?3EncodeFormat?5?9?5Invalid@ 005b8bb8     d3d8d:pixeljar.obj
 0003:000555f0       ??_C@_0EK@DECBCNDG@PixelJar?3?3EncodeFormat?5?9?5All?5tex@ 005b8bf0     d3d8d:pixeljar.obj
 0003:00055648       ??_C@_0CI@MCLGKKBL@MP?3?5Unhandled?5ServiceMediaPortIn@ 005b8c48     d3d8d:mpintr.obj
 0003:00055678       ??_C@_0CB@CDKNFACH@?6The?5probable?5cause?5is?3?6?6?5?5?5?5?$CFs?6@ 005b8c78     d3d8d:mpintr.obj
 0003:000556a0       ??_C@_0ED@DPFNBPBC@Corrupt?5push?9buffer?5data?4?5?5Bad?5R@ 005b8ca0     d3d8d:mpintr.obj
 0003:000556f0       ??_C@_0EG@KCBCKNJF@Bad?5D3DPUSH_SET_BEGIN_END?5value?5@ 005b8cf0     d3d8d:mpintr.obj
 0003:00055748       ??_C@_0EJ@ONIICFEP@Bad?5D3DPUSH_SET_TRANSFORM_CONSTA@ 005b8d48     d3d8d:mpintr.obj
 0003:000557a0       ??_C@_0EB@HNBIPLPB@Invalid?5texture?5format?50x?$CFx?4?5?5Wa@ 005b8da0     d3d8d:mpintr.obj
 0003:000557f0       ??_C@_0EE@PHFLOALB@Invalid?5texture?5address?50x?$CF08x?4?5@ 005b8df0     d3d8d:mpintr.obj
 0003:00055844       ??_C@_0CK@EGKKHNGG@Stage?5requires?5a?5texture?5but?5non@ 005b8e44     d3d8d:mpintr.obj
 0003:00055878       ??_C@_0BL@KFNEKEJA@Need?5a?5color?5in?5this?5stage?$AA@ 005b8e78     d3d8d:mpintr.obj
 0003:00055898       ??_C@_0EP@GEKCJDGD@Can?8t?5have?5Color?5OCW?5combiner?5an@ 005b8e98     d3d8d:mpintr.obj
 0003:000558f8       ??_C@_0DI@NNFGOGHC@No?5wrap?5or?5mirror?5allowed?5if?5tex@ 005b8ef8     d3d8d:mpintr.obj
 0003:0005593c       ??_C@_0DE@NLGLKCIJ@No?5color?9key?5support?5for?5compres@ 005b8f3c     d3d8d:mpintr.obj
 0003:0005597c       ??_C@_0CO@GBKFKAHC@No?5anisotropic?5support?5for?5convo@ 005b8f7c     d3d8d:mpintr.obj
 0003:000559b4       ??_C@_0DN@EOBFGIJM@Can?8t?5use?5ImageFieldEnable?5unles@ 005b8fb4     d3d8d:mpintr.obj
 0003:00055a00       ??_C@_0DL@OMJKANGA@Can?8t?5use?5ImageFieldEnable?5with?5@ 005b9000     d3d8d:mpintr.obj
 0003:00055a48       ??_C@_0CB@KCNJOHLJ@Invalid?5height?5with?5field?5enable@ 005b9048     d3d8d:mpintr.obj
 0003:00055a70       ??_C@_0CH@CGFBMNBL@No?5anisotropic?5support?5for?53D?5te@ 005b9070     d3d8d:mpintr.obj
 0003:00055aa0       ??_C@_0FA@GAFCMIHF@Combination?5of?5signed?5SetBlendEq@ 005b90a0     d3d8d:mpintr.obj
 0003:00055b00       ??_C@_07MMCOAMKA@0x?$CF08x?5?$AA@ 005b9100     d3d8d:mpintr.obj
 0003:00055b0c       ??_C@_09EAIOGDPB@?60x?$CF08x?3?5?$AA@ 005b910c     d3d8d:mpintr.obj
 0003:00055b18       ??_C@_0BN@JGLFJKLG@MP?3?5Graphics?5Hardware?5Error?6?$AA@ 005b9118     d3d8d:mpintr.obj
 0003:00055b40       ??_C@_0HP@LBNICHEH@Because?5single?9stepping?5is?5not?5e@ 005b9140     d3d8d:mpintr.obj
 0003:00055bd8       ??_C@_0LF@NDNHONNP@The?5graphics?5hardware?5has?5detect@ 005b91d8     d3d8d:mpintr.obj
 0003:00055cb8       ??_C@_0ED@CEHICPLJ@?5?5?5Type?3?5?$CFi?6?5Source?3?5?$CF08x?6?5?5Clas@ 005b92b8     d3d8d:mpintr.obj
 0003:00055d08       ??_C@_0P@GGCIBDIE@SHADOW?3?5?5?$CF08x?6?$AA@ 005b9308     d3d8d:mpintr.obj
 0003:00055d1c       ??_C@_0P@BDNDNNNM@NSOURCE?3?5?$CF08x?6?$AA@ 005b931c     d3d8d:mpintr.obj
 0003:00055d30       ??_C@_0P@FFIEEPAB@INTR?3?5?5?5?5?$CF08x?6?$AA@ 005b9330     d3d8d:mpintr.obj
 0003:00055d44       ??_C@_0CN@GGDFDHHA@CACHE1_GET?3?5?$CF08x?5?$CI0x?$CF08x?$CJ?5?5CACHE@ 005b9344     d3d8d:mpintr.obj
 0003:00055d7c       ??_C@_0BO@EMPKPNBM@DMA_PUT?3?5?$CF08x?5?5DMA_GET?3?5?$CF08x?6?$AA@ 005b937c     d3d8d:mpintr.obj
 0003:00055da0       ??_C@_0EA@KEOGMPLI@MethodAndData?3?50x?$CF08lx?6Parameter@ 005b93a0     d3d8d:mpintr.obj
 0003:00055df0       ??_C@_0PN@EPFDPOPO@?6Single?9stepping?5is?5enabled?0?5so?5@ 005b93f0     d3d8d:mpintr.obj
 0003:00055f20       ??_C@_0MM@KCINPEDH@?8D3D__SingleStepPusher?8?5set?5to?51@ 005b9520     d3d8d:mpintr.obj
 0003:00056018       ??_C@_0LP@BBKOMOJM@?6Because?5single?9stepping?5is?5not?5@ 005b9618     d3d8d:mpintr.obj
 0003:00056100       ??_C@_0CB@DGLIDICN@The?5error?5reported?5is?3?5?6?6?5?5?5?5?$CFs?6@ 005b9700     d3d8d:mpintr.obj
 0003:00056128       ??_C@_0FN@HLABLJCC@?6Graphics?5Hardware?5Error?6?9?9?9?9?9?9?9@ 005b9728     d3d8d:mpintr.obj
 0003:00056198       ??_C@_0CC@HCDKFHLJ@?6Graphics?5Hardware?5Error?5?$CFd?3?5?$CFs?6@ 005b9798     d3d8d:mpintr.obj
 0003:000561c0       ??_C@_0BK@IKKDHPDO@Unhandled?5software?5method?$AA@ 005b97c0     d3d8d:mpintr.obj
 0003:000561e0       ??_C@_0BL@EACAFMHF@Push?9buffer?5illegal?5method?$AA@ 005b97e0     d3d8d:mpintr.obj
 0003:00056200       ??_C@_0BI@HIBFIELI@Push?9buffer?5parse?5error?$AA@ 005b9800     d3d8d:mpintr.obj
 0003:0005621c       ??_C@_0BO@HCJOOAFD@Graphics?5texture?5B?5protection?$AA@ 005b981c     d3d8d:mpintr.obj
 0003:00056240       ??_C@_0BO@MPFEIMJN@Graphics?5texture?5A?5protection?$AA@ 005b9840     d3d8d:mpintr.obj
 0003:00056264       ??_C@_0BO@MJDBDGKH@Graphics?5FD?5invalid?5operation?$AA@ 005b9864     d3d8d:mpintr.obj
 0003:00056288       ??_C@_0BL@HNGKAJM@Graphics?5invalid?5operation?$AA@ 005b9888     d3d8d:mpintr.obj
 0003:000562a8       ??_C@_0BM@CFBKLINI@Graphics?5index?5inline?5reuse?$AA@ 005b98a8     d3d8d:mpintr.obj
 0003:000562cc       ??_C@_0BP@PPNPMMBG@Graphics?5DMA?5vertex?5protection?$AA@ 005b98cc     d3d8d:mpintr.obj
 0003:000562f4       ??_C@_0BN@CCFDEHEM@Graphics?5buffer?5notification?$AA@ 005b98f4     d3d8d:mpintr.obj
 0003:00056318       ??_C@_0BG@IDDKIMMB@Graphics?5method?5count?$AA@ 005b9918     d3d8d:mpintr.obj
 0003:00056334       ??_C@_0BH@MPMIEPNC@Graphics?5notify?5in?5use?$AA@ 005b9934     d3d8d:mpintr.obj
 0003:00056350       ??_C@_0BH@NNJACPAP@Graphics?5double?5notify?$AA@ 005b9950     d3d8d:mpintr.obj
 0003:0005636c       ??_C@_0BO@MOPDBHOC@Graphics?5object?5state?5invalid?$AA@ 005b996c     d3d8d:mpintr.obj
 0003:00056390       ??_C@_0BJ@PAPGFPHL@Graphics?5patch?5exception?$AA@ 005b9990     d3d8d:mpintr.obj
 0003:000563b0       ??_C@_0BK@HCCMNHIM@Graphics?5format?5exception?$AA@ 005b99b0     d3d8d:mpintr.obj
 0003:000563d0       ??_C@_0BO@JHEFEJKM@Graphics?5dma?5write?5protection?$AA@ 005b99d0     d3d8d:mpintr.obj
 0003:000563f4       ??_C@_0BN@MNPOCFBN@Graphics?5dma?5read?5protection?$AA@ 005b99f4     d3d8d:mpintr.obj
 0003:00056418       ??_C@_0BI@EHPMANFA@Graphics?5illegal?5method?$AA@ 005b9a18     d3d8d:mpintr.obj
 0003:00056434       ??_C@_0BL@BDEGAGFE@Graphics?5zeta?5buffer?5limit?$AA@ 005b9a34     d3d8d:mpintr.obj
 0003:00056454       ??_C@_0BM@JENEDKHC@Graphics?5color?5buffer?5limit?$AA@ 005b9a54     d3d8d:mpintr.obj
 0003:00056478       ??_C@_0BJ@JNMFPHJH@Graphics?5range?5exception?$AA@ 005b9a78     d3d8d:mpintr.obj
 0003:00056498       ??_C@_0BM@POECPNIH@Graphics?5surface?5protection?$AA@ 005b9a98     d3d8d:mpintr.obj
 0003:000564bc       ??_C@_0BG@IDMHOBIF@Graphics?5invalid?5data?$AA@ 005b9abc     d3d8d:mpintr.obj
 0003:000564d8       ??_C@_0CK@JNMJOEHC@?$CBREG_RD32?$CIRegisterBase?0?5NV_PGRAP@ 005b9ad8     d3d8d:mpintr.obj
 0003:0005650c       ??_C@_0CM@DJFEJLDJ@g_Device?4m_PusherPendingFixupInt@ 005b9b0c     d3d8d:mpintr.obj
 0003:00056540       ??_C@_0CC@HJOGBBLD@?$CBm_VBlankFlips?$FLflipIndex?$FN?4Pendin@ 005b9b40     d3d8d:mpintr.obj
 0003:00056568       ??_C@_0L@PPJDFNOF@Reset?5FIFO?$AA@ 005b9b68     d3d8d:mpintr.obj
 0003:00056578       ??_C@_0CO@FKIHLCLE@MP?3?5Graphics?5DMA?5TLB?5not?5present@ 005b9b78     d3d8d:mpintr.obj
 0003:000565b0       ??_C@_0CO@FIMBAMON@MP?3?5Graphics?5DMA?5TLB?5not?5present@ 005b9bb0     d3d8d:mpintr.obj
 0003:000565e8       ??_C@_0CK@NBGNDIBF@MP?3?5Software?5assisted?5buffer?5not@ 005b9be8     d3d8d:mpintr.obj
 0003:0005661c       ??_C@_0BM@HOKFAJKF@MP?3?5Missing?5hardware?5object?$AA@ 005b9c1c     d3d8d:mpintr.obj
 0003:00056640       ??_C@_0CA@NMJEPLNM@Graphics?5engine?5software?5method?$AA@ 005b9c40     d3d8d:mpintr.obj
 0003:00056668       ??_C@_0CB@JNDOIEIC@MP?3?5Invalid?5DMA?5pusher?5PTE?5fetch@ 005b9c68     d3d8d:mpintr.obj
 0003:00056690       ??_C@_0BL@BMHLLGON@MP?3?5Access?5to?5free?5channel?$AA@ 005b9c90     d3d8d:mpintr.obj
 0003:000566b0       ??_C@_0BE@NOLGBBC@MP?3?5FIFO?5hash?5error?$AA@ 005b9cb0     d3d8d:mpintr.obj
 0003:000566c8       ??_C@_0CA@LMGAEPAC@MP?3?5DMA?5acquire?5timeout?5pending?$AA@ 005b9cc8     d3d8d:mpintr.obj
 0003:000566f0       ??_C@_0BK@EGPDMGKC@MP?3?5DMA?5semaphore?5pending?$AA@ 005b9cf0     d3d8d:mpintr.obj
 0003:00056710       ??_C@_0BI@GHIBJHBB@MP?3?5RUNOUT?5NOT?5HANDLED?6?$AA@ 005b9d10     d3d8d:mpintr.obj
 0003:00056730       ??_C@_0FO@MCBIEHCF@REG_RD_DRF?$CIregbase?0?5_PFIFO?0?5_DEB@ 005b9d30     d3d8d:mpintr.obj
 0003:000567b0       ?g_Mar@D3D@@3QBMB          005b9db0     d3d8d:math.obj
 0003:00056850       ?g_Lar@D3D@@3QBMB          005b9e50     d3d8d:math.obj
 0003:000568ec       ??_C@_08DKEMNPAF@res?5?$CB?$DN?5v?$AA@ 005b9eec     d3d8d:math.obj
 0003:000568f8       ??_C@_0L@LGJGHFGO@invmag?5?$DO?50?$AA@ 005b9ef8     d3d8d:math.obj
 0003:00056914       ??_C@_0DH@KLMMHEPE@blocks?5?$DM?$DN?5?$CIINSTANCE_MEM_MAXSIZE?5@ 005b9f14     d3d8d:mpcore.obj
 0003:00056958       ??_C@_0CP@MGNCHOMF@MP?3?5Failed?5to?5display?5clock?5spee@ 005b9f58     d3d8d:mpcore.obj
 0003:00056990       ??_C@_0DH@FAIGFMBF@Crystal?$DN?$CFs?5?5FSB?$DN?$CFd?5?5CPU?$DN?$CFd?5?5NVCL@ 005b9f90     d3d8d:mpcore.obj
 0003:000569d4       ??_C@_04NHOAGHMH@13?45?$AA@ 005b9fd4     d3d8d:mpcore.obj
 0003:000569dc       ??_C@_04MLBDMEDG@16?46?$AA@ 005b9fdc     d3d8d:mpcore.obj
 0003:000569e8       ??_C@_0FC@DBGDGPOC@AssertContiguousOrPhysical?5?9?5the@ 005b9fe8     d3d8d:mpcore.obj
 0003:00056a4c       ??_C@_0CJ@HMAEKDFN@Invalid?5class?5specified?5for?5DMA?5@ 005ba04c     d3d8d:mpcore.obj
 0003:00056a80       ??_C@_0FL@LNDFGBCG@?$CIAddressSpace?5?$DN?$DN?5ADDR_FBMEM?5?$HM?$HM?5A@ 005ba080     d3d8d:mpcore.obj
 0003:00056af0       ??_C@_0CJ@NFNOHFMH@MP?3?5CreateGrObject?5invalid?5class@ 005ba0f0     d3d8d:mpcore.obj
 0003:00056b24       ??_C@_0DG@NHMGFHJP@m_HalInfo?4GrCurrentObjects3d?$FLm_H@ 005ba124     d3d8d:mpcore.obj
 0003:00056b64       ??_C@_0BH@COPOCECB@MP?3?5LoadEngines?5failed?$AA@ 005ba164     d3d8d:mpcore.obj
 0003:00056b80       ??_C@_0BH@PPBBGOHK@MP?3?5InitEngines?5failed?$AA@ 005ba180     d3d8d:mpcore.obj
 0003:00056b9c       ??_C@_0CA@NCIPKBJI@MP?3?5Unable?5to?5connect?5interrupt?$AA@ 005ba19c     d3d8d:mpcore.obj
 0003:00056bc4       ??_C@_0BM@CHKPIKFG@MP?3?5Unable?5to?5get?5chip?5info?$AA@ 005ba1c4     d3d8d:mpcore.obj
 0003:00056be8       ??_C@_0BP@NOKAHNPE@MP?3?5Failed?5to?5map?5NV?5registers?$AA@ 005ba1e8     d3d8d:mpcore.obj
 0003:00056c10       ??_C@_0CH@GIEOEJKA@?$CB?$CIOffset?5?$CG?50x3fff?$CJ?5?$CG?$CG?5?$CB?$CISize?5?$CG?50@ 005ba210     d3d8d:mpcore.obj
 0003:00056c4c       ??_C@_0BJ@CJNEFPMK@MinFilter?5?$DO?5D3DTEXF_NONE?$AA@ 005ba24c     d3d8d:lazy.obj
 0003:00056c6c       ??_C@_0DP@BBKHNMJN@?$CIMinFilter?5?$DM?$DN?5D3DTEXF_LINEAR?$CJ?5?$CG?$CG@ 005ba26c     d3d8d:lazy.obj
 0003:00056cb8       ??_C@_0DK@MDNNBFNO@D3DRS_POINTSIZE_MIN?5must?5be?5less@ 005ba2b8     d3d8d:lazy.obj
 0003:00056d00       ??_C@_0BK@KMFNJPJB@LazySetShaderStageProgram?$AA@ 005ba300     d3d8d:lazy.obj
 0003:00056d20       ??_C@_0BD@KLCDJBHL@maxAnisotropy?5?$DM?$DN?54?$AA@ 005ba320     d3d8d:lazy.obj
 0003:00056d38       ??_C@_0BM@DNMHBHLB@fogTableMode?5?$DN?$DN?5D3DFOG_EXP2?$AA@ 005ba338     d3d8d:lazy.obj
 0003:00056d5c       ??_C@_0CC@MIJOFPOL@Unhandled?5texture?5transform?5type@ 005ba35c     d3d8d:lazy.obj
 0003:00056d84       ??_C@_0CO@HCFPGJJH@D3D__RenderState?$FLD3DRS_TWOSIDEDL@ 005ba384     d3d8d:lazy.obj
 0003:00056dbc       ??_C@_0BF@HJBLHIPL@pLight?9?$DOSlot?5?$DN?$DN?5slot?$AA@ 005ba3bc     d3d8d:lazy.obj
 0003:00056dd8       ??_C@_0JB@DKMNGHHI@Inline?5vertices?5of?5size?51?5DWORD?5@ 005ba3d8     d3d8d:lazy.obj
 0003:00056e88       ??_C@_0BD@IDCLIDNK@attributeCount?5?$DO?50?$AA@ 005ba488     d3d8d:lazy.obj
 0003:00056ea0       ??_C@_0L@GABPGKOF@bytes?5?$CB?$DN?50?$AA@ 005ba4a0     d3d8d:lazy.obj
 0003:00056eb0       ??_C@_0BD@GKHLDCIP@Invalid?5D?5Register?$AA@ 005ba4b0     d3d8d:pshader.obj
 0003:00056ec8       ??_C@_0BD@EDEACHAM@Invalid?5C?5Register?$AA@ 005ba4c8     d3d8d:pshader.obj
 0003:00056ee0       ??_C@_0BD@ICMOPIMM@Invalid?5B?5Register?$AA@ 005ba4e0     d3d8d:pshader.obj
 0003:00056ef8       ??_C@_0BD@BLCMJOMN@Invalid?5A?5Register?$AA@ 005ba4f8     d3d8d:pshader.obj
 0003:00056f10       ??_C@_0BE@DNFHIMBN@Invalid?5CD?5register?$AA@ 005ba510     d3d8d:pshader.obj
 0003:00056f28       ??_C@_0BE@DJNJNIMB@Invalid?5AB?5register?$AA@ 005ba528     d3d8d:pshader.obj
 0003:00056f40       ??_C@_0BF@NOJONFHH@Invalid?5Sum?5register?$AA@ 005ba540     d3d8d:pshader.obj
 0003:00056f5c       ??_C@_0BH@ODKPGKEJ@Invalid?5output?5mapping?$AA@ 005ba55c     d3d8d:pshader.obj
 0003:00056f78       ??_C@_0BA@OHBGBLJB@13?312?5must?5be?50?$AA@ 005ba578     d3d8d:pshader.obj
 0003:00056f8c       ??_C@_0BA@CCAHGHAC@31?318?5must?5be?50?$AA@ 005ba58c     d3d8d:pshader.obj
 0003:00056fa0       ??_C@_0BA@JJMBHNDC@31?320?5must?5be?50?$AA@ 005ba5a0     d3d8d:pshader.obj
 0003:00056fb4       ??_C@_0BM@OFCNLPL@Invalid?5input?5mapping?5Reg?5D?$AA@ 005ba5b4     d3d8d:pshader.obj
 0003:00056fd8       ??_C@_0BM@EBBDENDM@Invalid?5input?5mapping?5Reg?5C?$AA@ 005ba5d8     d3d8d:pshader.obj
 0003:00056ffc       ??_C@_0BM@FIAIHMHN@Invalid?5input?5mapping?5Reg?5B?$AA@ 005ba5fc     d3d8d:pshader.obj
 0003:00057020       ??_C@_0BM@HDCFCPLO@Invalid?5input?5mapping?5Reg?5A?$AA@ 005ba620     d3d8d:pshader.obj
 0003:00057044       ??_C@_0CD@JOOFIIHJ@Alpha?5invalid?5for?5SUM?5or?5PROD?5on@ 005ba644     d3d8d:pshader.obj
 0003:00057070       ??_C@_0CD@NBKEBOLO@Alpha?5invalid?5for?5SUM?5or?5PROD?5on@ 005ba670     d3d8d:pshader.obj
 0003:0005709c       ??_C@_0CD@MILPCPPP@Alpha?5invalid?5for?5SUM?5or?5PROD?5on@ 005ba69c     d3d8d:pshader.obj
 0003:000570c8       ??_C@_0CD@ODJCHMDM@Alpha?5invalid?5for?5SUM?5or?5PROD?5on@ 005ba6c8     d3d8d:pshader.obj
 0003:000570f4       ??_C@_0BD@PDJJFEIO@Invalid?5G?5Register?$AA@ 005ba6f4     d3d8d:pshader.obj
 0003:0005710c       ??_C@_0BD@DCBHILEO@Invalid?5F?5Register?$AA@ 005ba70c     d3d8d:pshader.obj
 0003:00057124       ??_C@_0BD@KLPFONEP@Invalid?5E?5Register?$AA@ 005ba724     d3d8d:pshader.obj
 0003:0005713c       ??_C@_0O@JINFECGF@4?30?5must?5be?50?$AA@ 005ba73c     d3d8d:pshader.obj
 0003:0005714c       ??_C@_0BM@CFHPIIDI@Invalid?5input?5mapping?5Reg?5G?$AA@ 005ba74c     d3d8d:pshader.obj
 0003:00057170       ??_C@_0BM@DMGELJHJ@Invalid?5input?5mapping?5Reg?5F?$AA@ 005ba770     d3d8d:pshader.obj
 0003:00057194       ??_C@_0BM@BHEJOKLK@Invalid?5input?5mapping?5Reg?5E?$AA@ 005ba794     d3d8d:pshader.obj
 0003:000571b8       ??_C@_0CH@NLHGFDAO@Stg1?5mode?5requires?5different?5Stg@ 005ba7b8     d3d8d:pshader.obj
 0003:000571e8       ??_C@_0CI@GNMKOHHG@Stg?53?5mode?5requires?5DOTPRODUCT?5i@ 005ba7e8     d3d8d:pshader.obj
 0003:00057218       ??_C@_0ED@FNHMLECF@Stg2?5mode?5requires?5DOT_RFLCT_SPE@ 005ba818     d3d8d:pshader.obj
 0003:00057268       ??_C@_0DI@BIFPNCGA@Stg3?5mode?5requires?5DOTPRODUCT?5or@ 005ba868     d3d8d:pshader.obj
 0003:000572ac       ??_C@_0CO@OMGNECJG@Stg3?5mode?5requires?5DOTPRODUCT?5in@ 005ba8ac     d3d8d:pshader.obj
 0003:000572e4       ??_C@_0CG@PJJDFFCL@Stg3?5mode?5requires?5DOTPRODUCT?5in@ 005ba8e4     d3d8d:pshader.obj
 0003:00057314       ??_C@_0CG@BNCABBCA@Stg2?5mode?5requires?5DOTPRODUCT?5in@ 005ba914     d3d8d:pshader.obj
 0003:00057344       ??_C@_0CH@IMJBPHNB@Stg3?5mode?5requires?5different?5Stg@ 005ba944     d3d8d:pshader.obj
 0003:00057374       ??_C@_0CH@LPJGCIPA@Stg2?5mode?5requires?5different?5Stg@ 005ba974     d3d8d:pshader.obj
 0003:000573a4       ??_C@_0BD@DKBHCCDJ@Invalid?5Stg?53?5Mode?$AA@ 005ba9a4     d3d8d:pshader.obj
 0003:000573bc       ??_C@_0BD@JMGACJIN@Invalid?5Stg?52?5Mode?$AA@ 005ba9bc     d3d8d:pshader.obj
 0003:000573d4       ??_C@_0BD@KNIIDDBA@Invalid?5Stg?51?5Mode?$AA@ 005ba9d4     d3d8d:pshader.obj
 0003:000573ec       ??_C@_0BD@LPPDIKE@Invalid?5Stg?50?5Mode?$AA@ 005ba9ec     d3d8d:pshader.obj
 0003:00057404       ??_C@_0BA@JKMHEGEN@31?324?5must?5be?50?$AA@ 005baa04     d3d8d:pshader.obj
 0003:00057418       ??_C@_0BP@GEEGIDAO@Invalid?5input?5texture?5in?5stg?53?$AA@ 005baa18     d3d8d:pshader.obj
 0003:00057440       ??_C@_0BP@HNFNLCEP@Invalid?5input?5texture?5in?5stg?52?$AA@ 005baa40     d3d8d:pshader.obj
 0003:00057468       ??_C@_0P@HGOOKDAK@15?30?5must?5be?50?$AA@ 005baa68     d3d8d:pshader.obj
 0003:0005747c       ??_C@_0BA@FAJDPIHD@31?317?5must?5be?50?$AA@ 005baa7c     d3d8d:pshader.obj
 0003:00057490       ??_C@_0BJ@KPIHFFMC@Invalid?5Separate?5C0?5flag?$AA@ 005baa90     d3d8d:pshader.obj
 0003:000574b0       ??_C@_0BA@GFPKLOGA@Invalid?5Mux?5bit?$AA@ 005baab0     d3d8d:pshader.obj
 0003:000574c4       ??_C@_0BH@BFFHEEFP@Invalid?5Combiner?5Count?$AA@ 005baac4     d3d8d:pshader.obj
 0003:000574e0       ??_C@_0BB@OOCFICHB@31?316?5must?5be?50?6?$AA@ 005baae0     d3d8d:pshader.obj
 0003:000574f4       ??_C@_0BA@MIDAIPGD@31?312?5must?5be?50?$AA@ 005baaf4     d3d8d:pshader.obj
 0003:00057508       ??_C@_0BA@HBJMMAED@Stage?53?5invalid?$AA@ 005bab08     d3d8d:pshader.obj
 0003:0005751c       ??_C@_0BA@JOFOKLHN@Stage?52?5invalid?$AA@ 005bab1c     d3d8d:pshader.obj
 0003:00057530       ??_C@_0BA@HFGJBAHO@Stage?51?5invalid?$AA@ 005bab30     d3d8d:pshader.obj
 0003:00057544       ??_C@_0P@FKGNKHBB@31?39?5must?5be?50?$AA@ 005bab44     d3d8d:pshader.obj
 0003:00057558       ??_C@_0DP@HBKCHHNA@D3DDevice_CreatePixelShader?5?9?5In@ 005bab58     d3d8d:pshader.obj
 0003:000575a4       ??_C@_0BJ@CIGDIJMC@PSFinalCombinerConstants?$AA@ 005baba4     d3d8d:pshader.obj
 0003:000575c4       ??_C@_0BA@GIFJJBHO@PSRGBOutputs?$FL7?$FN?$AA@ 005babc4     d3d8d:pshader.obj
 0003:000575d8       ??_C@_0BA@GJJLPLEJ@PSRGBOutputs?$FL6?$FN?$AA@ 005babd8     d3d8d:pshader.obj
 0003:000575ec       ??_C@_0BA@GLNNEFBA@PSRGBOutputs?$FL5?$FN?$AA@ 005babec     d3d8d:pshader.obj
 0003:00057600       ??_C@_0BA@GKBPCPCH@PSRGBOutputs?$FL4?$FN?$AA@ 005bac00     d3d8d:pshader.obj
 0003:00057614       ??_C@_0BA@GPFADJKC@PSRGBOutputs?$FL3?$FN?$AA@ 005bac14     d3d8d:pshader.obj
 0003:00057628       ??_C@_0BA@GOJCFDJF@PSRGBOutputs?$FL2?$FN?$AA@ 005bac28     d3d8d:pshader.obj
 0003:0005763c       ??_C@_0BA@GMNEONMM@PSRGBOutputs?$FL1?$FN?$AA@ 005bac3c     d3d8d:pshader.obj
 0003:00057650       ??_C@_0BA@GNBGIHPL@PSRGBOutputs?$FL0?$FN?$AA@ 005bac50     d3d8d:pshader.obj
 0003:00057664       ??_C@_0BC@GJJBHION@PSAlphaOutputs?$FL7?$FN?$AA@ 005bac64     d3d8d:pshader.obj
 0003:0005767c       ??_C@_0BC@GIFDBCNK@PSAlphaOutputs?$FL6?$FN?$AA@ 005bac7c     d3d8d:pshader.obj
 0003:00057694       ??_C@_0BC@GKBFKMID@PSAlphaOutputs?$FL5?$FN?$AA@ 005bac94     d3d8d:pshader.obj
 0003:000576ac       ??_C@_0BC@GLNHMGLE@PSAlphaOutputs?$FL4?$FN?$AA@ 005bacac     d3d8d:pshader.obj
 0003:000576c4       ??_C@_0BC@GOJINADB@PSAlphaOutputs?$FL3?$FN?$AA@ 005bacc4     d3d8d:pshader.obj
 0003:000576dc       ??_C@_0BC@GPFKLKAG@PSAlphaOutputs?$FL2?$FN?$AA@ 005bacdc     d3d8d:pshader.obj
 0003:000576f4       ??_C@_0BC@GNBMAEFP@PSAlphaOutputs?$FL1?$FN?$AA@ 005bacf4     d3d8d:pshader.obj
 0003:0005770c       ??_C@_0BC@GMNOGOGI@PSAlphaOutputs?$FL0?$FN?$AA@ 005bad0c     d3d8d:pshader.obj
 0003:00057724       ??_C@_0P@KGCEBPCA@PSRGBInputs?$FL7?$FN?$AA@ 005bad24     d3d8d:pshader.obj
 0003:00057738       ??_C@_0P@KHOGHFBH@PSRGBInputs?$FL6?$FN?$AA@ 005bad38     d3d8d:pshader.obj
 0003:0005774c       ??_C@_0P@KFKAMLEO@PSRGBInputs?$FL5?$FN?$AA@ 005bad4c     d3d8d:pshader.obj
 0003:00057760       ??_C@_0P@KEGCKBHJ@PSRGBInputs?$FL4?$FN?$AA@ 005bad60     d3d8d:pshader.obj
 0003:00057774       ??_C@_0P@KBCNLHPM@PSRGBInputs?$FL3?$FN?$AA@ 005bad74     d3d8d:pshader.obj
 0003:00057788       ??_C@_0P@KAOPNNML@PSRGBInputs?$FL2?$FN?$AA@ 005bad88     d3d8d:pshader.obj
 0003:0005779c       ??_C@_0P@KCKJGDJC@PSRGBInputs?$FL1?$FN?$AA@ 005bad9c     d3d8d:pshader.obj
 0003:000577b0       ??_C@_0P@KDGLAJKF@PSRGBInputs?$FL0?$FN?$AA@ 005badb0     d3d8d:pshader.obj
 0003:000577c4       ??_C@_0BB@LFLMIKGB@PSAlphaInputs?$FL7?$FN?$AA@ 005badc4     d3d8d:pshader.obj
 0003:000577d8       ??_C@_0BB@LEHOOAFG@PSAlphaInputs?$FL6?$FN?$AA@ 005badd8     d3d8d:pshader.obj
 0003:000577ec       ??_C@_0BB@LGDIFOAP@PSAlphaInputs?$FL5?$FN?$AA@ 005badec     d3d8d:pshader.obj
 0003:00057800       ??_C@_0BB@LHPKDEDI@PSAlphaInputs?$FL4?$FN?$AA@ 005bae00     d3d8d:pshader.obj
 0003:00057814       ??_C@_0BB@LCLFCCLN@PSAlphaInputs?$FL3?$FN?$AA@ 005bae14     d3d8d:pshader.obj
 0003:00057828       ??_C@_0BB@LDHHEIIK@PSAlphaInputs?$FL2?$FN?$AA@ 005bae28     d3d8d:pshader.obj
 0003:0005783c       ??_C@_0BB@LBDBPGND@PSAlphaInputs?$FL1?$FN?$AA@ 005bae3c     d3d8d:pshader.obj
 0003:00057850       ??_C@_0BB@LAPDJMOE@PSAlphaInputs?$FL0?$FN?$AA@ 005bae50     d3d8d:pshader.obj
 0003:00057864       ??_C@_0CP@OPOPOMI@Invalid?5pixel?5shader?5object?5?$CIalr@ 005bae64     d3d8d:pshader.obj
 0003:0005789c       ??_C@_0DE@HMOCCGDM@Can?8t?5delete?5a?5pixel?5shader?5that@ 005bae9c     d3d8d:pshader.obj
 0003:000578dc       ??_C@_0CC@DDICNKIO@Invalid?5pixel?5shader?5handle?5valu@ 005baedc     d3d8d:pshader.obj
 0003:00057908       ??_C@_0EA@JJMFKHGJ@D3DDevice_SetUserPixelShader?5?9?5I@ 005baf08     d3d8d:pshader.obj
 0003:00057954       ??_C@_0CE@IKMHMGFJ@Pixel?5shader?5handle?5pointer?5is?5N@ 005baf54     d3d8d:pshader.obj
 0003:00057980       ??_C@_0DH@NDBFEDFN@Too?5many?5constants?5specified?5in?5@ 005baf80     d3d8d:pshader.obj
 0003:000579c4       ??_C@_0DI@DACHOIOH@Invalid?5constant?5data?5pointer?5in@ 005bafc4     d3d8d:pshader.obj
 0003:00057a08       ??_C@_0CI@COCHLMNC@Invalid?5pixel?5shader?5definition?5@ 005bb008     d3d8d:pshader.obj
 0003:00057a38       ??_C@_0EC@NFDPBIGH@Attempt?5to?5set?5pixel?5shader?5cons@ 005bb038     d3d8d:pshader.obj
 0003:00057a88       ??_C@_0DH@NCDLGEIC@Too?5many?5constants?5specified?5in?5@ 005bb088     d3d8d:pshader.obj
 0003:00057acc       ??_C@_0DI@DBAJMPDI@Invalid?5constant?5data?5pointer?5in@ 005bb0cc     d3d8d:pshader.obj
 0003:00057b10       ??_C@_0L@HDAAHHIH@Usage?5?$DN?$DN?50?$AA@ 005bb110     d3d8d:surface.obj
 0003:00057b20       ??_C@_0BN@LDFCBFCL@Invalid?5render?5target?5format?$AA@ 005bb120     d3d8d:surface.obj
 0003:00057b74       ??_C@_0BA@FGEDNAFM@?$CISize?5?$CG?53?$CJ?5?$DN?$DN?50?$AA@ 005bb174     d3d8d:recorder.obj
 0003:00057b88       ??_C@_0BM@CENHKOMM@KickoffFence?5?$DO?$DN?5ModifyFence?$AA@ 005bb188     d3d8d:recorder.obj
 0003:00057bac       ??_C@_0DA@CJFIDPIN@?6?$DO?$DO?5Method?3?50x?$CFlx?5?5Got?3?50x?$CFlx?5?5E@ 005bb1ac     d3d8d:recorder.obj
 0003:00057be8       ??_C@_0CG@CMMFNMJM@encodedMethod?5?$DM?$DN?5sizeof?$CIg_ParseS@ 005bb1e8     d3d8d:recorder.obj
 0003:00057c18       ??_C@_0CB@KPGGLOHD@?$CB?$CI?$CKp?5?$CG?5D3DPUSH_NOINCREMENT_FLAG?$CJ@ 005bb218     d3d8d:recorder.obj
 0003:00057c40       ??_C@_0DH@GADGJMOM@GPU?5references?5an?5unmapped?5page?4@ 005bb240     d3d8d:recorder.obj
 0003:00057c84       ??_C@_0BH@GPPJKEBH@?$CI?$CI?$CIDWORD?$CJ?5p?$CJ?5?$CG?57?$CJ?5?$DN?$DN?50?$AA@ 005bb284     d3d8d:recorder.obj
 0003:00057ca0       ??_C@_0CG@DNKNBKEL@Unexpected?5floating?5point?5precis@ 005bb2a0     d3d8d:recorder.obj
 0003:00057cd0       ??_C@_0BA@FOKPLGKO@dwordCount?5?$CB?$DN?50?$AA@ 005bb2d0     d3d8d:recorder.obj
 0003:00057ce4       ??_C@_03JNGMJJJL@?4pb?$AA@ 005bb2e4     d3d8d:recorder.obj
 0003:00057ce8       ??_C@_0FP@EMEFIAOC@D3DPERF_StartPushBufferCapture?3?5@ 005bb2e8     d3d8d:recorder.obj
 0003:00057d5c       ??_C@_0DE@BANDAMNJ@D3DPERF_StartPushBufferCapture?3?5@ 005bb35c     d3d8d:recorder.obj
 0003:00057d9c       ??_C@_0BL@MBGEBLDD@?6Done?5push?9buffer?5capture?6?$AA@ 005bb39c     d3d8d:recorder.obj
 0003:00057dbc       ??_C@_0DF@BLPGBBMN@D3DPERF_StopPushBufferCapture?3?5C@ 005bb3bc     d3d8d:recorder.obj
 0003:00057dfc       ??_C@_0DJ@BNIIHIFL@D3DPERF_StopPushBufferCapture?3?5D@ 005bb3fc     d3d8d:recorder.obj
 0003:00057e40       ??_C@_0DM@GIIDAPD@D3DPERF_StopPushBufferCapture?3?5O@ 005bb440     d3d8d:recorder.obj
 0003:00057e88       ??_C@_0DC@GHHLIFGH@D3DPERF_StopPushBufferCapture?3?5W@ 005bb488     d3d8d:recorder.obj
 0003:00057ec4       ??_C@_0BE@IHKFBKFA@Flags?5must?5be?5zero?6?$AA@ 005bb4c4     d3d8d:recorder.obj
 0003:00057edc       ??_C@_0CD@LJPOEPAC@Couldn?8t?5find?5Kelvin?5method?50x?$CFl@ 005bb4dc     d3d8d:recorder.obj
 0003:00057f08       ??_C@_0M@DCLLLGMI@End?5?$DO?5Start?$AA@ 005bb508     d3d8d:recorder.obj
 0003:00057f18       ??_C@_0CE@ICKIFDJO@?$CIEnd?5?$DO?$DN?50?$CJ?5?$CG?$CG?5?$CIEnd?5?$DM?$DN?5TOTAL_MEMO@ 005bb518     d3d8d:recorder.obj
 0003:00057f44       ??_C@_0CH@KIKNLFEJ@?$CIStart?5?$DO?$DN?50?$CJ?5?$CG?$CG?5?$CIStart?5?$DM?5TOTAL_M@ 005bb544     d3d8d:recorder.obj
 0003:00057f74       ??_C@_0DH@DEOMMBO@?$CIstartUntiled?5?$DO?$DN?5startTile?$CJ?5?$CG?$CG?5?$CI@ 005bb574     d3d8d:recorder.obj
 0003:00057fb8       ??_C@_0BK@FCNHNHGN@startUntiled?5?$DM?5endUntiled?$AA@ 005bb5b8     d3d8d:recorder.obj
 0003:00057fd8       ??_C@_0CH@DOHAPKGH@MarkPages?3?5Invalid?5end?4?5?5Adjusti@ 005bb5d8     d3d8d:recorder.obj
 0003:00058008       ??_C@_0CG@NEKHAIJL@MarkPages?3?5Empty?5range?4?5?5Skippin@ 005bb608     d3d8d:recorder.obj
 0003:00058038       ??_C@_0CF@ELFBLFNO@MarkPages?3?5Empty?5size?4?5?5Skipping@ 005bb638     d3d8d:recorder.obj
 0003:00058064       ??_C@_0BO@KHDNMGBC@offset?5?$CL?5size?5?$DM?$DN?5TOTAL_MEMORY?$AA@ 005bb664     d3d8d:recorder.obj
 0003:00058088       ??_C@_0BF@CCEJCCIL@size?5?$DM?$DN?5TOTAL_MEMORY?$AA@ 005bb688     d3d8d:recorder.obj
 0003:000580a4       ??_C@_0BG@PANFGKGJ@offset?5?$DM?5TOTAL_MEMORY?$AA@ 005bb6a4     d3d8d:recorder.obj
 0003:000580c0       ??_C@_0BM@LJCIBMPE@m_Fence?5?$DM?$DN?5FLAGSFENCE_FENCE?$AA@ 005bb6c0     d3d8d:recorder.obj
 0003:000580e4       ??_C@_0BI@DLNNPGI@Unexpected?5CRC?5failure?6?$AA@ 005bb6e4     d3d8d:recorder.obj
 0003:00058100       ??_C@_0FF@EDGAGHJK@attributeSize?5?$DN?$DN?5g_UnitsOfElemen@ 005bb700     d3d8d:recorder.obj
 0003:00058168       ??_C@_0BH@ICOMLIIE@minVertex?5?$DM?$DN?5maxVertex?$AA@ 005bb768     d3d8d:recorder.obj
 0003:00058184       ??_C@_0DJ@IHDCHHNN@Unexpected?5push?9buffer?5encoding?5@ 005bb784     d3d8d:recorder.obj
 0003:000581c8       ??_C@_09NEMJFDJH@push?5?$CB?$DN?50?$AA@ 005bb7c8     d3d8d:recorder.obj
 0003:000581d4       ??_C@_0BD@GDJFLNOO@size?5?$DM?$DN?5bufferSize?$AA@ 005bb7d4     d3d8d:recorder.obj
 0003:000581ec       ??_C@_0CD@FPPPLKHI@pBuffer?5?$CL?52?5?$DM?$DN?5?$CGbuffer?$FLbufferSiz@ 005bb7ec     d3d8d:recorder.obj
 0003:00058218       ??_C@_0CD@BMJGAIN@pBuffer?5?$CL?57?5?$DM?$DN?5?$CGbuffer?$FLbufferSiz@ 005bb818     d3d8d:recorder.obj
 0003:00058244       ??_C@_0M@FNCCFNIH@count?5?$DM?$DN?516?$AA@ 005bb844     d3d8d:recorder.obj
 0003:00058254       ??_C@_0CD@GKBCAMCL@pBuffer?5?$CL?51?5?$DM?$DN?5?$CGbuffer?$FLbufferSiz@ 005bb854     d3d8d:recorder.obj
 0003:00058280       ??_C@_0BP@IEOFFDHF@pBuffer?5?$DM?$DN?5?$CGbuffer?$FLbufferSize?$FN?$AA@ 005bb880     d3d8d:recorder.obj
 0003:000582a8       ??_C@_0CD@JBKPEGNA@pBuffer?5?$CL?55?5?$DM?$DN?5?$CGbuffer?$FLbufferSiz@ 005bb8a8     d3d8d:recorder.obj
 0003:000582d4       ??_C@_09LOCCNJNA@?$CBIsBusy?$CI?$CJ?$AA@ 005bb8d4     d3d8d:recorder.obj
 0003:000582e0       ??_C@_0BO@KLBLNLFB@pBuffer?5?$DM?5?$CGbuffer?$FLbufferSize?$FN?$AA@ 005bb8e0     d3d8d:recorder.obj
 0003:00058304       ??_C@_0BN@OALEKGAE@Starting?5push?9buffer?5capture?$AA@ 005bb904     d3d8d:recorder.obj
 0003:00058328       ??_C@_0P@GBGEEICI@?$CBm_Initialized?$AA@ 005bb928     d3d8d:recorder.obj
 0003:0005833c       ??_C@_03MDBMCIBA@arl?$AA@  005bb93c     d3d8d:rdi.obj
 0003:00058340       ??_C@_03PCCDGNNG@sge?$AA@  005bb940     d3d8d:rdi.obj
 0003:00058344       ??_C@_03KNKPKBCH@slt?$AA@  005bb944     d3d8d:rdi.obj
 0003:00058348       ??_C@_03LJAEFNNE@max?$AA@  005bb948     d3d8d:rdi.obj
 0003:0005834c       ??_C@_03KLIPLJLL@min?$AA@  005bb94c     d3d8d:rdi.obj
 0003:00058350       ??_C@_03HHBLCKEM@dst?$AA@  005bb950     d3d8d:rdi.obj
 0003:00058354       ??_C@_03IFCENLBA@dp4?$AA@  005bb954     d3d8d:rdi.obj
 0003:00058358       ??_C@_03JDCKMJEI@dph?$AA@  005bb958     d3d8d:rdi.obj
 0003:0005835c       ??_C@_03MKGFENNH@dp3?$AA@  005bb95c     d3d8d:rdi.obj
 0003:00058360       ??_C@_03FPHDAAIJ@mad?$AA@  005bb960     d3d8d:rdi.obj
 0003:00058364       ??_C@_03BDGOHNNK@add?$AA@  005bb964     d3d8d:rdi.obj
 0003:00058368       ??_C@_03IMIFIBCN@mul?$AA@  005bb968     d3d8d:rdi.obj
 0003:0005836c       ??_C@_03GKGDKGJI@?$DP?$DPf?$AA@ 005bb96c     d3d8d:rdi.obj
 0003:00058370       ??_C@_03EBEOPFFL@?$DP?$DPe?$AA@ 005bb970     d3d8d:rdi.obj
 0003:00058374       ??_C@_03FIFFMEBK@?$DP?$DPd?$AA@ 005bb974     d3d8d:rdi.obj
 0003:00058378       ??_C@_03BHBEFCNN@?$DP?$DPc?$AA@ 005bb978     d3d8d:rdi.obj
 0003:0005837c       ??_C@_03OAPGDJM@?$DP?$DPb?$AA@ 005bb97c     d3d8d:rdi.obj
 0003:00058380       ??_C@_03CFCCDAFP@?$DP?$DPa?$AA@ 005bb980     d3d8d:rdi.obj
 0003:00058384       ??_C@_03FHEAOHAD@?$DP?$DP9?$AA@ 005bb984     d3d8d:rdi.obj
 0003:00058388       ??_C@_03EOFLNGEC@?$DP?$DP8?$AA@ 005bb988     d3d8d:rdi.obj
 0003:0005838c       ??_C@_03KDBOCEAF@lit?$AA@  005bb98c     d3d8d:rdi.obj
 0003:00058390       ??_C@_03MGHMBJCF@log?$AA@  005bb990     d3d8d:rdi.obj
 0003:00058394       ??_C@_03KHJOGHMM@exp?$AA@  005bb994     d3d8d:rdi.obj
 0003:00058398       ??_C@_03HPBONGEK@rsq?$AA@  005bb998     d3d8d:rdi.obj
 0003:0005839c       ??_C@_03BLMMAFOJ@rcc?$AA@  005bb99c     d3d8d:rdi.obj
 0003:000583a0       ??_C@_03HKCDEEHL@rcp?$AA@  005bb9a0     d3d8d:rdi.obj
 0003:000583a4       ??_C@_03CNBJFNFA@mov?$AA@  005bb9a4     d3d8d:rdi.obj
 0003:000583a8       ??_C@_03GJPGFFDI@nop?$AA@  005bb9a8     d3d8d:rdi.obj
 0003:000583e8       ??_C@_07GCIIAIGF@?$CFli?4?$CFs?5?$AA@ 005bb9e8     d3d8d:rdi.obj
 0003:000583f4       ??_C@_05KKCIMGE@error?$AA@ 005bb9f4     d3d8d:rdi.obj
 0003:000583fc       ??_C@_04GHFHNDFH@?4xyz?$AA@ 005bb9fc     d3d8d:rdi.obj
 0003:00058404       ??_C@_04NCPJKNBK@?4xyw?$AA@ 005bba04     d3d8d:rdi.obj
 0003:0005840c       ??_C@_03DKEJADLJ@?4xy?$AA@ 005bba0c     d3d8d:rdi.obj
 0003:00058410       ??_C@_04NALPBDED@?4xzw?$AA@ 005bba10     d3d8d:rdi.obj
 0003:00058418       ??_C@_03BBGEFAHK@?4xz?$AA@ 005bba18     d3d8d:rdi.obj
 0003:0005841c       ??_C@_03KEMKCODH@?4xw?$AA@ 005bba1c     d3d8d:rdi.obj
 0003:00058420       ??_C@_02NFILLOPJ@?4x?$AA@  005bba20     d3d8d:rdi.obj
 0003:00058424       ??_C@_04GIADHECG@?4yzw?$AA@ 005bba24     d3d8d:rdi.obj
 0003:0005842c       ??_C@_03BAKGDKEN@?4yz?$AA@ 005bba2c     d3d8d:rdi.obj
 0003:00058430       ??_C@_03KFAIEEAA@?4yw?$AA@ 005bba30     d3d8d:rdi.obj
 0003:00058434       ??_C@_02MMJAIPLI@?4y?$AA@  005bba34     d3d8d:rdi.obj
 0003:00058438       ??_C@_03KHEOPKFJ@?4zw?$AA@ 005bba38     d3d8d:rdi.obj
 0003:0005843c       ??_C@_02OHLNNMHL@?4z?$AA@  005bba3c     d3d8d:rdi.obj
 0003:00058440       ??_C@_02FCBDKCDG@?4w?$AA@  005bba40     d3d8d:rdi.obj
 0003:00058444       ??_C@_05IBPNLFHH@?4null?$AA@ 005bba44     d3d8d:rdi.obj
 0003:0005844c       ??_C@_03NIAIBAHI@?$DPo2?$AA@ 005bba4c     d3d8d:rdi.obj
 0003:00058450       ??_C@_03PDCFEDLL@?$DPo1?$AA@ 005bba50     d3d8d:rdi.obj
 0003:00058454       ??_C@_07NNELAGMK@c?$FL?$CFd?$FN?$CFs?$AA@ 005bba54     d3d8d:rdi.obj
 0003:00058460       ??_C@_03OOAAEEIB@?4?$CFc?$AA@ 005bba60     d3d8d:rdi.obj
 0003:00058464       ??_C@_09JIOCOLGH@?4?$CFc?$CFc?$CFc?$CFc?$AA@ 005bba64     d3d8d:rdi.obj
 0003:00058478       ??_C@_02DPKJAMEF@?$CFd?$AA@ 005bba78     d3d8d:rdi.obj
 0003:0005847c       ??_C@_04KBDJOJNB@?$FL?$CFd?$FN?$AA@ 005bba7c     d3d8d:rdi.obj
 0003:00058484       ??_C@_05EAMLCGKJ@a0?4x?$CL?$AA@ 005bba84     d3d8d:rdi.obj
 0003:0005848c       ??_C@_02HAOIJKIC@?$CFc?$AA@ 005bba8c     d3d8d:rdi.obj
 0003:00058498       ??_C@_06HNFCNFHD@?$DL?5?$CFs?5?6?$AA@ 005bba98     d3d8d:rdi.obj
 0003:000584a0       ??_C@_07FACBJMFL@?$CK?5eos?5?$CK?$AA@ 005bbaa0     d3d8d:rdi.obj
 0003:000584ac       ??_C@_05CDJMJPEC@?6?5?5?5?5?$AA@ 005bbaac     d3d8d:rdi.obj
 0003:000584b4       ??_C@_01CELHOKLL@?$HN?$AA@ 005bbab4     d3d8d:rdi.obj
 0003:000584b8       ??_C@_05IPCGJMII@r?$CFd?$CFs?$AA@ 005bbab8     d3d8d:rdi.obj
 0003:000584c0       ??_C@_02KEGNLNML@?0?5?$AA@ 005bbac0     d3d8d:rdi.obj
 0003:000584c4       ??_C@_04LIJBDGKK@a0?4x?$AA@ 005bbac4     d3d8d:rdi.obj
 0003:000584cc       ??_C@_01HCONENDN@?$HL?$AA@ 005bbacc     d3d8d:rdi.obj
 0003:000584d0       ??_C@_03IKGEINEE@?$CFs?5?$AA@ 005bbad0     d3d8d:rdi.obj
 0003:000584d4       ??_C@_0CB@PDNGEFEK@SizeOfData?5must?5be?5multiple?5of?54@ 005bbad4     d3d8d:rdi.obj
 0003:000584fc       ??_C@_0CC@PLBKGEKH@?5?5mask?3?50x?$CF08lx?5?5unused?3?50x?$CF08lx@ 005bbafc     d3d8d:rdi.obj
 0003:00058524       ??_C@_07DNLILAEP@?5?5t?$CFd?3?5?$AA@ 005bbb24     d3d8d:rdi.obj
 0003:00058530       ??_C@_0BD@DJGJCJOI@?5?5ptsize?3?50x?$CF08lx?6?$AA@ 005bbb30     d3d8d:rdi.obj
 0003:00058548       ??_C@_08JBCBNKKO@0x?$CF08lx?6?$AA@ 005bbb48     d3d8d:rdi.obj
 0003:00058554       ??_C@_07HDFAPMNJ@?5?5fog?3?5?$AA@ 005bbb54     d3d8d:rdi.obj
 0003:00058560       ??_C@_0CC@BJOMKCID@?5?5bdiff?3?50x?$CF08lx?5?5bspec?3?50x?$CF08lx@ 005bbb60     d3d8d:rdi.obj
 0003:00058588       ??_C@_0CA@LIANPMKC@?5?5diff?3?50x?$CF08lx?5?5spec?3?50x?$CF08lx?6?$AA@ 005bbb88     d3d8d:rdi.obj
 0003:000585b0       ??_C@_0CM@DGIHOJFI@?5?5xyzw?3?50x?$CF08lx?0?50x?$CF08lx?0?50x?$CF08l@ 005bbbb0     d3d8d:rdi.obj
 0003:000585e4       ??_C@_08GICJONEO@?5?5xyzw?3?5?$AA@ 005bbbe4     d3d8d:rdi.obj
 0003:000585f0       ??_C@_03PMGGPEJJ@?$CFd?6?$AA@ 005bbbf0     d3d8d:rdi.obj
 0003:000585f4       ??_C@_06BGAHNFGK@?$CF?53d?3?5?$AA@ 005bbbf4     d3d8d:rdi.obj
 0003:000585fc       ??_C@_06BFNBNHPB@?$CF03d?3?5?$AA@ 005bbbfc     d3d8d:rdi.obj
 0003:00058604       ??_C@_02MNMNLDAI@?$CJ?6?$AA@ 005bbc04     d3d8d:rdi.obj
 0003:00058608       ??_C@_07MHOPGIIE@?6?5?5?5?5?5?$CI?$AA@ 005bbc08     d3d8d:rdi.obj
 0003:00058614       ??_C@_08POEKBGIG@0x?$CF08lx?5?$AA@ 005bbc14     d3d8d:rdi.obj
 0003:00058620       ??_C@_06CILBPOEB@?$CF02d?3?5?$AA@ 005bbc20     d3d8d:rdi.obj
 0003:00058628       ??_C@_08KELJJJDE@?50x?$CF08lx?$AA@ 005bbc28     d3d8d:rdi.obj
 0003:00058634       ??_C@_0L@BDMJMANI@?5?5unknown?3?$AA@ 005bbc34     d3d8d:rdi.obj
 0003:00058644       ??_C@_0BK@OLJFMPJP@?5?5z?3?50x?$CF08lx?5?5w?3?50x?$CF08lx?6?$AA@ 005bbc44     d3d8d:rdi.obj
 0003:00058664       ??_C@_07LGLFBKHC@CAS?5?$CFd?6?$AA@ 005bbc64     d3d8d:rdi.obj
 0003:00058790       ??_C@_09FBGPICKC@CopyRects?$AA@ 005bbd90     d3d8d:pushres.obj
 0003:0005879c       ??_C@_0BC@JNDDCMEE@EndVisibilityTest?$AA@ 005bbd9c     d3d8d:pushres.obj
 0003:000587b4       ??_C@_0L@BGIJEDPF@SetPalette?$AA@ 005bbdb4     d3d8d:pushres.obj
 0003:000587c4       ??_C@_0L@BPHKIMHE@SetTexture?$AA@ 005bbdc4     d3d8d:pushres.obj
 0003:000587d4       ??_C@_0BF@MPBJCMNM@SetVertexShaderInput?$AA@ 005bbdd4     d3d8d:pushres.obj
 0003:000587f0       ??_C@_0BA@LPDJAFGN@SetRenderTarget?$AA@ 005bbdf0     d3d8d:pushres.obj
 0003:00058804       ??_C@_0DA@PPHGBEMF@flagsAndReturnOffset?5?$CG?5PUSHER_FI@ 005bbe04     d3d8d:pushres.obj
 0003:00058840       ??_C@_0EH@JCHLKMMC@FixupPushBuffer?3?5Bad?5RunPushBuff@ 005bbe40     d3d8d:pushres.obj
 0003:00058898       ??_C@_0O@IAAFFPOB@g_FixupActive?$AA@ 005bbe98     d3d8d:pushres.obj
 0003:000588a8       ??_C@_0CN@BJILCOCF@?$CIisRaw?$CJ?5?$HM?$HM?5?$CIg_FixupCount?5?$DN?$DN?5g_Or@ 005bbea8     d3d8d:pushres.obj
 0003:000588e0       ??_C@_0JJ@KEMMOKCH@The?5fix?9up?5signature?5doesn?8t?5mat@ 005bbee0     d3d8d:pushres.obj
 0003:00058998       ??_C@_0BH@LAEABJMM@pFixup?5?$DN?$DN?5g_pNextFixup?$AA@ 005bbf98     d3d8d:pushres.obj
 0003:000589b4       ??_C@_0P@LHFDMALH@?$CBg_FixupActive?$AA@ 005bbfb4     d3d8d:pushres.obj
 0003:000589c8       ??_C@_0CM@KKOHOLAP@Specified?5offset?5is?5larger?5than?5@ 005bbfc8     d3d8d:pushres.obj
 0003:000589fc       ??_C@_0CI@PNPPNAJG@Push?9buffer?5?8Size?8?5not?5a?5dword?5m@ 005bbffc     d3d8d:pushres.obj
 0003:00058a2c       ??_C@_0DC@BMCDJPKB@Zero?5push?9buffer?5?8Size?8?5?$CImaybe?5f@ 005bc02c     d3d8d:pushres.obj
 0003:00058a68       ??_C@_0DH@GDPFLFKD@Fix?9up?5routine?5called?5without?5fi@ 005bc068     d3d8d:pushres.obj
 0003:00058ab0       ??_C@_0EH@NAPDHEDO@NULL?5D3DVERTEXATTRIBUTEFORMAT?5is@ 005bc0b0     d3d8d:pushres.obj
 0003:00058b08       ??_C@_0BA@LADIBKBA@totalCount?5?$DN?$DN?50?$AA@ 005bc108     d3d8d:pushres.obj
 0003:00058b20       ??_C@_0GD@ONNILJOM@Requested?5render?5state?5is?5not?5si@ 005bc120     d3d8d:pushres.obj
 0003:00058b98       ??_C@_0EC@IALPCDLO@D3DPushBuffer_Verify?3?5Unresolved@ 005bc198     d3d8d:pushres.obj
 0003:00058be8       ??_C@_0EG@HJJNBLEI@D3DPushBuffer_Verify?3?5Unresolved@ 005bc1e8     d3d8d:pushres.obj
 0003:00058c40       ??_C@_0EP@JAJFLLAK@D3DPushBuffer_Verify?3?5Unexpected@ 005bc240     d3d8d:pushres.obj
 0003:00058ca0       ??_C@_0EP@CDJKLMGI@D3DPushBuffer_Verify?3?5Unresolved@ 005bc2a0     d3d8d:pushres.obj
 0003:00058d00       ??_C@_0BB@KMGJBADK@instruction?5?$CB?$DN?51?$AA@ 005bc300     d3d8d:pushres.obj
 0003:00058d14       ??_C@_0CB@NKBLPGBO@Invalid?5value?5for?5StampResources@ 005bc314     d3d8d:pushres.obj
 0003:00058d3c       ??_C@_0CJ@CJLBKIFE@Can?8t?5Reset?5while?5in?5a?5Begin?1End@ 005bc33c     d3d8d:pushres.obj
 0003:00058d70       ??_C@_0DF@LAPNGPBL@BeginFixup?5called?5twice?5with?5no?5@ 005bc370     d3d8d:pushres.obj
 0003:00058db0       ??_C@_0DG@PLCMNNPL@Fixup?5object?5already?5in?5a?5BeginF@ 005bc3b0     d3d8d:pushres.obj
 0003:00058df0       ??_C@_0DM@MKNOJFGD@Can?8t?5have?5more?5than?5one?5BeginFi@ 005bc3f0     d3d8d:pushres.obj
 0003:00058e38       ??_C@_0BJ@BNHGHAJH@Invalid?5value?5for?5NoWait?$AA@ 005bc438     d3d8d:pushres.obj
 0003:00058e58       ??_C@_0BN@NPBMLLDH@End?5without?5a?5matching?5Begin?$AA@ 005bc458     d3d8d:pushres.obj
 0003:00058e7c       ??_C@_0DB@LNFKILKN@EndFixup?5called?5without?5first?5ca@ 005bc47c     d3d8d:pushres.obj
 0003:00058eb8       ??_C@_0GE@PFPMKCGH@D3DPUSHBUFFER_RUN_USING_CPU_COPY@ 005bc4b8     d3d8d:pushres.obj
 0003:00058f30       ??_C@_0DM@CFDLIMIG@AssertWriteCombined?5?9?5the?5addres@ 005bc530     d3d8d:pushres.obj
 0003:00058f78       ??_C@_0CD@LJIKMBKO@Not?5in?5order?5of?5increasing?5offse@ 005bc578     d3d8d:pushres.obj
 0003:00058fa4       ??_C@_0CP@EINBOIDP@Offset?5in?5?8Fixup?8?5larger?5than?5pu@ 005bc5a4     d3d8d:pushres.obj
 0003:00058fdc       ??_C@_0CD@GKCNHGNH@Non?9dword?9multiple?5size?5in?5?8Fixu@ 005bc5dc     d3d8d:pushres.obj
 0003:00059008       ??_C@_0CE@LAHGFNK@Non?9dword?9aligned?5offset?5in?5?8Fix@ 005bc608     d3d8d:pushres.obj
 0003:00059034       ??_C@_0CN@MCIFFBBD@Size?5in?5?8Fixup?8?5larger?5than?5push@ 005bc634     d3d8d:pushres.obj
 0003:0005906c       ??_C@_0CA@MCMCNHBE@Can?8t?5have?5empty?5fix?9up?5buffers?$AA@ 005bc66c     d3d8d:pushres.obj
 0003:00059094       ??_C@_0CM@GIEFGCOC@The?5last?5fix?9up?5overflowed?5the?5F@ 005bc694     d3d8d:pushres.obj
 0003:000590c8       ??_C@_0FF@FANJAFCH@Can?8t?5RunPushBuffer?5with?5a?5Fixup@ 005bc6c8     d3d8d:pushres.obj
 0003:00059130       ??_C@_0IE@IEOAKGLM@D3DPUSHBUFFER_RUN_USING_CPU_COPY@ 005bc730     d3d8d:pushres.obj
 0003:000591d0       ??_C@_0GB@KDEDAJLH@Push?9buffer?5size?5too?5small?5or?5fi@ 005bc7d0     d3d8d:pushres.obj
 0003:00059244       ??_C@_0CC@CAJCMLPK@Invalid?5value?5for?5RunUsingCpuCop@ 005bc844     d3d8d:pushres.obj
 0003:0005926c       ??_C@_0CP@BOICJIPA@Buffer?5allocation?5size?5must?5be?5a@ 005bc86c     d3d8d:pushres.obj
 0003:000592a4       ??_C@_0DI@CCMAJOBK@?$CB?$CIpDevice?9?$DOm_StateFlags?5?$CG?5STATE_@ 005bc8a4     d3d8d:pushres.obj
 0003:000592e8       ??_C@_0FB@PBFNEDGK@Can?8t?5call?5BeginPushBuffer?5when?5@ 005bc8e8     d3d8d:pushres.obj
 0003:00059350       ??_C@_0FA@DCFBEAA@Buffer?5size?5?$CIAllocationSize?$CJ?5mus@ 005bc950     d3d8d:pushres.obj
 0003:000593b0       ??_C@_0DH@EDJLEGFH@Already?5recording?5a?5push?9buffer?0@ 005bc9b0     d3d8d:pushres.obj
 0003:000593f4       ??_C@_0DH@CBFJFJON@Buffer?5pointer?5can?8t?5be?5NULL?5and@ 005bc9f4     d3d8d:pushres.obj
 0003:00059438       ??_C@_0JD@BOJHCPEE@?$CIpDevice?9?$DOm_pPushBufferRecordRes@ 005bca38     d3d8d:pushres.obj
 0003:000594e8       ??_C@_0EA@GFMIGBDO@Can?8t?5call?5EndPushBuffer?5without@ 005bcae8     d3d8d:pushres.obj
 0003:00059538       ??_C@_0EF@NBLMHLHF@GetPushBufferOffset?5can?5only?5be?5@ 005bcb38     d3d8d:pushres.obj
 0003:00059590       ??_C@_0FJ@IOGPOGIB@Signature?5mismatch?5?9?5Offset?5or?5p@ 005bcb90     d3d8d:pushres.obj
 0003:00059600       ??_C@_0GC@EICFMLGF@Can?8t?5handle?5D3DPUSHBUFFER_RUN_U@ 005bcc00     d3d8d:pushres.obj
 0003:00059678       ??_C@_0CI@ILMNLLEJ@Stream?5count?5can?8t?5be?50?5or?5more?5@ 005bcc78     d3d8d:pushres.obj
 0003:000596a8       ??_C@_0CD@KKHDCMKC@No?5z?9buffer?5now?5but?5was?5one?5befo@ 005bcca8     d3d8d:pushres.obj
 0003:000596d4       ??_C@_0BP@CNNLCOK@Z?9buffer?5now?5but?5wasn?8t?5before?$AA@ 005bccd4     d3d8d:pushres.obj
 0003:000596fc       ??_C@_0P@KICNECLF@Pitch?5mismatch?$AA@ 005bccfc     d3d8d:pushres.obj
 0003:00059710       ??_C@_0CD@FCNMPAJ@New?5texture?5type?5doesn?8t?5match?5o@ 005bcd10     d3d8d:pushres.obj
 0003:0005973c       ??_C@_0BK@JHIIBCPL@Can?8t?5take?5a?5NULL?5texture?$AA@ 005bcd3c     d3d8d:pushres.obj
 0003:0005975c       ??_C@_0DJ@MHFCBLOM@Offset?5signature?5is?5neither?5a?5NO@ 005bcd5c     d3d8d:pushres.obj
 0003:000597a0       ??_C@_0DJ@EAHBDDG@Can?8t?5do?5a?5SetJump?5when?5D3DPUSHB@ 005bcda0     d3d8d:pushres.obj
 0003:000597e4       ??_C@_0BC@FMCFJCBF@m_InstMem?5?$CB?$DN?5NULL?$AA@ 005bcde4     d3d8d:mphal.obj
 0003:000597fc       ??_C@_0CN@IGGMMKLM@REG_RD_DRF?$CIregbase?0?5_PFB?0?5_CFG0?0@ 005bcdfc     d3d8d:mphal.obj
 0003:00059834       ??_C@_0BG@PPPBDABK@MP?3?5M?5PLL?5not?5locked?6?$AA@ 005bce34     d3d8d:mphal.obj
 0003:00059850       ??_C@_0BD@FLEEGCAC@Setting?5MClk?5to?5?$CFd?$AA@ 005bce50     d3d8d:mphal.obj
 0003:00059868       ??_C@_0BH@NJFAOHIL@MP?3?5NV?5PLL?5not?5locked?6?$AA@ 005bce68     d3d8d:mphal.obj
 0003:00059884       ??_C@_0BF@MMLCEFE@MP?3?5VPLL?5not?5locked?6?$AA@ 005bce84     d3d8d:mphal.obj
 0003:000598a0       ??_C@_0CA@PNDPOLDD@m_HalInfo?4GrCtxTable?$FLChID?$FN?5?$DN?$DN?50?$AA@ 005bcea0     d3d8d:mphal.obj
 0003:000598c8       ??_C@_0DD@BHANLCI@INST_RD32?$CIRegisterBase?0?5grCtxTab@ 005bcec8     d3d8d:mphal.obj
 0003:00059908       ??_C@_0CG@MHKNMBGB@entry?5?$CK?5sizeof?$CIHW_HASHENTRY?$CJ?5?$DM?50@ 005bcf08     d3d8d:mphal.obj
 0003:00059938       ??_C@_0BC@MDGHFKBB@Unexpected?5class?6?$AA@ 005bcf38     d3d8d:mphal.obj
 0003:00059950       ??_C@_0CO@BOENDAC@m_HalInfo?4GrChID?5?$CB?$DN?5?$CIULONG?$CJm_Hal@ 005bcf50     d3d8d:mphal.obj
 0003:00059988       ??_C@_0FK@LLLGLMOI@offset?5?$CL?54?5?$DN?$DN?5?$CIsizeof?$CIGRCTX3D_NV@ 005bcf88     d3d8d:mphal.obj
 0003:000599f8       ??_C@_0FG@JOPCGLCF@REG_RD32?$CIRegisterBase?0?5NV_PFB_TS@ 005bcff8     d3d8d:mphal.obj
 0003:00059a60       ??_C@_0FI@FHIAIKBD@REG_RD32?$CIRegisterBase?0?5NV_PFB_TL@ 005bd060     d3d8d:mphal.obj
 0003:00059ad0       ??_C@_0FE@JAOOMINB@REG_RD32?$CIRegisterBase?0?5NV_PFB_TI@ 005bd0d0     d3d8d:mphal.obj
 0003:00059b34       ??_C@_0BL@MCMEKHMO@Unexpected?5color?5argument?6?$AA@ 005bd134     d3d8d:combiner.obj
 0003:00059b58       ??_C@_0EE@IMMGKBJA@?$CIstage?5?$DM?53?$CJ?5?$CG?$CG?5?$CID3D__TextureStat@ 005bd158     d3d8d:combiner.obj
 0003:00059bb0       ??_C@_0EL@CIDPOGPC@D3DTOP_BUMPENVMAP?5requires?5a?5tex@ 005bd1b0     d3d8d:combiner.obj
 0003:00059c0c       ??_C@_0P@LJPINCNI@Unexpected?5OP?6?$AA@ 005bd20c     d3d8d:combiner.obj
 0003:00059c20       ??_C@_0CH@HOGGLPIK@?$CIusedStages?5?$DO?$DN?51?$CJ?5?$CG?$CG?5?$CIusedStages@ 005bd220     d3d8d:combiner.obj
 0003:00059c50       ??_C@_0BG@GKGGGOBL@Illegal?5ALPHAOP?3?5?$CFli?6?$AA@ 005bd250     d3d8d:combiner.obj
 0003:00059c70       ??_C@_0HK@NMMKDMNE@Point?5sprites?5are?5enabled?5but?5no@ 005bd270     d3d8d:combiner.obj
 0003:0005c5d4       ?g_OverscanColor@D3D@@3KA  005bfbd4     d3d8d:d3dbase.obj
 0003:0005c5d8       ?g_SoftDisplayFilterValue@D3D@@3HA 005bfbd8     d3d8d:d3dbase.obj
 0003:0005c5dc       ?g_FlickerFilterValue@D3D@@3KA 005bfbdc     d3d8d:d3dbase.obj
 0003:0005c5e0       ?g_SoftDisplayFilterSet@D3D@@3HA 005bfbe0     d3d8d:d3dbase.obj
 0003:0005c5e4       ?g_FlickerFilterSet@D3D@@3HA 005bfbe4     d3d8d:d3dbase.obj
 0003:0005c5ec       ?g_DoChecksum@D3D@@3KA     005bfbec     d3d8d:d3dbase.obj
 0003:0005c5f0       ?g_Channel@D3D@@3KA        005bfbf0     d3d8d:d3dbase.obj
 0003:0005c5f4       ?g_Value@D3D@@3PAKA        005bfbf4     d3d8d:d3dbase.obj
 0003:0005c60c       ?g_WarnAboutCopyRectStateSwizzle@D3D@@3HA 005bfc0c     d3d8d:state.obj
 0003:0005c610       ?g_WarnedAboutStencil@D3D@@3HA 005bfc10     d3d8d:state.obj
 0003:0005c614       ?g_StencilEverEnabled@D3D@@3HA 005bfc14     d3d8d:state.obj
 0003:0005c620       ?g_StartPut@@3PCKC         005bfc20     d3d8d:globals.obj
 0003:0005c624       _D3D__Parser               005bfc24     d3d8d:globals.obj
 0003:0005c628       _D3D__SingleStepPusher     005bfc28     d3d8d:globals.obj
 0003:0005c630       ?g_VertexShaderConstants@@3PAY03MA 005bfc30     d3d8d:globals.obj
 0003:0005d230       ?g_NullHardwareGetPut@@3PAKA 005c0830     d3d8d:globals.obj
 0003:0005d238       _D3D__AvInfo               005c0838     d3d8d:globals.obj
 0003:0005d23c       _D3D__GpuReg               005c083c     d3d8d:globals.obj
 0003:0005d240       _D3D__NullHardware         005c0840     d3d8d:globals.obj
 0003:0005d244       _D3D__IndexData            005c0844     d3d8d:globals.obj
 0003:0005d248       _D3D__DirtyFlags           005c0848     d3d8d:globals.obj
 0003:0005d250       _D3D__TextureState         005c0850     d3d8d:globals.obj
 0003:0005d450       _D3D__RenderState          005c0a50     d3d8d:globals.obj
 0003:0005d6e8       _D3D__pDevice              005c0ce8     d3d8d:globals.obj
 0003:0005d6f0       _D3D__Device               005c0cf0     d3d8d:globals.obj
 0003:00060640       ?g_CurrentPrimitiveType@D3D@@3HA 005c3c40     d3d8d:drawprim.obj
 0003:00060648       ?g_Stream@D3D@@3PAUStream@1@A 005c3c48     d3d8d:vshader.obj
 0003:00060708       ?g_DirectVertexShader@D3D@@3UVertexShader@1@A 005c3d08     d3d8d:vshader.obj
 0003:00060828       ?g_FvfVertexShader@D3D@@3UVertexShader@1@A 005c3e28     d3d8d:vshader.obj
 0003:00060948       ?g_LoadedVertexShaderSlot@D3D@@3PAEA 005c3f48     d3d8d:vshader.obj
 0003:00060a88       ?g_PerfProfData@D3D@@3UD3DPERF_PROFDATA@1@A 005c4088     d3d8d:stats.obj
 0003:00060a8c       ?g_PerfLastGpuBusyCounts@D3D@@3PAKA 005c408c     d3d8d:stats.obj
 0003:00060a9c       ?g_PerfLastProfileSamples@D3D@@3KA 005c409c     d3d8d:stats.obj
 0003:00060aa0       ?g_rcbAtReset@D3D@@3U_KPRCB@@A 005c40a0     d3d8d:stats.obj
 0003:00060cfc       ?g_pPutLocationAtReset@D3D@@3PAKA 005c42fc     d3d8d:stats.obj
 0003:00060d80       ?m_PushSegmentSize@CDevice@D3D@@2KA 005c4380     d3d8d:dxgcreate.obj
 0003:00060d84       ?m_PushBufferSize@CDevice@D3D@@2KA 005c4384     d3d8d:dxgcreate.obj
 0003:00060d8c       _D3D__AllocsNoncontiguous  005c438c     d3d8d:memory.obj
 0003:00060d90       _D3D__AllocsContiguous     005c4390     d3d8d:memory.obj
 0003:00060da0       ?g_pEndState@D3D@@3PCKC    005c43a0     d3d8d:pusher.obj
 0003:00060da4       ?g_pEndPush@D3D@@3PCKC     005c43a4     d3d8d:pusher.obj
 0003:00060da8       ?g_PushState@D3D@@3KA      005c43a8     d3d8d:pusher.obj
 0003:00060dac       ?g_ReservedSize@D3D@@3KA   005c43ac     d3d8d:pusher.obj
 0003:00060db0       ?g_PushIndex@D3D@@3KA      005c43b0     d3d8d:pusher.obj
 0003:00060db4       ?g_pPushNext@D3D@@3PCKC    005c43b4     d3d8d:pusher.obj
 0003:00060dc0       ?g_snapshot@D3D@@3VDebugSnapshot@1@A 005c43c0     d3d8d:shadersnapshot.obj
 0003:00061850       ?g_UserLevel@D3D@@3HA      005c4e50     d3d8d:timing.obj
 0003:000618d0       ?g_VideoOffset@D3D@@3KA    005c4ed0     d3d8d:mpintr.obj
 0003:000618d4       ?g_DpcRIPFired@D3D@@3_NA   005c4ed4     d3d8d:mpintr.obj
 0003:000618e0       ?g_PushBufferRecorder@D3D@@3VRecorder@1@A 005c4ee0     d3d8d:recorder.obj
 0003:00061d00       ?g_CRCTable@D3D@@3PAKA     005c5300     d3d8d:recorder.obj
 0003:00062100       ?g_ParseState@D3D@@3PAKA   005c5700     d3d8d:recorder.obj
 0003:00064908       ?g_pFixup@D3D@@3PAUD3DFixup@@A 005c7f08     d3d8d:pushres.obj
 0003:0006490c       ?g_OriginalCount@D3D@@3KA  005c7f0c     d3d8d:pushres.obj
 0003:00064910       ?g_FixupToBuffer@D3D@@3KA  005c7f10     d3d8d:pushres.obj
 0003:00064914       ?g_pNextFixup@D3D@@3PAKA   005c7f14     d3d8d:pushres.obj
 0003:00064918       ?g_FixupCount@D3D@@3KA     005c7f18     d3d8d:pushres.obj
 0003:0006491c       ?g_FixupActive@D3D@@3HA    005c7f1c     d3d8d:pushres.obj
 0003:00064920       ?g_FixupBracket@D3D@@3HA   005c7f20     d3d8d:pushres.obj
 0004:00000000       _png_get_header_version    005c94c0 f   d3dx8d:png.obj
 0004:00000006       _png_set_sig_bytes         005c94c6 f   d3dx8d:png.obj
 0004:0000003e       _png_sig_cmp               005c94fe f   d3dx8d:png.obj
 0004:0000009a       _png_check_sig             005c955a f   d3dx8d:png.obj
 0004:000000ba       _png_zalloc                005c957a f   d3dx8d:png.obj
 0004:00000123       _png_zfree                 005c95e3 f   d3dx8d:png.obj
 0004:0000012e       _png_reset_crc             005c95ee f   d3dx8d:png.obj
 0004:0000014f       _png_calculate_crc         005c960f f   d3dx8d:png.obj
 0004:000001a0       _png_info_init             005c9660 f   d3dx8d:png.obj
 0004:000001b5       _png_info_destroy          005c9675 f   d3dx8d:png.obj
 0004:000001ca       _png_get_io_ptr            005c968a f   d3dx8d:png.obj
 0004:000001d7       _png_get_copyright         005c9697 f   d3dx8d:png.obj
 0004:000001dd       ?png_check_version@D3DX@@YAXPAUpng_struct_def@1@@Z 005c969d f   d3dx8d:png.obj
 0004:000001de       _png_create_info_struct    005c969e f   d3dx8d:png.obj
 0004:00000212       _png_destroy_info_struct   005c96d2 f   d3dx8d:png.obj
 0004:00000245       _png_set_crc_action        005c9705 f   d3dx8d:pngrtran.obj
 0004:000002e5       _png_set_strip_16          005c97a5 f   d3dx8d:pngrtran.obj
 0004:000002f4       _png_set_dither            005c97b4 f   d3dx8d:pngrtran.obj
 0004:00000ad6       _png_set_gamma             005c9f96 f   d3dx8d:pngrtran.obj
 0004:00000b1a       _png_set_expand            005c9fda f   d3dx8d:pngrtran.obj
 0004:00000b29       _png_set_palette_to_rgb    005c9fe9 f   d3dx8d:pngrtran.obj
 0004:00000b38       _png_set_gray_1_2_4_to_8   005c9ff8 f   d3dx8d:pngrtran.obj
 0004:00000b47       _png_set_tRNS_to_alpha     005ca007 f   d3dx8d:pngrtran.obj
 0004:00000b56       _png_read_transform_info   005ca016 f   d3dx8d:pngrtran.obj
 0004:00000c74       _png_do_unpack             005ca134 f   d3dx8d:pngrtran.obj
 0004:00000dc8       _png_do_unshift            005ca288 f   d3dx8d:pngrtran.obj
 0004:00000fa0       _png_do_chop               005ca460 f   d3dx8d:pngrtran.obj
 0004:00000ff7       _png_do_read_filler        005ca4b7 f   d3dx8d:pngrtran.obj
 0004:000012b5       _png_build_grayscale_palette 005ca775 f   d3dx8d:pngrtran.obj
 0004:0000132f       _png_do_gamma              005ca7ef f   d3dx8d:pngrtran.obj
 0004:00001750       _png_do_expand_palette     005cac10 f   d3dx8d:pngrtran.obj
 0004:000019da       _png_do_expand             005cae9a f   d3dx8d:pngrtran.obj
 0004:00001e05       _png_do_dither             005cb2c5 f   d3dx8d:pngrtran.obj
 0004:00001f56       _png_build_gamma_table     005cb416 f   d3dx8d:pngrtran.obj
 0004:00002323       _png_init_read_transformations 005cb7e3 f   d3dx8d:pngrtran.obj
 0004:0000247a       _png_do_read_transformations 005cb93a f   d3dx8d:pngrtran.obj
 0004:00002680       _png_read_data             005cbb40 f   d3dx8d:pngrio.obj
 0004:000026b4       _png_set_read_fn           005cbb74 f   d3dx8d:pngrio.obj
 0004:00002704       _png_set_bgr               005cbbc4 f   d3dx8d:pngtrans.obj
 0004:00002713       _png_set_packing           005cbbd3 f   d3dx8d:pngtrans.obj
 0004:00002736       _png_set_shift             005cbbf6 f   d3dx8d:pngtrans.obj
 0004:00002757       _png_set_interlace_handling 005cbc17 f   d3dx8d:pngtrans.obj
 0004:0000277b       _png_set_filler            005cbc3b f   d3dx8d:pngtrans.obj
 0004:000027dc       _png_do_bgr                005cbc9c f   d3dx8d:pngtrans.obj
 0004:000028ca       _png_create_read_struct    005cbd8a f   d3dx8d:pngread.obj
 0004:00002a0d       _png_read_init             005cbecd f   d3dx8d:pngread.obj
 0004:00002afd       _png_read_info             005cbfbd f   d3dx8d:pngread.obj
 0004:00002ccc       _png_read_update_info      005cc18c f   d3dx8d:pngread.obj
 0004:00002cf6       _png_start_read_image      005cc1b6 f   d3dx8d:pngread.obj
 0004:00002d10       _png_read_row              005cc1d0 f   d3dx8d:pngread.obj
 0004:000031a0       _png_read_rows             005cc660 f   d3dx8d:pngread.obj
 0004:00003238       _png_read_image            005cc6f8 f   d3dx8d:pngread.obj
 0004:00003298       _png_read_end              005cc758 f   d3dx8d:pngread.obj
 0004:000033d8       _png_read_destroy          005cc898 f   d3dx8d:pngread.obj
 0004:00003543       _png_set_read_status_fn    005cca03 f   d3dx8d:pngread.obj
 0004:00003558       _png_destroy_read_struct   005cca18 f   d3dx8d:pngread.obj
 0004:000035f9       _png_get_valid             005ccab9 f   d3dx8d:pngget.obj
 0004:0000361c       _png_get_rowbytes          005ccadc f   d3dx8d:pngget.obj
 0004:0000363b       _png_get_channels          005ccafb f   d3dx8d:pngget.obj
 0004:0000365a       _png_get_signature         005ccb1a f   d3dx8d:pngget.obj
 0004:00003679       _png_get_gAMA              005ccb39 f   d3dx8d:pngget.obj
 0004:000036ae       _png_get_sRGB              005ccb6e f   d3dx8d:pngget.obj
 0004:000036e6       _png_get_IHDR              005ccba6 f   d3dx8d:pngget.obj
 0004:000037eb       _png_get_PLTE              005cccab f   d3dx8d:pngget.obj
 0004:0000382c       _png_get_tRNS              005cccec f   d3dx8d:pngget.obj
 0004:00003968       _png_set_error_fn          005cce28 f   d3dx8d:pngerror.obj
 0004:00003988       _png_get_error_ptr         005cce48 f   d3dx8d:pngerror.obj
 0004:00003995       _png_error                 005cce55 f   d3dx8d:pngerror.obj
 0004:000039bb       _png_warning               005cce7b f   d3dx8d:pngerror.obj
 0004:000039d7       _png_chunk_error           005cce97 f   d3dx8d:pngerror.obj
 0004:00003a02       _png_chunk_warning         005ccec2 f   d3dx8d:pngerror.obj
 0004:00003a30       _png_create_struct         005ccef0 f   d3dx8d:pngmem.obj
 0004:00003a8a       _png_destroy_struct        005ccf4a f   d3dx8d:pngmem.obj
 0004:00003aa8       _png_malloc                005ccf68 f   d3dx8d:pngmem.obj
 0004:00003af1       _png_free                  005ccfb1 f   d3dx8d:pngmem.obj
 0004:00003b16       _png_memcpy_check          005ccfd6 f   d3dx8d:pngmem.obj
 0004:00003b43       _png_memset_check          005cd003 f   d3dx8d:pngmem.obj
 0004:00003b81       _get_crc_table             005cd041 f   d3dx8d:crc32.obj
 0004:00003b87       _crc32                     005cd047 f   d3dx8d:crc32.obj
 0004:00003cb4       _inflateReset              005cd174 f   d3dx8d:inflate.obj
 0004:00003d07       _inflateEnd                005cd1c7 f   d3dx8d:inflate.obj
 0004:00003d58       _inflateInit2_             005cd218 f   d3dx8d:inflate.obj
 0004:00003e76       _inflateInit_              005cd336 f   d3dx8d:inflate.obj
 0004:00003e94       _inflate                   005cd354 f   d3dx8d:inflate.obj
 0004:000042e6       _inflateSetDictionary      005cd7a6 f   d3dx8d:inflate.obj
 0004:0000437d       _inflateSync               005cd83d f   d3dx8d:inflate.obj
 0004:00004456       _inflateSyncPoint          005cd916 f   d3dx8d:inflate.obj
 0004:00004485       _png_get_uint_32           005cd945 f   d3dx8d:pngrutil.obj
 0004:000044b4       _png_get_uint_16           005cd974 f   d3dx8d:pngrutil.obj
 0004:000044cf       _png_crc_read              005cd98f f   d3dx8d:pngrutil.obj
 0004:000044ef       _png_crc_error             005cd9af f   d3dx8d:pngrutil.obj
 0004:00004564       _png_check_chunk_name      005cda24 f   d3dx8d:pngrutil.obj
 0004:000045e1       _png_combine_row           005cdaa1 f   d3dx8d:pngrutil.obj
 0004:0000487c       _png_do_read_interlace     005cdd3c f   d3dx8d:pngrutil.obj
 0004:00004bf7       _png_read_filter_row       005ce0b7 f   d3dx8d:pngrutil.obj
 0004:00004dce       _png_read_start_row        005ce28e f   d3dx8d:pngrutil.obj
 0004:00004fd4       _png_crc_finish            005ce494 f   d3dx8d:pngrutil.obj
 0004:00005085       _png_handle_IHDR           005ce545 f   d3dx8d:pngrutil.obj
 0004:000052f8       _png_handle_PLTE           005ce7b8 f   d3dx8d:pngrutil.obj
 0004:0000546c       _png_handle_IEND           005ce92c f   d3dx8d:pngrutil.obj
 0004:000054c8       _png_handle_gAMA           005ce988 f   d3dx8d:pngrutil.obj
 0004:00005615       _png_handle_sRGB           005cead5 f   d3dx8d:pngrutil.obj
 0004:0000573f       _png_handle_tRNS           005cebff f   d3dx8d:pngrutil.obj
 0004:00005960       _png_handle_unknown        005cee20 f   d3dx8d:pngrutil.obj
 0004:000059bd       _png_read_finish_row       005cee7d f   d3dx8d:pngrutil.obj
 0004:00005c74       ?inflate_blocks_reset@D3DX@@YAXPAUinflate_blocks_state@1@PAUz_stream_s@1@PAK@Z 005cf134 f   d3dx8d:infblock.obj
 0004:00005cfb       ?inflate_blocks_new@D3DX@@YAPAUinflate_blocks_state@1@PAUz_stream_s@1@P6AKKPBEI@ZI@Z 005cf1bb f   d3dx8d:infblock.obj
 0004:00005dac       ?inflate_blocks@D3DX@@YAHPAUinflate_blocks_state@1@PAUz_stream_s@1@H@Z 005cf26c f   d3dx8d:infblock.obj
 0004:0000672d       ?inflate_blocks_free@D3DX@@YAHPAUinflate_blocks_state@1@PAUz_stream_s@1@@Z 005cfbed f   d3dx8d:infblock.obj
 0004:00006770       ?inflate_set_dictionary@D3DX@@YAXPAUinflate_blocks_state@1@PBEI@Z 005cfc30 f   d3dx8d:infblock.obj
 0004:000067ae       ?inflate_blocks_sync_point@D3DX@@YAHPAUinflate_blocks_state@1@@Z 005cfc6e f   d3dx8d:infblock.obj
 0004:000067c2       _adler32                   005cfc82 f   d3dx8d:adler32.obj
 0004:00006921       _zlibVersion               005cfde1 f   d3dx8d:zutil.obj
 0004:00006927       _zError                    005cfde7 f   d3dx8d:zutil.obj
 0004:00006940       ?zcalloc@D3DX@@YAPAXPAXII@Z 005cfe00 f   d3dx8d:zutil.obj
 0004:0000695c       ?zcfree@D3DX@@YAXPAX0@Z    005cfe1c f   d3dx8d:zutil.obj
 0004:00006972       _png_set_gAMA              005cfe32 f   d3dx8d:pngset.obj
 0004:00006995       _png_set_IHDR              005cfe55 f   d3dx8d:pngset.obj
 0004:00006a5e       _png_set_PLTE              005cff1e f   d3dx8d:pngset.obj
 0004:00006a8b       _png_set_sRGB              005cff4b f   d3dx8d:pngset.obj
 0004:00006aae       _png_set_sRGB_gAMA_and_cHRM 005cff6e f   d3dx8d:pngset.obj
 0004:00006af5       _png_set_tRNS              005cffb5 f   d3dx8d:pngset.obj
 0004:00006b4d       _png_permit_empty_plte     005d000d f   d3dx8d:pngset.obj
 0004:00006b67       ?inflate_codes_new@D3DX@@YAPAUinflate_codes_state@1@IIPAUinflate_huft_s@1@0PAUz_stream_s@1@@Z 005d0027 f   d3dx8d:infcodes.obj
 0004:00006ba8       ?inflate_codes@D3DX@@YAHPAUinflate_blocks_state@1@PAUz_stream_s@1@H@Z 005d0068 f   d3dx8d:infcodes.obj
 0004:00007265       ?inflate_codes_free@D3DX@@YAXPAUinflate_codes_state@1@PAUz_stream_s@1@@Z 005d0725 f   d3dx8d:infcodes.obj
 0004:000076f0       ?inflate_trees_bits@D3DX@@YAHPAI0PAPAUinflate_huft_s@1@PAU21@PAUz_stream_s@1@@Z 005d0bb0 f   d3dx8d:inftrees.obj
 0004:0000778e       ?inflate_trees_dynamic@D3DX@@YAHIIPAI00PAPAUinflate_huft_s@1@1PAU21@PAUz_stream_s@1@@Z 005d0c4e f   d3dx8d:inftrees.obj
 0004:000078d1       ?inflate_trees_fixed@D3DX@@YAHPAI0PAPAUinflate_huft_s@1@1PAUz_stream_s@1@@Z 005d0d91 f   d3dx8d:inftrees.obj
 0004:0000790b       ?inflate_flush@D3DX@@YAHPAUinflate_blocks_state@1@PAUz_stream_s@1@H@Z 005d0dcb f   d3dx8d:infutil.obj
 0004:00007a65       ?inflate_fast@D3DX@@YAHIIPAUinflate_huft_s@1@0PAUinflate_blocks_state@1@PAUz_stream_s@1@@Z 005d0f25 f   d3dx8d:inffast.obj
 0004:00008e1c       ??_C@_0DE@EGBLPLND@?6?5libpng?5version?51?40?45?5?9?5October@ 005d22dc     d3dx8d:png.obj
 0004:00008e5c       ??_C@_0CC@CMIPDMOP@Too?5many?5bytes?5for?5PNG?5signature@ 005d231c     d3dx8d:png.obj
 0004:00008e88       ??_C@_0MG@PPOOLDBG@?6?5libpng?5version?51?40?45?5?9?5October@ 005d2348     d3dx8d:png.obj
 0004:00008f78       ??_C@_0CK@BDBGBGO@Can?8t?5discard?5critical?5data?5on?5C@ 005d2438     d3dx8d:pngrtran.obj
 0004:00008fac       ??_C@_0CC@JEAKIKEF@png_do_dither?5returned?5rowbytes?$DN@ 005d246c     d3dx8d:pngrtran.obj
 0004:00008fd4       ??_C@_0BA@DBGPKIA@NULL?5row?5buffer?$AA@ 005d2494     d3dx8d:pngrtran.obj
 0004:00008fe8       ??_C@_0BL@GPADEDKN@Call?5to?5NULL?5read?5function?$AA@ 005d24a8     d3dx8d:pngrio.obj
 0004:00009008       ??_C@_0DC@EOBOCMJO@same?5structure?4?5?5Resetting?5write@ 005d24c8     d3dx8d:pngrio.obj
 0004:00009048       ??_C@_0EB@NJKELLKM@It?8s?5an?5error?5to?5set?5both?5read_d@ 005d2508     d3dx8d:pngrio.obj
 0004:0000912c       ??_C@_0BD@LBMCPKOE@zlib?5version?5error?$AA@ 005d25ec     d3dx8d:pngread.obj
 0004:00009144       ??_C@_0BC@MCPIPOGP@zlib?5memory?5error?$AA@ 005d2604     d3dx8d:pngread.obj
 0004:0000915c       ??_C@_0BD@CPDHIJBA@Unknown?5zlib?5error?$AA@ 005d261c     d3dx8d:pngread.obj
 0004:00009174       ??_C@_05DOIEBMOI@1?41?44?$AA@ 005d2634     d3dx8d:pngread.obj
 0004:0000917c       ??_C@_0DH@LDFDLODO@Incompatible?5libpng?5version?5in?5a@ 005d263c     d3dx8d:pngread.obj
 0004:000091c0       ??_C@_0N@JEPAMDDI@zlib?5version?$AA@ 005d2680     d3dx8d:pngread.obj
 0004:000091d0       ??_C@_0M@KPLPCJNA@zlib?5memory?$AA@ 005d2690     d3dx8d:pngread.obj
 0004:000091e0       ??_C@_0BJ@LAKDHAPN@Missing?5PLTE?5before?5IDAT?$AA@ 005d26a0     d3dx8d:pngread.obj
 0004:00009200       ??_C@_0BJ@FFGICIDJ@Missing?5IHDR?5before?5IDAT?$AA@ 005d26c0     d3dx8d:pngread.obj
 0004:00009220       ??_C@_0CH@NMANOLCN@PNG?5file?5corrupted?5by?5ASCII?5conv@ 005d26e0     d3dx8d:pngread.obj
 0004:00009250       ??_C@_0P@KIMIGLKH@Not?5a?5PNG?5file?$AA@ 005d2710     d3dx8d:pngread.obj
 0004:00009264       ??_C@_0BG@OKGHHCLP@Extra?5compressed?5data?$AA@ 005d2724     d3dx8d:pngread.obj
 0004:00009280       ??_C@_0BE@JMOGBNJB@Decompression?5error?$AA@ 005d2740     d3dx8d:pngread.obj
 0004:00009298       ??_C@_0BG@EIEOOJHA@Not?5enough?5image?5data?$AA@ 005d2758     d3dx8d:pngread.obj
 0004:000092b4       ??_C@_0CB@KCPNIGFM@Invalid?5attempt?5to?5read?5row?5data@ 005d2774     d3dx8d:pngread.obj
 0004:000092dc       ??_C@_0BG@JAHFDNP@Too?5many?5IDAT?8s?5found?$AA@ 005d279c     d3dx8d:pngread.obj
 0004:000092f8       ??_C@_0DC@MHGEAIEM@Width?5too?5large?5for?5libpng?5to?5pr@ 005d27b8     d3dx8d:pngget.obj
 0004:00009348       ??_C@_0O@BPALFKAJ@Out?5of?5Memory?$AA@ 005d2808     d3dx8d:pngmem.obj
 0004:00009824       ??_C@_0BA@MOKMMFOD@need?5dictionary?$AA@ 005d2ce4     d3dx8d:inflate.obj
 0004:00009838       ??_C@_0BF@MEIGEHBE@incorrect?5data?5check?$AA@ 005d2cf8     d3dx8d:inflate.obj
 0004:00009854       ??_C@_0BH@LIBMMIGA@incorrect?5header?5check?$AA@ 005d2d14     d3dx8d:inflate.obj
 0004:00009870       ??_C@_0BE@EMOGCLGO@invalid?5window?5size?$AA@ 005d2d30     d3dx8d:inflate.obj
 0004:00009888       ??_C@_0BL@IHKGDAEE@unknown?5compression?5method?$AA@ 005d2d48     d3dx8d:inflate.obj
 0004:00009938       ??_C@_0BD@GFBMLKLH@invalid?5chunk?5type?$AA@ 005d2df8     d3dx8d:pngrutil.obj
 0004:00009950       ??_C@_0CC@FECADCN@Ignoring?5bad?5adaptive?5filter?5typ@ 005d2e10     d3dx8d:pngrutil.obj
 0004:00009978       ??_C@_09BJGMGMHA@CRC?5error?$AA@ 005d2e38     d3dx8d:pngrutil.obj
 0004:00009984       ??_C@_0BO@KOOEGEDO@Unknown?5filter?5method?5in?5IHDR?$AA@ 005d2e44     d3dx8d:pngrutil.obj
 0004:000099a8       ??_C@_0CD@DDOOCEDP@Unknown?5compression?5method?5in?5IH@ 005d2e68     d3dx8d:pngrutil.obj
 0004:000099d4       ??_C@_0CB@EMHJMLOA@Unknown?5interlace?5method?5in?5IHDR@ 005d2e94     d3dx8d:pngrutil.obj
 0004:000099fc       ??_C@_0DB@FGMBGHOJ@Invalid?5color?5type?1bit?5depth?5com@ 005d2ebc     d3dx8d:pngrutil.obj
 0004:00009a38       ??_C@_0BL@KPIFPGMP@Invalid?5color?5type?5in?5IHDR?$AA@ 005d2ef8     d3dx8d:pngrutil.obj
 0004:00009a58       ??_C@_0BK@OAKOLNFJ@Invalid?5bit?5depth?5in?5IHDR?$AA@ 005d2f18     d3dx8d:pngrutil.obj
 0004:00009a78       ??_C@_0BL@PKEOJJBA@Invalid?5image?5size?5in?5IHDR?$AA@ 005d2f38     d3dx8d:pngrutil.obj
 0004:00009a98       ??_C@_0BD@CLODLFAN@Invalid?5IHDR?5chunk?$AA@ 005d2f58     d3dx8d:pngrutil.obj
 0004:00009ab0       ??_C@_0BC@KBAKFAAH@Out?5of?5place?5IHDR?$AA@ 005d2f70     d3dx8d:pngrutil.obj
 0004:00009ac8       ??_C@_0CH@GNNEJFAH@Truncating?5incorrect?5tRNS?5chunk?5@ 005d2f88     d3dx8d:pngrutil.obj
 0004:00009af8       ??_C@_0BG@HHEHMEJK@Invalid?5palette?5chunk?$AA@ 005d2fb8     d3dx8d:pngrutil.obj
 0004:00009b14       ??_C@_0BF@PMKDIIMG@Duplicate?5PLTE?5chunk?$AA@ 005d2fd4     d3dx8d:pngrutil.obj
 0004:00009b30       ??_C@_0BI@GEKPHPN@Invalid?5PLTE?5after?5IDAT?$AA@ 005d2ff0     d3dx8d:pngrutil.obj
 0004:00009b4c       ??_C@_0BJ@LEBILHKO@Missing?5IHDR?5before?5PLTE?$AA@ 005d300c     d3dx8d:pngrutil.obj
 0004:00009b6c       ??_C@_0BM@PFCLLCBO@Incorrect?5IEND?5chunk?5length?$AA@ 005d302c     d3dx8d:pngrutil.obj
 0004:00009b90       ??_C@_0BB@BLPFHNNN@No?5image?5in?5file?$AA@ 005d3050     d3dx8d:pngrutil.obj
 0004:00009ba4       ??_C@_0DI@KINMKNNO@Ignoring?5incorrect?5gAMA?5value?5wh@ 005d3064     d3dx8d:pngrutil.obj
 0004:00009be8       ??_C@_0BF@IMCFKHDJ@Duplicate?5gAMA?5chunk?$AA@ 005d30a8     d3dx8d:pngrutil.obj
 0004:00009c04       ??_C@_0BI@JEEHFLME@Out?5of?5place?5gAMA?5chunk?$AA@ 005d30c4     d3dx8d:pngrutil.obj
 0004:00009c20       ??_C@_0BI@POPIJBNN@Invalid?5gAMA?5after?5IDAT?$AA@ 005d30e0     d3dx8d:pngrutil.obj
 0004:00009c3c       ??_C@_0BM@NIAHDFBB@Incorrect?5gAMA?5chunk?5length?$AA@ 005d30fc     d3dx8d:pngrutil.obj
 0004:00009c60       ??_C@_0BJ@CCOIFGBO@Missing?5IHDR?5before?5gAMA?$AA@ 005d3120     d3dx8d:pngrutil.obj
 0004:00009c80       ??_C@_0BE@CEGOJHBA@Unknown?5sRGB?5intent?$AA@ 005d3140     d3dx8d:pngrutil.obj
 0004:00009c98       ??_C@_0BF@EFDCKHOG@Duplicate?5sRGB?5chunk?$AA@ 005d3158     d3dx8d:pngrutil.obj
 0004:00009cb4       ??_C@_0BI@FNFAFLBL@Out?5of?5place?5sRGB?5chunk?$AA@ 005d3174     d3dx8d:pngrutil.obj
 0004:00009cd0       ??_C@_0BI@PGAMKAKH@Invalid?5sRGB?5after?5IDAT?$AA@ 005d3190     d3dx8d:pngrutil.obj
 0004:00009cec       ??_C@_0BM@FMAJKMKD@Incorrect?5sRGB?5chunk?5length?$AA@ 005d31ac     d3dx8d:pngrutil.obj
 0004:00009d10       ??_C@_0BJ@NDJOEJDI@Missing?5IHDR?5before?5sRGB?$AA@ 005d31d0     d3dx8d:pngrutil.obj
 0004:00009d30       ??_C@_0CK@JMGMOHJA@tRNS?5chunk?5not?5allowed?5with?5alph@ 005d31f0     d3dx8d:pngrutil.obj
 0004:00009d64       ??_C@_0BM@JNMFOMLO@Incorrect?5tRNS?5chunk?5length?$AA@ 005d3224     d3dx8d:pngrutil.obj
 0004:00009d88       ??_C@_0BF@HALLDFIL@Duplicate?5tRNS?5chunk?$AA@ 005d3248     d3dx8d:pngrutil.obj
 0004:00009da4       ??_C@_0BI@MMDCNIMN@Invalid?5tRNS?5after?5IDAT?$AA@ 005d3264     d3dx8d:pngrutil.obj
 0004:00009dc0       ??_C@_0BH@JJNMONHM@Zero?5length?5tRNS?5chunk?$AA@ 005d3280     d3dx8d:pngrutil.obj
 0004:00009ddc       ??_C@_0BJ@NIHNNFHD@Missing?5PLTE?5before?5tRNS?$AA@ 005d329c     d3dx8d:pngrutil.obj
 0004:00009dfc       ??_C@_0BJ@DNLGINLH@Missing?5IHDR?5before?5tRNS?$AA@ 005d32bc     d3dx8d:pngrutil.obj
 0004:00009e1c       ??_C@_0BH@OMJPKJPP@unknown?5critical?5chunk?$AA@ 005d32dc     d3dx8d:pngrutil.obj
 0004:00009e38       ??_C@_0BH@KJLLHDND@Extra?5compression?5data?$AA@ 005d32f8     d3dx8d:pngrutil.obj
 0004:00009e54       ??_C@_0BE@JLEKBIKH@Decompression?5Error?$AA@ 005d3314     d3dx8d:pngrutil.obj
 0004:00009ecc       ??_C@_0BK@BMMPFBBH@invalid?5bit?5length?5repeat?$AA@ 005d338c     d3dx8d:infblock.obj
 0004:00009eec       ??_C@_0CE@GMIGFPBB@too?5many?5length?5or?5distance?5symb@ 005d33ac     d3dx8d:infblock.obj
 0004:00009f18       ??_C@_0BN@LGAADGOK@invalid?5stored?5block?5lengths?$AA@ 005d33d8     d3dx8d:infblock.obj
 0004:00009f3c       ??_C@_0BD@PJCBIDD@invalid?5block?5type?$AA@ 005d33fc     d3dx8d:infblock.obj
 0004:00009f54       ??_C@_0BF@CJFPCCEG@incompatible?5version?$AA@ 005d3414     d3dx8d:zutil.obj
 0004:00009f70       ??_C@_0N@DFPGLBGC@buffer?5error?$AA@ 005d3430     d3dx8d:zutil.obj
 0004:00009f80       ??_C@_0BE@OGGJBMCE@insufficient?5memory?$AA@ 005d3440     d3dx8d:zutil.obj
 0004:00009f98       ??_C@_0L@HAHMBNLP@data?5error?$AA@ 005d3458     d3dx8d:zutil.obj
 0004:00009fa8       ??_C@_0N@MKKNPMJD@stream?5error?$AA@ 005d3468     d3dx8d:zutil.obj
 0004:00009fb8       ??_C@_0L@KIJFAKBJ@file?5error?$AA@ 005d3478     d3dx8d:zutil.obj
 0004:00009fc8       ??_C@_0L@FNAOCBOG@stream?5end?$AA@ 005d3488     d3dx8d:zutil.obj
 0004:00009fd8       ??_C@_0DP@GHHOJINM@Width?5too?5large?5to?5process?5image@ 005d3498     d3dx8d:pngset.obj
 0004:0000a024       ??_C@_0BG@LBKINIKP@invalid?5distance?5code?$AA@ 005d34e4     d3dx8d:infcodes.obj
 0004:0000a040       ??_C@_0BM@FFFLPBBC@invalid?5literal?1length?5code?$AA@ 005d3500     d3dx8d:infcodes.obj
 0004:0000a2bc       ??_C@_0CE@LOHAHEGK@incomplete?5dynamic?5bit?5lengths?5t@ 005d377c     d3dx8d:inftrees.obj
 0004:0000a2e8       ??_C@_0CI@CGMOPDPD@oversubscribed?5dynamic?5bit?5lengt@ 005d37a8     d3dx8d:inftrees.obj
 0004:0000a318       ??_C@_0BP@NEEEJJNA@incomplete?5literal?1length?5tree?$AA@ 005d37d8     d3dx8d:inftrees.obj
 0004:0000a340       ??_C@_0CD@GJIDGCKE@oversubscribed?5literal?1length?5tr@ 005d3800     d3dx8d:inftrees.obj
 0004:0000a36c       ??_C@_0CB@KPKKKLFO@empty?5distance?5tree?5with?5lengths@ 005d382c     d3dx8d:inftrees.obj
 0004:0000a394       ??_C@_0BJ@CBCPDPJF@incomplete?5distance?5tree?$AA@ 005d3854     d3dx8d:inftrees.obj
 0004:0000a3b4       ??_C@_0BN@KBLCDIAI@oversubscribed?5distance?5tree?$AA@ 005d3874     d3dx8d:inftrees.obj
 0005:00000012       _log10f@4                  005d49f2 f i dsoundd:dsapi.obj
 0005:00000026       ??0D3DXVECTOR3@@QAE@XZ     005d4a06 f i dsoundd:dsapi.obj
 0005:00000029       ?__AssertValidEntryList@@YGXPAU_LIST_ENTRY@@W4ASSERT_VALID_ENTRY_LIST@@PBDI@Z 005d4a09 f i dsoundd:dsapi.obj
 0005:000000b8       ?InsertTailList@@YGXPAU_LIST_ENTRY@@0@Z 005d4a98 f i dsoundd:dsapi.obj
 0005:00000112       ?RemoveEntryList@@YGPAU_LIST_ENTRY@@PAU1@@Z 005d4af2 f i dsoundd:dsapi.obj
 0005:000001b0       ??0CIrql@DirectSound@@QAE@XZ 005d4b90 f i dsoundd:dsapi.obj
 0005:000001b7       ?Raise@CIrql@DirectSound@@QAEXXZ 005d4b97 f i dsoundd:dsapi.obj
 0005:000001e1       ?Lower@CIrql@DirectSound@@QAEXXZ 005d4bc1 f i dsoundd:dsapi.obj
 0005:000001fd       ??0CAutoIrql@DirectSound@@QAE@XZ 005d4bdd f i dsoundd:dsapi.obj
 0005:00000211       ??1CAutoIrql@DirectSound@@QAE@XZ 005d4bf1 f i dsoundd:dsapi.obj
 0005:00000216       ?Save@CFpState@DirectSound@@QAEXXZ 005d4bf6 f i dsoundd:dsapi.obj
 0005:00000244       ?Restore@CFpState@DirectSound@@QAEXXZ 005d4c24 f i dsoundd:dsapi.obj
 0005:00000269       ??0CAutoFpState@DirectSound@@QAE@XZ 005d4c49 f i dsoundd:dsapi.obj
 0005:00000278       ??1CAutoFpState@DirectSound@@QAE@XZ 005d4c58 f i dsoundd:dsapi.obj
 0005:0000027d       ??0CRefCount@DirectSound@@QAE@K@Z 005d4c5d f i dsoundd:dsapi.obj
 0005:00000297       ??1CRefCount@DirectSound@@UAE@XZ 005d4c77 f i dsoundd:dsapi.obj
 0005:000002c4       ?AddRef@CRefCount@DirectSound@@UAGKXZ 005d4ca4 f i dsoundd:dsapi.obj
 0005:000002fd       ?AbsoluteRelease@CRefCount@DirectSound@@UAGXXZ 005d4cdd f i dsoundd:dsapi.obj
 0005:00000316       ?Release@CRefCount@DirectSound@@UAGKXZ 005d4cf6 f i dsoundd:dsapi.obj
 0005:00000374       ?AmplitudeToVolume@Math@DirectSound@@YGJM@Z 005d4d54 f i dsoundd:dsapi.obj
 0005:00000408       ?CalcNormPos@CHRTFSource@DirectSound@@SGXKABU_D3DVECTOR@@0PAU3@PAM@Z 005d4de8 f i dsoundd:dsapi.obj
 0005:00000414       ?CalcPolarCoords@CHRTFSource@DirectSound@@SGXKABU_D3DVECTOR@@000MPAM1@Z 005d4df4 f i dsoundd:dsapi.obj
 0005:00000447       ?CalcConeAngle@CHRTFSource@DirectSound@@SGXABU_D3DVECTOR@@0PAM@Z 005d4e27 f i dsoundd:dsapi.obj
 0005:00000453       ?CalcRelativeVelocity@CHRTFSource@DirectSound@@SGXKABU_D3DVECTOR@@00PAM@Z 005d4e33 f i dsoundd:dsapi.obj
 0005:0000045f       ?GetDistanceVolume@CHRTFSource@DirectSound@@SGXMMMPBMKMHPAJ@Z 005d4e3f f i dsoundd:dsapi.obj
 0005:000004a3       ?GetConeVolume@CHRTFSource@DirectSound@@SGXKKJMPAJ@Z 005d4e83 f i dsoundd:dsapi.obj
 0005:000004cb       ?GetFrontRearVolume@CHRTFSource@DirectSound@@SGXMMMMHPAJ0@Z 005d4eab f i dsoundd:dsapi.obj
 0005:0000050c       ?GetCenterVolume@CHRTFSource@DirectSound@@SGXMMPAJ0@Z 005d4eec f i dsoundd:dsapi.obj
 0005:00000536       ?GetDopplerPitch@CHRTFSource@DirectSound@@SGXMMMPAJ@Z 005d4f16 f i dsoundd:dsapi.obj
 0005:00000566       ?IsValidAlgorithm@CHRTFSource@DirectSound@@SGHXZ 005d4f46 f i dsoundd:dsapi.obj
 0005:00000581       ?DirectSoundEnterCriticalSection@@YGHXZ 005d4f61 f i dsoundd:dsapi.obj
 0005:000005a6       ?DirectSoundLeaveCriticalSection@@YGXXZ 005d4f86 f i dsoundd:dsapi.obj
 0005:000005b5       ??0CAutoLock@DirectSound@@QAE@XZ 005d4f95 f i dsoundd:dsapi.obj
 0005:000005ca       ??1CAutoLock@DirectSound@@QAE@XZ 005d4faa f i dsoundd:dsapi.obj
 0005:000005df       ?DownloadEffectsImage@CMcpxAPU@DirectSound@@QAEJPBXKPAPAU_DSEFFECTIMAGEDESC@@@Z 005d4fbf f i dsoundd:dsapi.obj
 0005:00000643       ?SetEffectData@CMcpxAPU@DirectSound@@QAEJKKPBXKK@Z 005d5023 f i dsoundd:dsapi.obj
 0005:000006bc       ?GetEffectData@CMcpxAPU@DirectSound@@QAEJKKPAXK@Z 005d509c f i dsoundd:dsapi.obj
 0005:00000731       ?CommitEffectData@CMcpxAPU@DirectSound@@QAEJXZ 005d5111 f i dsoundd:dsapi.obj
 0005:00000797       ?DoWork@CMcpxAPU@DirectSound@@QAEXXZ 005d5177 f i dsoundd:dsapi.obj
 0005:0000079c       ?GetLowWatermark@CMcpxStream@DirectSound@@QAEKXZ 005d517c f i dsoundd:dsapi.obj
 0005:000007ea       ?Flush@CMcpxStream@DirectSound@@QAEJXZ 005d51ca f i dsoundd:dsapi.obj
 0005:000007f6       ?Initialize@CWaveFileMediaObject@DirectSound@@QAGJPBD@Z 005d51d6 f i dsoundd:dsapi.obj
 0005:00000812       ?Initialize@CWaveFileMediaObject@DirectSound@@QAGJPAX@Z 005d51f2 f i dsoundd:dsapi.obj
 0005:0000082e       ?Initialize@CFileMediaObject@DirectSound@@QAGJPBDKKKK@Z 005d520e f i dsoundd:dsapi.obj
 0005:00000857       ?Initialize@CFileMediaObject@DirectSound@@QAGJPAX@Z 005d5237 f i dsoundd:dsapi.obj
 0005:00000873       _IDirectSound_SetCooperativeLevel@12 005d5253 f   dsoundd:dsapi.obj
 0005:00000878       _IDirectSound_Compact@4    005d5258 f   dsoundd:dsapi.obj
 0005:0000087d       _IDirectSound_AddRef@4     005d525d f   dsoundd:dsapi.obj
 0005:000008a2       _IDirectSound_Release@4    005d5282 f   dsoundd:dsapi.obj
 0005:000008c7       _IDirectSoundBuffer_Unlock@20 005d52a7 f   dsoundd:dsapi.obj
 0005:000008cc       _IDirectSoundBuffer_Restore@4 005d52ac f   dsoundd:dsapi.obj
 0005:000008d1       _IDirectSoundBuffer_AddRef@4 005d52b1 f   dsoundd:dsapi.obj
 0005:000008f6       _IDirectSoundBuffer_Release@4 005d52d6 f   dsoundd:dsapi.obj
 0005:0000091b       _IDirectSoundStream_QueryInterface@12 005d52fb f   dsoundd:dsapi.obj
 0005:00000981       _IDirectSoundStream_QueryInterfaceC@12 005d5361 f   dsoundd:dsapi.obj
 0005:000009e7       _DirectSoundGetSampleTime@0 005d53c7 f   dsoundd:dsapi.obj
 0005:000009fb       _DirectSoundUseFullHRTF@0  005d53db f   dsoundd:dsapi.obj
 0005:00000a21       _DirectSoundUseLightHRTF@0 005d5401 f   dsoundd:dsapi.obj
 0005:00000a47       _DirectSoundUseFullHRTF4Channel@0 005d5427 f   dsoundd:dsapi.obj
 0005:00000a6d       _DirectSoundUseLightHRTF4Channel@0 005d544d f   dsoundd:dsapi.obj
 0005:00000a93       _DirectSoundOverrideSpeakerConfig@4 005d5473 f   dsoundd:dsapi.obj
 0005:00000ba3       _XAudioCalculatePitch@4    005d5583 f   dsoundd:dsapi.obj
 0005:00000c46       _XAudioCreatePcmFormat@16  005d5626 f   dsoundd:dsapi.obj
 0005:00000c51       _XAudioCreateAdpcmFormat@12 005d5631 f   dsoundd:dsapi.obj
 0005:00000e32       _DirectSoundDumpMemoryUsage@4 005d5812 f   dsoundd:dsapi.obj
 0005:00000e64       ??0_DS3DCALCLISTENER_STAGE0@@QAE@XZ 005d5844 f i dsoundd:dsapi.obj
 0005:00000e67       ??1CDirectSoundSettings@DirectSound@@UAE@XZ 005d5847 f   dsoundd:dsapi.obj
 0005:00000e74       ?SetEffectImageLocations@CDirectSoundSettings@DirectSound@@QAEXPBU_DSEFFECTIMAGELOC@@@Z 005d5854 f   dsoundd:dsapi.obj
 0005:00000ea2       ?GetTime@CDirectSound@DirectSound@@QAGJPA_J@Z 005d5882 f   dsoundd:dsapi.obj
 0005:00000ef2       ?GetOutputLevels@CDirectSound@DirectSound@@QAGJPAU_DSOUTPUTLEVELS@@H@Z 005d58d2 f   dsoundd:dsapi.obj
 0005:00000f8e       ??0CDirectSoundVoiceSettings@DirectSound@@QAE@XZ 005d596e f   dsoundd:dsapi.obj
 0005:00000fa2       ?SetVolume@CDirectSoundVoiceSettings@DirectSound@@QAEXJ@Z 005d5982 f   dsoundd:dsapi.obj
 0005:00000fdc       ?SetMixBinVolumes@CDirectSoundVoiceSettings@DirectSound@@QAEXPBU_DSMIXBINS@@@Z 005d59bc f   dsoundd:dsapi.obj
 0005:000010d3       ?SetHeadroom@CDirectSoundVoiceSettings@DirectSound@@QAEXK@Z 005d5ab3 f   dsoundd:dsapi.obj
 0005:00001117       ?IncludeSubMixBin@CDirectSoundVoiceSettings@DirectSound@@IAEXK@Z 005d5af7 f   dsoundd:dsapi.obj
 0005:00001208       ??1CDirectSoundVoice@DirectSound@@UAE@XZ 005d5be8 f   dsoundd:dsapi.obj
 0005:0000126c       ?SetPitch@CDirectSoundVoice@DirectSound@@QAGJJ@Z 005d5c4c f   dsoundd:dsapi.obj
 0005:000012d6       ?SetVolume@CDirectSoundVoice@DirectSound@@QAGJJ@Z 005d5cb6 f   dsoundd:dsapi.obj
 0005:00001341       ?SetLFO@CDirectSoundVoice@DirectSound@@QAGJPBU_DSLFODESC@@@Z 005d5d21 f   dsoundd:dsapi.obj
 0005:000014ea       ?SetEG@CDirectSoundVoice@DirectSound@@QAGJPBU_DSENVELOPEDESC@@@Z 005d5eca f   dsoundd:dsapi.obj
 0005:0000177b       ?SetFilter@CDirectSoundVoice@DirectSound@@QAGJPBU_DSFILTERDESC@@@Z 005d615b f   dsoundd:dsapi.obj
 0005:00001918       ?SetHeadroom@CDirectSoundVoice@DirectSound@@QAGJK@Z 005d62f8 f   dsoundd:dsapi.obj
 0005:0000197c       ?SetMixBinVolumes@CDirectSoundVoice@DirectSound@@QAGJPBU_DSMIXBINS@@@Z 005d635c f   dsoundd:dsapi.obj
 0005:00001b04       ?CommitDeferredSettings@CDirectSoundVoice@DirectSound@@QAGJXZ 005d64e4 f   dsoundd:dsapi.obj
 0005:00001b5c       ?GetVoiceProperties@CDirectSoundVoice@DirectSound@@QAGJPAU_DSVOICEPROPS@@@Z 005d653c f   dsoundd:dsapi.obj
 0005:00001baf       ?Set3DVoiceData@CDirectSoundVoice@DirectSound@@QAGJPBU_DS3DCALCVOICEDATA@@@Z 005d658f f   dsoundd:dsapi.obj
 0005:00001e5c       ?Use3DVoiceData@CDirectSoundVoice@DirectSound@@QAGJH@Z 005d683c f   dsoundd:dsapi.obj
 0005:00001e82       ?SetLoopRegion@CDirectSoundBufferSettings@DirectSound@@QAEXKK@Z 005d6862 f   dsoundd:dsapi.obj
 0005:00001f04       ?SetNotificationPositions@CDirectSoundBufferSettings@DirectSound@@QAEJKPBU_DSBPOSITIONNOTIFY@@@Z 005d68e4 f   dsoundd:dsapi.obj
 0005:00002021       ??0XMediaObject@@QAE@XZ    005d6a01 f i dsoundd:dsapi.obj
 0005:00002024       ??0_DS3DCALCBUFFER_STAGE0@@QAE@XZ 005d6a04 f i dsoundd:dsapi.obj
 0005:00002027       ??0_DS3DCALCBUFFER_STAGE1@@QAE@XZ 005d6a07 f i dsoundd:dsapi.obj
 0005:0000202a       ?GetVoiceData@CDirectSound3DCalculator@DirectSound@@SGXPBU_DS3DCALCLISTENER@@PBU_DS3DCALCBUFFER@@PBU_DS3DCALCI3DL2LISTENER@@PBU_DS3DCALCI3DL2BUFFER@@PAU_DS3DCALCVOICEDATA@@@Z 005d6a0a f   dsoundd:dsapi.obj
 0005:00002480       ?GetPanData@CDirectSound3DCalculator@DirectSound@@SGXMMKPAU_DS3DCALCVOICEDATA@@@Z 005d6e60 f   dsoundd:dsapi.obj
 0005:000025b9       ?GetMixBinVolumes@CDirectSound3DCalculator@DirectSound@@SGXPBU_DS3DCALCVOICEDATA@@PAU_DSMIXBINVOLUMEPAIR@@K@Z 005d6f99 f   dsoundd:dsapi.obj
 0005:00002792       ?CalculateI3DL2Reverb@CDirectSound3DCalculator@DirectSound@@SGXPBU_DS3DCALCI3DL2LISTENER@@PAU_DSFX_I3DL2REVERB_PARAMS@@@Z 005d7172 f   dsoundd:dsapi.obj
 0005:000027d6       ??0?$CValidObject@$0EEFDEOEE@@DirectSound@@QAE@XZ 005d71b6 f i dsoundd:dsapi.obj
 0005:000027ea       ??1?$CValidObject@$0EEFDEOEE@@DirectSound@@UAE@XZ 005d71ca f i dsoundd:dsapi.obj
 0005:000027f1       ?__AssertValidObject@?$CValidObject@$0EEFDEOEE@@DirectSound@@QAEXPBDK0@Z 005d71d1 f i dsoundd:dsapi.obj
 0005:00002870       ??0?$CValidObject@$0EEFDECCA@@DirectSound@@QAE@XZ 005d7250 f i dsoundd:dsapi.obj
 0005:00002884       ??1?$CValidObject@$0EEFDECCA@@DirectSound@@UAE@XZ 005d7264 f i dsoundd:dsapi.obj
 0005:0000288b       ?__AssertValidObject@?$CValidObject@$0EEFDECCA@@DirectSound@@QAEXPBDK0@Z 005d726b f i dsoundd:dsapi.obj
 0005:0000290a       ??0?$CValidObject@$0EEFDFDCA@@DirectSound@@QAE@XZ 005d72ea f i dsoundd:dsapi.obj
 0005:0000291e       ??1?$CValidObject@$0EEFDFDCA@@DirectSound@@UAE@XZ 005d72fe f i dsoundd:dsapi.obj
 0005:00002925       ?__AssertValidObject@?$CValidObject@$0EEFDFDCA@@DirectSound@@QAEXPBDK0@Z 005d7305 f i dsoundd:dsapi.obj
 0005:000029a4       ??$__AddRef@VCDirectSound@DirectSound@@@DirectSound@@YGPAVCDirectSound@0@PAV10@@Z 005d7384 f i dsoundd:dsapi.obj
 0005:000029c5       ??$__AddRef@VCWaveFileMediaObject@DirectSound@@@DirectSound@@YGPAVCWaveFileMediaObject@0@PAV10@@Z 005d73a5 f i dsoundd:dsapi.obj
 0005:000029e1       ??$__AddRef@VCFileMediaObject@DirectSound@@@DirectSound@@YGPAVCFileMediaObject@0@PAV10@@Z 005d73c1 f i dsoundd:dsapi.obj
 0005:000029fd       ??$__AddRef@VCAc97MediaObject@DirectSound@@@DirectSound@@YGPAVCAc97MediaObject@0@PAV10@@Z 005d73dd f i dsoundd:dsapi.obj
 0005:00002a19       ??$__AddRef@VCDirectSoundBuffer@DirectSound@@@DirectSound@@YGPAVCDirectSoundBuffer@0@PAV10@@Z 005d73f9 f i dsoundd:dsapi.obj
 0005:00002a3a       ??$__AddRef@VCMcpxVoiceClient@DirectSound@@@DirectSound@@YGPAVCMcpxVoiceClient@0@PAV10@@Z 005d741a f i dsoundd:dsapi.obj
 0005:00002a58       ??$__AddRef@VCDirectSoundVoiceSettings@DirectSound@@@DirectSound@@YGPAVCDirectSoundVoiceSettings@0@PAV10@@Z 005d7438 f i dsoundd:dsapi.obj
 0005:00002a76       ??_E?$CValidObject@$0EEFDEOEE@@DirectSound@@UAEPAXI@Z 005d7456 f i dsoundd:dsapi.obj
 0005:00002a76       ??_G?$CValidObject@$0EEFDEOEE@@DirectSound@@UAEPAXI@Z 005d7456 f i dsoundd:dsapi.obj
 0005:00002a9c       ??_G?$CValidObject@$0EEFDECCA@@DirectSound@@UAEPAXI@Z 005d747c f i dsoundd:dsapi.obj
 0005:00002a9c       ??_E?$CValidObject@$0EEFDECCA@@DirectSound@@UAEPAXI@Z 005d747c f i dsoundd:dsapi.obj
 0005:00002ac2       ??_G?$CValidObject@$0EEFDFDCA@@DirectSound@@UAEPAXI@Z 005d74a2 f i dsoundd:dsapi.obj
 0005:00002ac2       ??_E?$CValidObject@$0EEFDFDCA@@DirectSound@@UAEPAXI@Z 005d74a2 f i dsoundd:dsapi.obj
 0005:00002ae8       ?Release@IDirectSoundBuffer@@QAGKXZ 005d74c8 f i dsoundd:dsapi.obj
 0005:00002af3       ??_GCRefCount@DirectSound@@UAEPAXI@Z 005d74d3 f i dsoundd:dsapi.obj
 0005:00002af3       ??_ECRefCount@DirectSound@@UAEPAXI@Z 005d74d3 f i dsoundd:dsapi.obj
 0005:00002b18       ?SetVolume@CDirectSoundBuffer@DirectSound@@QAGJJ@Z 005d74f8 f i dsoundd:dsapi.obj
 0005:00002bce       ?SetPitch@CDirectSoundBuffer@DirectSound@@QAGJJ@Z 005d75ae f i dsoundd:dsapi.obj
 0005:00002c84       ?SetLFO@CDirectSoundBuffer@DirectSound@@QAGJPBU_DSLFODESC@@@Z 005d7664 f i dsoundd:dsapi.obj
 0005:00002d3a       ?SetEG@CDirectSoundBuffer@DirectSound@@QAGJPBU_DSENVELOPEDESC@@@Z 005d771a f i dsoundd:dsapi.obj
 0005:00002df0       ?SetFilter@CDirectSoundBuffer@DirectSound@@QAGJPBU_DSFILTERDESC@@@Z 005d77d0 f i dsoundd:dsapi.obj
 0005:00002ea6       ?SetHeadroom@CDirectSoundBuffer@DirectSound@@QAGJK@Z 005d7886 f i dsoundd:dsapi.obj
 0005:00002f5c       ?SetMixBinVolumes@CDirectSoundBuffer@DirectSound@@QAGJPBU_DSMIXBINS@@@Z 005d793c f i dsoundd:dsapi.obj
 0005:00003012       ?GetVoiceProperties@CDirectSoundBuffer@DirectSound@@QAGJPAU_DSVOICEPROPS@@@Z 005d79f2 f i dsoundd:dsapi.obj
 0005:000030c8       ?Set3DVoiceData@CDirectSoundBuffer@DirectSound@@QAGJPBU_DS3DCALCVOICEDATA@@@Z 005d7aa8 f i dsoundd:dsapi.obj
 0005:0000317e       ?Use3DVoiceData@CDirectSoundBuffer@DirectSound@@QAGJH@Z 005d7b5e f i dsoundd:dsapi.obj
 0005:00003234       ?SetPitch@CDirectSoundStream@DirectSound@@QAGJJ@Z 005d7c14 f i dsoundd:dsapi.obj
 0005:000032eb       ?SetVolume@CDirectSoundStream@DirectSound@@QAGJJ@Z 005d7ccb f i dsoundd:dsapi.obj
 0005:000033a2       ?SetLFO@CDirectSoundStream@DirectSound@@QAGJPBU_DSLFODESC@@@Z 005d7d82 f i dsoundd:dsapi.obj
 0005:00003459       ?SetEG@CDirectSoundStream@DirectSound@@QAGJPBU_DSENVELOPEDESC@@@Z 005d7e39 f i dsoundd:dsapi.obj
 0005:00003510       ?SetFilter@CDirectSoundStream@DirectSound@@QAGJPBU_DSFILTERDESC@@@Z 005d7ef0 f i dsoundd:dsapi.obj
 0005:000035c7       ?SetHeadroom@CDirectSoundStream@DirectSound@@QAGJK@Z 005d7fa7 f i dsoundd:dsapi.obj
 0005:0000367e       ?SetMixBinVolumes@CDirectSoundStream@DirectSound@@QAGJPBU_DSMIXBINS@@@Z 005d805e f i dsoundd:dsapi.obj
 0005:00003735       ?GetVoiceProperties@CDirectSoundStream@DirectSound@@QAGJPAU_DSVOICEPROPS@@@Z 005d8115 f i dsoundd:dsapi.obj
 0005:000037ec       ?Set3DVoiceData@CDirectSoundStream@DirectSound@@QAGJPBU_DS3DCALCVOICEDATA@@@Z 005d81cc f i dsoundd:dsapi.obj
 0005:000038a3       ?Use3DVoiceData@CDirectSoundStream@DirectSound@@QAGJH@Z 005d8283 f i dsoundd:dsapi.obj
 0005:0000395a       _IDirectSound_QueryInterfaceC@12 005d833a f   dsoundd:dsapi.obj
 0005:000039ba       _IDirectSound_QueryInterface@12 005d839a f   dsoundd:dsapi.obj
 0005:00003a1a       _IDirectSound_GetTime@8    005d83fa f   dsoundd:dsapi.obj
 0005:00003a3f       _IDirectSound_GetOutputLevels@12 005d841f f   dsoundd:dsapi.obj
 0005:00003a68       _IDirectSoundBuffer_QueryInterface@12 005d8448 f   dsoundd:dsapi.obj
 0005:00003acf       _IDirectSoundBuffer_QueryInterfaceC@12 005d84af f   dsoundd:dsapi.obj
 0005:00003b36       _IDirectSoundBuffer_SetVolume@8 005d8516 f   dsoundd:dsapi.obj
 0005:00003b5b       _IDirectSoundBuffer_SetPitch@8 005d853b f   dsoundd:dsapi.obj
 0005:00003b80       _IDirectSoundBuffer_SetLFO@8 005d8560 f   dsoundd:dsapi.obj
 0005:00003ba5       _IDirectSoundBuffer_SetEG@8 005d8585 f   dsoundd:dsapi.obj
 0005:00003bca       _IDirectSoundBuffer_SetFilter@8 005d85aa f   dsoundd:dsapi.obj
 0005:00003bef       _IDirectSoundBuffer_SetHeadroom@8 005d85cf f   dsoundd:dsapi.obj
 0005:00003c14       _IDirectSoundBuffer_SetMixBinVolumes@8 005d85f4 f   dsoundd:dsapi.obj
 0005:00003c39       _IDirectSoundBuffer_GetVoiceProperties@8 005d8619 f   dsoundd:dsapi.obj
 0005:00003c5e       _IDirectSoundBuffer_Set3DVoiceData@8 005d863e f   dsoundd:dsapi.obj
 0005:00003c83       _IDirectSoundBuffer_Use3DVoiceData@8 005d8663 f   dsoundd:dsapi.obj
 0005:00003ca8       _IDirectSoundStream_SetVolume@8 005d8688 f   dsoundd:dsapi.obj
 0005:00003cb3       _IDirectSoundStream_SetPitch@8 005d8693 f   dsoundd:dsapi.obj
 0005:00003cbe       _IDirectSoundStream_SetLFO@8 005d869e f   dsoundd:dsapi.obj
 0005:00003cc9       _IDirectSoundStream_SetEG@8 005d86a9 f   dsoundd:dsapi.obj
 0005:00003cd4       _IDirectSoundStream_SetFilter@8 005d86b4 f   dsoundd:dsapi.obj
 0005:00003cdf       _IDirectSoundStream_SetHeadroom@8 005d86bf f   dsoundd:dsapi.obj
 0005:00003cea       _IDirectSoundStream_SetMixBinVolumes@8 005d86ca f   dsoundd:dsapi.obj
 0005:00003cf5       _IDirectSoundStream_GetVoiceProperties@8 005d86d5 f   dsoundd:dsapi.obj
 0005:00003d00       _IDirectSoundStream_Set3DVoiceData@8 005d86e0 f   dsoundd:dsapi.obj
 0005:00003d0b       _IDirectSoundStream_Use3DVoiceData@8 005d86eb f   dsoundd:dsapi.obj
 0005:00003d16       _IDirectSound3DCalculator_GetVoiceData@20 005d86f6 f   dsoundd:dsapi.obj
 0005:00003d21       _IDirectSound3DCalculator_GetPanData@16 005d8701 f   dsoundd:dsapi.obj
 0005:00003d4a       _IDirectSound3DCalculator_GetMixBinVolumes@12 005d872a f   dsoundd:dsapi.obj
 0005:00003d55       _XWaveFileCreateMediaObject@12 005d8735 f   dsoundd:dsapi.obj
 0005:00003e64       _XWaveFileCreateMediaObjectEx@12 005d8844 f   dsoundd:dsapi.obj
 0005:00003fa6       _XFileCreateMediaObject@24 005d8986 f   dsoundd:dsapi.obj
 0005:0000406f       _XFileCreateMediaObjectEx@8 005d8a4f f   dsoundd:dsapi.obj
 0005:000040fe       _XFileCreateMediaObjectAsync@12 005d8ade f   dsoundd:dsapi.obj
 0005:00004228       _Ac97CreateMediaObject@16  005d8c08 f   dsoundd:dsapi.obj
 0005:000042de       ??_ECDirectSoundSettings@DirectSound@@UAEPAXI@Z 005d8cbe f i dsoundd:dsapi.obj
 0005:000042de       ??_GCDirectSoundSettings@DirectSound@@UAEPAXI@Z 005d8cbe f i dsoundd:dsapi.obj
 0005:0000430b       ??0_DS3DCALCLISTENER@@QAE@XZ 005d8ceb f i dsoundd:dsapi.obj
 0005:0000430e       ??0CDirectSound@DirectSound@@QAE@XZ 005d8cee f   dsoundd:dsapi.obj
 0005:0000434c       ?AddRef@CDirectSound@DirectSound@@UAGKXZ 005d8d2c f i dsoundd:dsapi.obj
 0005:000043fc       ??1CDirectSound@DirectSound@@UAE@XZ 005d8ddc f   dsoundd:dsapi.obj
 0005:00004461       ?GetCaps@CDirectSound@DirectSound@@QAGJPAU_DSCAPS@@@Z 005d8e41 f   dsoundd:dsapi.obj
 0005:00004571       ?GetSpeakerConfig@CDirectSound@DirectSound@@QAGJPAK@Z 005d8f51 f   dsoundd:dsapi.obj
 0005:0000465f       ?DownloadEffectsImage@CDirectSound@DirectSound@@QAGJPBXKPBU_DSEFFECTIMAGELOC@@PAPAU_DSEFFECTIMAGEDESC@@@Z 005d903f f   dsoundd:dsapi.obj
 0005:0000479c       ?SetEffectData@CDirectSound@DirectSound@@QAGJKKPBXKK@Z 005d917c f   dsoundd:dsapi.obj
 0005:00004950       ?GetEffectData@CDirectSound@DirectSound@@QAGJKKPAXK@Z 005d9330 f   dsoundd:dsapi.obj
 0005:00004ad2       ?CommitEffectData@CDirectSound@DirectSound@@QAGJXZ 005d94b2 f   dsoundd:dsapi.obj
 0005:00004b83       ?SetMixBinHeadroom@CDirectSound@DirectSound@@QAGJKK@Z 005d9563 f   dsoundd:dsapi.obj
 0005:00004cb5       ?SynchPlayback@CDirectSound@DirectSound@@QAGJXZ 005d9695 f   dsoundd:dsapi.obj
 0005:00004d66       ?MapBufferData@CDirectSound@DirectSound@@QAGJPAXKPAPAU_DSBMAPPING@@@Z 005d9746 f   dsoundd:dsapi.obj
 0005:00004ef1       ?UnmapBufferData@CDirectSound@DirectSound@@QAGJPAU_DSBMAPPING@@@Z 005d98d1 f   dsoundd:dsapi.obj
 0005:00005027       ?DoWork@CDirectSound@DirectSound@@QAGXXZ 005d9a07 f   dsoundd:dsapi.obj
 0005:000050ba       ?EnableHeadphones@CDirectSound@DirectSound@@QAGJH@Z 005d9a9a f   dsoundd:dsapi.obj
 0005:00005269       ?SetMixBins@CDirectSoundVoiceSettings@DirectSound@@QAEXPBU_DSMIXBINS@@@Z 005d9c49 f   dsoundd:dsapi.obj
 0005:000053ef       ?SetOutputBuffer@CDirectSoundVoiceSettings@DirectSound@@QAEXPAVCDirectSoundBuffer@2@@Z 005d9dcf f   dsoundd:dsapi.obj
 0005:0000552a       ??0CDirectSoundVoice@DirectSound@@QAE@PAVCDirectSound@1@@Z 005d9f0a f   dsoundd:dsapi.obj
 0005:00005562       ??_GCDirectSoundVoice@DirectSound@@UAEPAXI@Z 005d9f42 f i dsoundd:dsapi.obj
 0005:00005562       ??_ECDirectSoundVoice@DirectSound@@UAEPAXI@Z 005d9f42 f i dsoundd:dsapi.obj
 0005:00005587       ?Initialize@CDirectSoundVoice@DirectSound@@QAGXPAVCMcpxVoiceClient@2@PAVCDirectSoundVoiceSettings@2@@Z 005d9f67 f   dsoundd:dsapi.obj
 0005:00005677       ?SetFrequency@CDirectSoundVoice@DirectSound@@QAGJK@Z 005da057 f   dsoundd:dsapi.obj
 0005:000056f1       ?SetOutputBuffer@CDirectSoundVoice@DirectSound@@QAGJPAUIDirectSoundBuffer@@@Z 005da0d1 f   dsoundd:dsapi.obj
 0005:00005910       ?SetMixBins@CDirectSoundVoice@DirectSound@@QAGJPBU_DSMIXBINS@@@Z 005da2f0 f   dsoundd:dsapi.obj
 0005:00005ad5       ?SetAllParameters@CDirectSoundVoice@DirectSound@@QAGJPBU_DS3DBUFFER@@K@Z 005da4b5 f   dsoundd:dsapi.obj
 0005:0000605e       ?SetConeAngles@CDirectSoundVoice@DirectSound@@QAGJKKK@Z 005daa3e f   dsoundd:dsapi.obj
 0005:00006196       ?SetConeOrientation@CDirectSoundVoice@DirectSound@@QAGJMMMK@Z 005dab76 f   dsoundd:dsapi.obj
 0005:00006306       ?SetConeOutsideVolume@CDirectSoundVoice@DirectSound@@QAGJJK@Z 005dace6 f   dsoundd:dsapi.obj
 0005:000063fe       ?SetMaxDistance@CDirectSoundVoice@DirectSound@@QAGJMK@Z 005dadde f   dsoundd:dsapi.obj
 0005:00006559       ?SetMinDistance@CDirectSoundVoice@DirectSound@@QAGJMK@Z 005daf39 f   dsoundd:dsapi.obj
 0005:000066b4       ?SetMode@CDirectSoundVoice@DirectSound@@QAGJKK@Z 005db094 f   dsoundd:dsapi.obj
 0005:000067a1       ?SetPosition@CDirectSoundVoice@DirectSound@@QAGJMMMK@Z 005db181 f   dsoundd:dsapi.obj
 0005:000068a3       ?SetVelocity@CDirectSoundVoice@DirectSound@@QAGJMMMK@Z 005db283 f   dsoundd:dsapi.obj
 0005:000069a5       ?SetDistanceFactor@CDirectSoundVoice@DirectSound@@QAGJMK@Z 005db385 f   dsoundd:dsapi.obj
 0005:00006abe       ?SetDopplerFactor@CDirectSoundVoice@DirectSound@@QAGJMK@Z 005db49e f   dsoundd:dsapi.obj
 0005:00006bd7       ?SetRolloffFactor@CDirectSoundVoice@DirectSound@@QAGJMK@Z 005db5b7 f   dsoundd:dsapi.obj
 0005:00006cf0       ?SetRolloffCurve@CDirectSoundVoice@DirectSound@@QAGJPBMKK@Z 005db6d0 f   dsoundd:dsapi.obj
 0005:00006e5d       ?SetI3DL2Source@CDirectSoundVoice@DirectSound@@QAGJPBU_DSI3DL2BUFFER@@K@Z 005db83d f   dsoundd:dsapi.obj
 0005:0000727a       ?SetPlayRegion@CDirectSoundBufferSettings@DirectSound@@QAEXKK@Z 005dbc5a f   dsoundd:dsapi.obj
 0005:000072de       ??0CDirectSoundBuffer@DirectSound@@QAE@PAVCDirectSound@1@@Z 005dbcbe f   dsoundd:dsapi.obj
 0005:00007320       ?AddRef@CDirectSoundBuffer@DirectSound@@UAGKXZ 005dbd00 f i dsoundd:dsapi.obj
 0005:000073d0       ?Release@CDirectSoundBuffer@DirectSound@@UAGKXZ 005dbdb0 f i dsoundd:dsapi.obj
 0005:00007480       ??1CDirectSoundBuffer@DirectSound@@UAE@XZ 005dbe60 f   dsoundd:dsapi.obj
 0005:000074d6       ?Play@CDirectSoundBuffer@DirectSound@@QAGJKKK@Z 005dbeb6 f   dsoundd:dsapi.obj
 0005:000076de       ?PlayEx@CDirectSoundBuffer@DirectSound@@QAGJ_JK@Z 005dc0be f   dsoundd:dsapi.obj
 0005:000078bc       ?Stop@CDirectSoundBuffer@DirectSound@@QAGJXZ 005dc29c f   dsoundd:dsapi.obj
 0005:000079b3       ?StopEx@CDirectSoundBuffer@DirectSound@@QAGJ_JK@Z 005dc393 f   dsoundd:dsapi.obj
 0005:00007b18       ?Pause@CDirectSoundBuffer@DirectSound@@QAGJK@Z 005dc4f8 f   dsoundd:dsapi.obj
 0005:00007c09       ?PauseEx@CDirectSoundBuffer@DirectSound@@QAGJ_JK@Z 005dc5e9 f   dsoundd:dsapi.obj
 0005:00007d01       ?GetStatus@CDirectSoundBuffer@DirectSound@@QAGJPAK@Z 005dc6e1 f   dsoundd:dsapi.obj
 0005:00007df2       ?SetPlayRegion@CDirectSoundBuffer@DirectSound@@QAGJKK@Z 005dc7d2 f   dsoundd:dsapi.obj
 0005:00007fc4       ?SetLoopRegion@CDirectSoundBuffer@DirectSound@@QAGJKK@Z 005dc9a4 f   dsoundd:dsapi.obj
 0005:000081a5       ?GetCurrentPosition@CDirectSoundBuffer@DirectSound@@QAGJPAK0@Z 005dcb85 f   dsoundd:dsapi.obj
 0005:000082a1       ?Lock@CDirectSoundBuffer@DirectSound@@QAGJKKPAPAXPAK01K@Z 005dcc81 f   dsoundd:dsapi.obj
 0005:000085e2       ?SetCurrentPosition@CDirectSoundBuffer@DirectSound@@QAGJK@Z 005dcfc2 f   dsoundd:dsapi.obj
 0005:00008755       ?SetNotificationPositions@CDirectSoundBuffer@DirectSound@@QAGJKPBU_DSBPOSITIONNOTIFY@@@Z 005dd135 f   dsoundd:dsapi.obj
 0005:00008999       ??0IDirectSoundStream@@QAE@XZ 005dd379 f i dsoundd:dsapi.obj
 0005:0000899c       ??1CDirectSoundStream@DirectSound@@UAE@XZ 005dd37c f   dsoundd:dsapi.obj
 0005:000089fc       ?AddRef@CDirectSoundStream@DirectSound@@UAGKXZ 005dd3dc f i dsoundd:dsapi.obj
 0005:00008ab0       ?Release@CDirectSoundStream@DirectSound@@UAGKXZ 005dd490 f i dsoundd:dsapi.obj
 0005:00008b64       ?GetInfo@CDirectSoundStream@DirectSound@@UAGJPAU_XMEDIAINFO@@@Z 005dd544 f   dsoundd:dsapi.obj
 0005:00008c70       ?Discontinuity@CDirectSoundStream@DirectSound@@UAGJXZ 005dd650 f   dsoundd:dsapi.obj
 0005:00008d22       ?Flush@CDirectSoundStream@DirectSound@@UAGJXZ 005dd702 f   dsoundd:dsapi.obj
 0005:00008dd4       ?GetStatus@CDirectSoundStream@DirectSound@@UAGJPAK@Z 005dd7b4 f   dsoundd:dsapi.obj
 0005:00008ec6       ?Process@CDirectSoundStream@DirectSound@@UAGJPBU_XMEDIAPACKET@@0@Z 005dd8a6 f   dsoundd:dsapi.obj
 0005:00009116       ?Pause@CDirectSoundStream@DirectSound@@QAGJK@Z 005ddaf6 f   dsoundd:dsapi.obj
 0005:00009208       ?PauseEx@CDirectSoundStream@DirectSound@@QAGJ_JK@Z 005ddbe8 f   dsoundd:dsapi.obj
 0005:00009302       ?FlushEx@CDirectSoundStream@DirectSound@@QAGJ_JK@Z 005ddce2 f   dsoundd:dsapi.obj
 0005:00009483       ??0_DS3DCALCBUFFER@@QAE@XZ 005dde63 f i dsoundd:dsapi.obj
 0005:00009486       ?AddRef@CDirectSoundStream@DirectSound@@WM@AGKXZ 005dde66 f i dsoundd:dsapi.obj
 0005:00009492       ?Release@CDirectSoundStream@DirectSound@@WM@AGKXZ 005dde72 f i dsoundd:dsapi.obj
 0005:0000949e       ?SetFrequency@CDirectSoundBuffer@DirectSound@@QAGJK@Z 005dde7e f i dsoundd:dsapi.obj
 0005:00009554       ?SetOutputBuffer@CDirectSoundBuffer@DirectSound@@QAGJPAUIDirectSoundBuffer@@@Z 005ddf34 f i dsoundd:dsapi.obj
 0005:0000960a       ?SetMixBins@CDirectSoundBuffer@DirectSound@@QAGJPBU_DSMIXBINS@@@Z 005ddfea f i dsoundd:dsapi.obj
 0005:000096c0       ?SetAllParameters@CDirectSoundBuffer@DirectSound@@QAGJPBU_DS3DBUFFER@@K@Z 005de0a0 f i dsoundd:dsapi.obj
 0005:0000977a       ?SetConeAngles@CDirectSoundBuffer@DirectSound@@QAGJKKK@Z 005de15a f i dsoundd:dsapi.obj
 0005:00009838       ?SetConeOrientation@CDirectSoundBuffer@DirectSound@@QAGJMMMK@Z 005de218 f i dsoundd:dsapi.obj
 0005:0000990b       ?SetConeOutsideVolume@CDirectSoundBuffer@DirectSound@@QAGJJK@Z 005de2eb f i dsoundd:dsapi.obj
 0005:000099c5       ?SetMaxDistance@CDirectSoundBuffer@DirectSound@@QAGJMK@Z 005de3a5 f i dsoundd:dsapi.obj
 0005:00009a84       ?SetMinDistance@CDirectSoundBuffer@DirectSound@@QAGJMK@Z 005de464 f i dsoundd:dsapi.obj
 0005:00009b43       ?SetMode@CDirectSoundBuffer@DirectSound@@QAGJKK@Z 005de523 f i dsoundd:dsapi.obj
 0005:00009bfd       ?SetPosition@CDirectSoundBuffer@DirectSound@@QAGJMMMK@Z 005de5dd f i dsoundd:dsapi.obj
 0005:00009cd0       ?SetVelocity@CDirectSoundBuffer@DirectSound@@QAGJMMMK@Z 005de6b0 f i dsoundd:dsapi.obj
 0005:00009da3       ?SetDistanceFactor@CDirectSoundBuffer@DirectSound@@QAGJMK@Z 005de783 f i dsoundd:dsapi.obj
 0005:00009e62       ?SetDopplerFactor@CDirectSoundBuffer@DirectSound@@QAGJMK@Z 005de842 f i dsoundd:dsapi.obj
 0005:00009f21       ?SetRolloffFactor@CDirectSoundBuffer@DirectSound@@QAGJMK@Z 005de901 f i dsoundd:dsapi.obj
 0005:00009fe0       ?SetRolloffCurve@CDirectSoundBuffer@DirectSound@@QAGJPBMKK@Z 005de9c0 f i dsoundd:dsapi.obj
 0005:0000a09e       ?SetI3DL2Source@CDirectSoundBuffer@DirectSound@@QAGJPBU_DSI3DL2BUFFER@@K@Z 005dea7e f i dsoundd:dsapi.obj
 0005:0000a158       ?SetFrequency@CDirectSoundStream@DirectSound@@QAGJK@Z 005deb38 f i dsoundd:dsapi.obj
 0005:0000a20f       ?SetOutputBuffer@CDirectSoundStream@DirectSound@@QAGJPAUIDirectSoundBuffer@@@Z 005debef f i dsoundd:dsapi.obj
 0005:0000a2c6       ?SetMixBins@CDirectSoundStream@DirectSound@@QAGJPBU_DSMIXBINS@@@Z 005deca6 f i dsoundd:dsapi.obj
 0005:0000a37d       ?SetAllParameters@CDirectSoundStream@DirectSound@@QAGJPBU_DS3DBUFFER@@K@Z 005ded5d f i dsoundd:dsapi.obj
 0005:0000a438       ?SetConeAngles@CDirectSoundStream@DirectSound@@QAGJKKK@Z 005dee18 f i dsoundd:dsapi.obj
 0005:0000a4f7       ?SetConeOrientation@CDirectSoundStream@DirectSound@@QAGJMMMK@Z 005deed7 f i dsoundd:dsapi.obj
 0005:0000a5cb       ?SetConeOutsideVolume@CDirectSoundStream@DirectSound@@QAGJJK@Z 005defab f i dsoundd:dsapi.obj
 0005:0000a686       ?SetMaxDistance@CDirectSoundStream@DirectSound@@QAGJMK@Z 005df066 f i dsoundd:dsapi.obj
 0005:0000a746       ?SetMinDistance@CDirectSoundStream@DirectSound@@QAGJMK@Z 005df126 f i dsoundd:dsapi.obj
 0005:0000a806       ?SetMode@CDirectSoundStream@DirectSound@@QAGJKK@Z 005df1e6 f i dsoundd:dsapi.obj
 0005:0000a8c1       ?SetPosition@CDirectSoundStream@DirectSound@@QAGJMMMK@Z 005df2a1 f i dsoundd:dsapi.obj
 0005:0000a995       ?SetVelocity@CDirectSoundStream@DirectSound@@QAGJMMMK@Z 005df375 f i dsoundd:dsapi.obj
 0005:0000aa69       ?SetDistanceFactor@CDirectSoundStream@DirectSound@@QAGJMK@Z 005df449 f i dsoundd:dsapi.obj
 0005:0000ab29       ?SetDopplerFactor@CDirectSoundStream@DirectSound@@QAGJMK@Z 005df509 f i dsoundd:dsapi.obj
 0005:0000abe9       ?SetRolloffFactor@CDirectSoundStream@DirectSound@@QAGJMK@Z 005df5c9 f i dsoundd:dsapi.obj
 0005:0000aca9       ?SetRolloffCurve@CDirectSoundStream@DirectSound@@QAGJPBMKK@Z 005df689 f i dsoundd:dsapi.obj
 0005:0000ad68       ?SetI3DL2Source@CDirectSoundStream@DirectSound@@QAGJPBU_DSI3DL2BUFFER@@K@Z 005df748 f i dsoundd:dsapi.obj
 0005:0000ae23       _IDirectSound_GetCaps@8    005df803 f   dsoundd:dsapi.obj
 0005:0000ae48       _IDirectSound_GetSpeakerConfig@8 005df828 f   dsoundd:dsapi.obj
 0005:0000ae6d       _IDirectSound_DownloadEffectsImage@20 005df84d f   dsoundd:dsapi.obj
 0005:0000ae9d       _IDirectSound_GetEffectData@20 005df87d f   dsoundd:dsapi.obj
 0005:0000aecd       _IDirectSound_SetEffectData@24 005df8ad f   dsoundd:dsapi.obj
 0005:0000af01       _IDirectSound_CommitEffectData@4 005df8e1 f   dsoundd:dsapi.obj
 0005:0000af22       _IDirectSound_EnableHeadphones@8 005df902 f   dsoundd:dsapi.obj
 0005:0000af47       _IDirectSound_SetMixBinHeadroom@12 005df927 f   dsoundd:dsapi.obj
 0005:0000af70       _IDirectSound_SynchPlayback@4 005df950 f   dsoundd:dsapi.obj
 0005:0000af91       _IDirectSound_MapBufferData@16 005df971 f   dsoundd:dsapi.obj
 0005:0000afbe       _IDirectSound_UnmapBufferData@8 005df99e f   dsoundd:dsapi.obj
 0005:0000afe3       _IDirectSoundBuffer_SetFrequency@8 005df9c3 f   dsoundd:dsapi.obj
 0005:0000b008       _IDirectSoundBuffer_SetOutputBuffer@8 005df9e8 f   dsoundd:dsapi.obj
 0005:0000b02d       _IDirectSoundBuffer_SetMixBins@8 005dfa0d f   dsoundd:dsapi.obj
 0005:0000b052       _IDirectSoundBuffer_SetAllParameters@12 005dfa32 f   dsoundd:dsapi.obj
 0005:0000b07b       _IDirectSoundBuffer_SetConeAngles@16 005dfa5b f   dsoundd:dsapi.obj
 0005:0000b0a8       _IDirectSoundBuffer_SetConeOrientation@20 005dfa88 f   dsoundd:dsapi.obj
 0005:0000b0ea       _IDirectSoundBuffer_SetConeOutsideVolume@12 005dfaca f   dsoundd:dsapi.obj
 0005:0000b113       _IDirectSoundBuffer_SetMaxDistance@12 005dfaf3 f   dsoundd:dsapi.obj
 0005:0000b141       _IDirectSoundBuffer_SetMinDistance@12 005dfb21 f   dsoundd:dsapi.obj
 0005:0000b16f       _IDirectSoundBuffer_SetMode@12 005dfb4f f   dsoundd:dsapi.obj
 0005:0000b198       _IDirectSoundBuffer_SetPosition@20 005dfb78 f   dsoundd:dsapi.obj
 0005:0000b1da       _IDirectSoundBuffer_SetVelocity@20 005dfbba f   dsoundd:dsapi.obj
 0005:0000b21c       _IDirectSoundBuffer_SetDistanceFactor@12 005dfbfc f   dsoundd:dsapi.obj
 0005:0000b24a       _IDirectSoundBuffer_SetDopplerFactor@12 005dfc2a f   dsoundd:dsapi.obj
 0005:0000b278       _IDirectSoundBuffer_SetRolloffFactor@12 005dfc58 f   dsoundd:dsapi.obj
 0005:0000b2a6       _IDirectSoundBuffer_SetRolloffCurve@16 005dfc86 f   dsoundd:dsapi.obj
 0005:0000b2d3       _IDirectSoundBuffer_SetI3DL2Source@12 005dfcb3 f   dsoundd:dsapi.obj
 0005:0000b2fc       _IDirectSoundBuffer_Play@16 005dfcdc f   dsoundd:dsapi.obj
 0005:0000b329       _IDirectSoundBuffer_PlayEx@16 005dfd09 f   dsoundd:dsapi.obj
 0005:0000b356       _IDirectSoundBuffer_Stop@4 005dfd36 f   dsoundd:dsapi.obj
 0005:0000b377       _IDirectSoundBuffer_StopEx@16 005dfd57 f   dsoundd:dsapi.obj
 0005:0000b3a4       _IDirectSoundBuffer_Pause@8 005dfd84 f   dsoundd:dsapi.obj
 0005:0000b3c9       _IDirectSoundBuffer_PauseEx@16 005dfda9 f   dsoundd:dsapi.obj
 0005:0000b3f6       _IDirectSoundBuffer_SetPlayRegion@12 005dfdd6 f   dsoundd:dsapi.obj
 0005:0000b41f       _IDirectSoundBuffer_SetLoopRegion@12 005dfdff f   dsoundd:dsapi.obj
 0005:0000b448       _IDirectSoundBuffer_GetStatus@8 005dfe28 f   dsoundd:dsapi.obj
 0005:0000b46d       _IDirectSoundBuffer_GetCurrentPosition@12 005dfe4d f   dsoundd:dsapi.obj
 0005:0000b496       _IDirectSoundBuffer_SetCurrentPosition@8 005dfe76 f   dsoundd:dsapi.obj
 0005:0000b4bb       _IDirectSoundBuffer_Lock@32 005dfe9b f   dsoundd:dsapi.obj
 0005:0000b4f7       _IDirectSoundBuffer_SetNotificationPositions@12 005dfed7 f   dsoundd:dsapi.obj
 0005:0000b520       _IDirectSoundStream_SetFrequency@8 005dff00 f   dsoundd:dsapi.obj
 0005:0000b52b       _IDirectSoundStream_SetOutputBuffer@8 005dff0b f   dsoundd:dsapi.obj
 0005:0000b536       _IDirectSoundStream_SetMixBins@8 005dff16 f   dsoundd:dsapi.obj
 0005:0000b541       _IDirectSoundStream_SetAllParameters@12 005dff21 f   dsoundd:dsapi.obj
 0005:0000b54c       _IDirectSoundStream_SetConeAngles@16 005dff2c f   dsoundd:dsapi.obj
 0005:0000b557       _IDirectSoundStream_SetConeOrientation@20 005dff37 f   dsoundd:dsapi.obj
 0005:0000b58a       _IDirectSoundStream_SetConeOutsideVolume@12 005dff6a f   dsoundd:dsapi.obj
 0005:0000b595       _IDirectSoundStream_SetMaxDistance@12 005dff75 f   dsoundd:dsapi.obj
 0005:0000b5b4       _IDirectSoundStream_SetMinDistance@12 005dff94 f   dsoundd:dsapi.obj
 0005:0000b5d3       _IDirectSoundStream_SetMode@12 005dffb3 f   dsoundd:dsapi.obj
 0005:0000b5de       _IDirectSoundStream_SetPosition@20 005dffbe f   dsoundd:dsapi.obj
 0005:0000b611       _IDirectSoundStream_SetVelocity@20 005dfff1 f   dsoundd:dsapi.obj
 0005:0000b644       _IDirectSoundStream_SetDistanceFactor@12 005e0024 f   dsoundd:dsapi.obj
 0005:0000b663       _IDirectSoundStream_SetDopplerFactor@12 005e0043 f   dsoundd:dsapi.obj
 0005:0000b682       _IDirectSoundStream_SetRolloffFactor@12 005e0062 f   dsoundd:dsapi.obj
 0005:0000b6a1       _IDirectSoundStream_SetRolloffCurve@16 005e0081 f   dsoundd:dsapi.obj
 0005:0000b6ac       _IDirectSoundStream_SetI3DL2Source@12 005e008c f   dsoundd:dsapi.obj
 0005:0000b6b7       _IDirectSoundStream_Pause@8 005e0097 f   dsoundd:dsapi.obj
 0005:0000b6c2       _IDirectSoundStream_PauseEx@16 005e00a2 f   dsoundd:dsapi.obj
 0005:0000b6e0       _IDirectSoundStream_FlushEx@16 005e00c0 f   dsoundd:dsapi.obj
 0005:0000b6fe       _DirectSoundDoWork@0       005e00de f   dsoundd:dsapi.obj
 0005:0000b762       _XAudioDownloadEffectsImage@16 005e0142 f   dsoundd:dsapi.obj
 0005:0000bba0       _XAudioSetEffectData@12    005e0580 f   dsoundd:dsapi.obj
 0005:0000c436       ??0DS3DLISTENERBLOB@@QAE@XZ 005e0e16 f i dsoundd:dsapi.obj
 0005:0000c439       ??_ECDirectSound@DirectSound@@UAEPAXI@Z 005e0e19 f i dsoundd:dsapi.obj
 0005:0000c439       ??_GCDirectSound@DirectSound@@UAEPAXI@Z 005e0e19 f i dsoundd:dsapi.obj
 0005:0000c45e       ??1CDirectSoundVoiceSettings@DirectSound@@UAE@XZ 005e0e3e f   dsoundd:dsapi.obj
 0005:0000c4be       ?SetFormat@CDirectSoundVoiceSettings@DirectSound@@QAEHPBUtWAVEFORMATEX@@H@Z 005e0e9e f   dsoundd:dsapi.obj
 0005:0000c5b6       ?SetFormat@CDirectSoundVoice@DirectSound@@QAGJPBUtWAVEFORMATEX@@@Z 005e0f96 f   dsoundd:dsapi.obj
 0005:0000c6fd       ??0CDirectSoundBufferSettings@DirectSound@@QAE@XZ 005e10dd f   dsoundd:dsapi.obj
 0005:0000c711       ?SetBufferData@CDirectSoundBufferSettings@DirectSound@@QAEJPAXK@Z 005e10f1 f   dsoundd:dsapi.obj
 0005:0000c7d2       ??_GCDirectSoundBuffer@DirectSound@@UAEPAXI@Z 005e11b2 f i dsoundd:dsapi.obj
 0005:0000c7d2       ??_ECDirectSoundBuffer@DirectSound@@UAEPAXI@Z 005e11b2 f i dsoundd:dsapi.obj
 0005:0000c7f7       ?SetBufferData@CDirectSoundBuffer@DirectSound@@QAGJPAXK@Z 005e11d7 f   dsoundd:dsapi.obj
 0005:0000c9c0       ??0CDirectSoundStreamSettings@DirectSound@@QAE@XZ 005e13a0 f   dsoundd:dsapi.obj
 0005:0000c9d4       ??1CDirectSoundStreamSettings@DirectSound@@UAE@XZ 005e13b4 f   dsoundd:dsapi.obj
 0005:0000c9e1       ??0CDirectSoundStream@DirectSound@@QAE@PAVCDirectSound@1@@Z 005e13c1 f   dsoundd:dsapi.obj
 0005:0000ca2d       ??_ECDirectSoundStream@DirectSound@@UAEPAXI@Z 005e140d f i dsoundd:dsapi.obj
 0005:0000ca2d       ??_GCDirectSoundStream@DirectSound@@UAEPAXI@Z 005e140d f i dsoundd:dsapi.obj
 0005:0000ca52       ?Calculate3D@CDirectSound3DCalculator@DirectSound@@SGXPAU_DS3DCALCLISTENER@@PAU_DS3DCALCBUFFER@@@Z 005e1432 f   dsoundd:dsapi.obj
 0005:0000ce0a       ?Play@IDirectSoundBuffer@@QAGJKKK@Z 005e17ea f i dsoundd:dsapi.obj
 0005:0000ce15       ?Stop@IDirectSoundBuffer@@QAGJXZ 005e17f5 f i dsoundd:dsapi.obj
 0005:0000ce20       ?GetStatus@IDirectSoundBuffer@@QAGJPAK@Z 005e1800 f i dsoundd:dsapi.obj
 0005:0000ce2b       ?SetFormat@CDirectSoundBuffer@DirectSound@@QAGJPBUtWAVEFORMATEX@@@Z 005e180b f i dsoundd:dsapi.obj
 0005:0000cee1       ?SetFormat@CDirectSoundStream@DirectSound@@QAGJPBUtWAVEFORMATEX@@@Z 005e18c1 f i dsoundd:dsapi.obj
 0005:0000cf98       _IDirectSoundBuffer_SetFormat@8 005e1978 f   dsoundd:dsapi.obj
 0005:0000cfbd       _IDirectSoundBuffer_SetBufferData@12 005e199d f   dsoundd:dsapi.obj
 0005:0000cfe6       _IDirectSoundStream_SetFormat@8 005e19c6 f   dsoundd:dsapi.obj
 0005:0000cff1       _IDirectSound3DCalculator_Calculate3D@8 005e19d1 f   dsoundd:dsapi.obj
 0005:0000cffc       ??0CDirectSoundSettings@DirectSound@@QAE@XZ 005e19dc f   dsoundd:dsapi.obj
 0005:0000d0b2       ?Release@CDirectSound@DirectSound@@UAGKXZ 005e1a92 f   dsoundd:dsapi.obj
 0005:0000d279       ?CommitDeferredSettings@CDirectSound@DirectSound@@QAGJXZ 005e1c59 f   dsoundd:dsapi.obj
 0005:0000d387       ??_GCDirectSoundVoiceSettings@DirectSound@@UAEPAXI@Z 005e1d67 f i dsoundd:dsapi.obj
 0005:0000d387       ??_ECDirectSoundVoiceSettings@DirectSound@@UAEPAXI@Z 005e1d67 f i dsoundd:dsapi.obj
 0005:0000d3ac       ?Initialize@CDirectSoundVoiceSettings@DirectSound@@QAEJKPBUtWAVEFORMATEX@@PBU_DSMIXBINS@@@Z 005e1d8c f   dsoundd:dsapi.obj
 0005:0000d55b       ??1CDirectSoundBufferSettings@DirectSound@@UAE@XZ 005e1f3b f   dsoundd:dsapi.obj
 0005:0000d589       ?Initialize@CDirectSoundBufferSettings@DirectSound@@QAEJPBU_DSBUFFERDESC@@@Z 005e1f69 f   dsoundd:dsapi.obj
 0005:0000d60b       ?Initialize@CDirectSoundBuffer@DirectSound@@QAGJPBU_DSBUFFERDESC@@@Z 005e1feb f   dsoundd:dsapi.obj
 0005:0000dcf3       ??_GCDirectSoundStreamSettings@DirectSound@@UAEPAXI@Z 005e26d3 f i dsoundd:dsapi.obj
 0005:0000dcf3       ??_ECDirectSoundStreamSettings@DirectSound@@UAEPAXI@Z 005e26d3 f i dsoundd:dsapi.obj
 0005:0000dd20       ?Initialize@CDirectSoundStreamSettings@DirectSound@@QAEJPBU_DSSTREAMDESC@@@Z 005e2700 f   dsoundd:dsapi.obj
 0005:0000dd6b       ?Initialize@CDirectSoundStream@DirectSound@@QAGJPBU_DSSTREAMDESC@@@Z 005e274b f   dsoundd:dsapi.obj
 0005:0000e228       ?SetBufferData@IDirectSoundBuffer@@QAGJPAXK@Z 005e2c08 f i dsoundd:dsapi.obj
 0005:0000e233       _IDirectSound_CommitDeferredSettings@4 005e2c13 f   dsoundd:dsapi.obj
 0005:0000e254       ?CreateSoundBuffer@CDirectSound@DirectSound@@QAGJPBU_DSBUFFERDESC@@PAPAUIDirectSoundBuffer@@PAUIUnknown@@@Z 005e2c34 f   dsoundd:dsapi.obj
 0005:0000e3ec       ?CreateSoundStream@CDirectSound@DirectSound@@QAGJPBU_DSSTREAMDESC@@PAPAUIDirectSoundStream@@PAUIUnknown@@@Z 005e2dcc f   dsoundd:dsapi.obj
 0005:0000e573       ?SetAllParameters@CDirectSound@DirectSound@@QAGJPBU_DS3DLISTENER@@K@Z 005e2f53 f   dsoundd:dsapi.obj
 0005:0000e9e5       ?SetDistanceFactor@CDirectSound@DirectSound@@QAGJMK@Z 005e33c5 f   dsoundd:dsapi.obj
 0005:0000eb50       ?SetDopplerFactor@CDirectSound@DirectSound@@QAGJMK@Z 005e3530 f   dsoundd:dsapi.obj
 0005:0000ecbb       ?SetRolloffFactor@CDirectSound@DirectSound@@QAGJMK@Z 005e369b f   dsoundd:dsapi.obj
 0005:0000ee26       ?SetOrientation@CDirectSound@DirectSound@@QAGJMMMMMMK@Z 005e3806 f   dsoundd:dsapi.obj
 0005:0000f058       ?SetPosition@CDirectSound@DirectSound@@QAGJMMMK@Z 005e3a38 f   dsoundd:dsapi.obj
 0005:0000f1a2       ?SetVelocity@CDirectSound@DirectSound@@QAGJMMMK@Z 005e3b82 f   dsoundd:dsapi.obj
 0005:0000f2ec       ?SetI3DL2Listener@CDirectSound@DirectSound@@QAGJPBU_DSI3DL2LISTENER@@K@Z 005e3ccc f   dsoundd:dsapi.obj
 0005:0000f8e6       ??_ECDirectSoundBufferSettings@DirectSound@@UAEPAXI@Z 005e42c6 f i dsoundd:dsapi.obj
 0005:0000f8e6       ??_GCDirectSoundBufferSettings@DirectSound@@UAEPAXI@Z 005e42c6 f i dsoundd:dsapi.obj
 0005:0000f90b       _IDirectSound_CreateSoundBuffer@16 005e42eb f   dsoundd:dsapi.obj
 0005:0000f938       _IDirectSound_CreateSoundStream@16 005e4318 f   dsoundd:dsapi.obj
 0005:0000f965       _IDirectSound_SetAllParameters@12 005e4345 f   dsoundd:dsapi.obj
 0005:0000f98e       _IDirectSound_SetDistanceFactor@12 005e436e f   dsoundd:dsapi.obj
 0005:0000f9bc       _IDirectSound_SetDopplerFactor@12 005e439c f   dsoundd:dsapi.obj
 0005:0000f9ea       _IDirectSound_SetOrientation@32 005e43ca f   dsoundd:dsapi.obj
 0005:0000fa46       _IDirectSound_SetPosition@20 005e4426 f   dsoundd:dsapi.obj
 0005:0000fa88       _IDirectSound_SetRolloffFactor@12 005e4468 f   dsoundd:dsapi.obj
 0005:0000fab6       _IDirectSound_SetVelocity@20 005e4496 f   dsoundd:dsapi.obj
 0005:0000faf8       _IDirectSound_SetI3DL2Listener@12 005e44d8 f   dsoundd:dsapi.obj
 0005:0000fb21       ?Initialize@CDirectSound@DirectSound@@QAGJXZ 005e4501 f   dsoundd:dsapi.obj
 0005:0000fd13       ?DirectSoundCreateInternal@@YGJPAPAVCDirectSound@DirectSound@@@Z 005e46f3 f   dsoundd:dsapi.obj
 0005:0000fdbb       _DirectSoundCreate@12      005e479b f   dsoundd:dsapi.obj
 0005:0000fed0       _DirectSoundCreateBuffer@8 005e48b0 f   dsoundd:dsapi.obj
 0005:0000ff40       _DirectSoundCreateStream@8 005e4920 f   dsoundd:dsapi.obj
 0005:0000ffb0       _DirectSoundLoadEncoder@16 005e4990 f   dsoundd:dsapi.obj
 0005:00010092       ?Flush@CStdFileStream@WaveLoaderFoo@@QAEXXZ 005e4a72 f i dsoundd:dscommon.obj
 0005:000100a3       ?GetDataSize@CRiffChunk@WaveLoaderFoo@@QAEKXZ 005e4a83 f i dsoundd:dscommon.obj
 0005:000100a7       ?GetFormatSize@CWaveFileWriter@WaveLoaderFoo@@SGKPBUtWAVEFORMATEX@@@Z 005e4a87 f i dsoundd:dscommon.obj
 0005:000100ca       ?NextStepIndex@CImaAdpcmCodec@DirectSound@@CGHHH@Z 005e4aaa f i dsoundd:dscommon.obj
 0005:000100f8       ?ValidStepIndex@CImaAdpcmCodec@DirectSound@@CGHH@Z 005e4ad8 f i dsoundd:dscommon.obj
 0005:0001015f       ?dstrcpy@@YGPADPADPBD@Z    005e4b3f f i dsoundd:dscommon.obj
 0005:0001017e       ?SetContext@CDebug@DirectSound@@SAXKPBDI00@Z 005e4b5e f   dsoundd:dscommon.obj
 0005:000101d1       ?Break@CDebug@DirectSound@@SAXXZ 005e4bb1 f   dsoundd:dscommon.obj
 0005:0001025b       ??0CStdFileStream@WaveLoaderFoo@@QAE@XZ 005e4c3b f   dsoundd:dscommon.obj
 0005:0001026c       ?SetFlags@CStdFileStream@WaveLoaderFoo@@QAEXK@Z 005e4c4c f   dsoundd:dscommon.obj
 0005:0001027c       ?ClearFlags@CStdFileStream@WaveLoaderFoo@@QAEXK@Z 005e4c5c f   dsoundd:dscommon.obj
 0005:0001028e       ?Close@CStdFileStream@WaveLoaderFoo@@QAEXXZ 005e4c6e f   dsoundd:dscommon.obj
 0005:000102d4       ??0CRiffChunk@WaveLoaderFoo@@QAE@XZ 005e4cb4 f   dsoundd:dscommon.obj
 0005:000102ef       ??1CRiffChunk@WaveLoaderFoo@@QAE@XZ 005e4ccf f   dsoundd:dscommon.obj
 0005:000102f0       ?GetWaveHeader@CWaveFileWriter@WaveLoaderFoo@@SGKPBUtWAVEFORMATEX@@KPAXK@Z 005e4cd0 f   dsoundd:dscommon.obj
 0005:00010379       ??0CImaAdpcmCodec@DirectSound@@QAE@XZ 005e4d59 f   dsoundd:dscommon.obj
 0005:00010384       ??1CImaAdpcmCodec@DirectSound@@UAE@XZ 005e4d64 f   dsoundd:dscommon.obj
 0005:0001038b       ?Convert@CImaAdpcmCodec@DirectSound@@QAEHPBXPAXI@Z 005e4d6b f   dsoundd:dscommon.obj
 0005:000103b9       ?Reset@CImaAdpcmCodec@DirectSound@@QAEXXZ 005e4d99 f   dsoundd:dscommon.obj
 0005:000103c4       ?GetEncodeAlignment@CImaAdpcmCodec@DirectSound@@QAEGXZ 005e4da4 f   dsoundd:dscommon.obj
 0005:000103c9       ?GetDecodeAlignment@CImaAdpcmCodec@DirectSound@@QAEGXZ 005e4da9 f   dsoundd:dscommon.obj
 0005:000103e3       ?CalculateEncodeAlignment@CImaAdpcmCodec@DirectSound@@CGGGG@Z 005e4dc3 f   dsoundd:dscommon.obj
 0005:0001041a       ?CreatePcmFormat@CImaAdpcmCodec@DirectSound@@SGXGKPAUtWAVEFORMATEX@@@Z 005e4dfa f   dsoundd:dscommon.obj
 0005:0001046a       ?CreateImaAdpcmFormat@CImaAdpcmCodec@DirectSound@@SGXGKGPAUxbox_adpcmwaveformat_tag@@@Z 005e4e4a f   dsoundd:dscommon.obj
 0005:000104cb       ?IsValidPcmFormat@CImaAdpcmCodec@DirectSound@@SGHPBUtWAVEFORMATEX@@@Z 005e4eab f   dsoundd:dscommon.obj
 0005:00010530       ?IsValidImaAdpcmFormat@CImaAdpcmCodec@DirectSound@@SGHPBUxbox_adpcmwaveformat_tag@@@Z 005e4f10 f   dsoundd:dscommon.obj
 0005:0001058b       ?EncodeSample@CImaAdpcmCodec@DirectSound@@CGHHPAHH@Z 005e4f6b f   dsoundd:dscommon.obj
 0005:0001060b       ?DecodeSample@CImaAdpcmCodec@DirectSound@@CGHHHH@Z 005e4feb f   dsoundd:dscommon.obj
 0005:0001067e       ?EncodeM16@CImaAdpcmCodec@DirectSound@@CGHPAE0IIIPAH1@Z 005e505e f   dsoundd:dscommon.obj
 0005:0001078f       ?EncodeS16@CImaAdpcmCodec@DirectSound@@CGHPAE0IIIPAH1@Z 005e516f f   dsoundd:dscommon.obj
 0005:00010949       ?DecodeM16@CImaAdpcmCodec@DirectSound@@CGHPAE0IIIPAH1@Z 005e5329 f   dsoundd:dscommon.obj
 0005:00010a7f       ?DecodeS16@CImaAdpcmCodec@DirectSound@@CGHPAE0IIIPAH1@Z 005e545f f   dsoundd:dscommon.obj
 0005:00010c2b       ?PrintStaticV@CDebug@DirectSound@@SAXKPBDI000PAD@Z 005e560b f   dsoundd:dscommon.obj
 0005:00010df9       ?PrintStatic@CDebug@DirectSound@@SAXKPBDI000ZZ 005e57d9 f   dsoundd:dscommon.obj
 0005:00010e24       ?Print@CDebug@DirectSound@@SAXPBDZZ 005e5804 f   dsoundd:dscommon.obj
 0005:00010e77       ?Assert@CDebug@DirectSound@@SAXHPBD0I@Z 005e5857 f   dsoundd:dscommon.obj
 0005:00010f55       ?PoolAlloc@CMemoryManager@DirectSound@@SGPAXW4DSOUND_POOL_TAG@@KH@Z 005e5935 f   dsoundd:dscommon.obj
 0005:00011002       ?PoolFree@CMemoryManager@DirectSound@@SGXPAX@Z 005e59e2 f   dsoundd:dscommon.obj
 0005:0001107a       ?PhysicalAlloc@CMemoryManager@DirectSound@@SGPAXKKKH@Z 005e5a5a f   dsoundd:dscommon.obj
 0005:00011157       ?PhysicalFree@CMemoryManager@DirectSound@@SGXPAX@Z 005e5b37 f   dsoundd:dscommon.obj
 0005:000111cf       ?MemAlloc@CMemoryManager@DirectSound@@SGPAXW4DSOUND_POOL_TAG@@KH@Z 005e5baf f   dsoundd:dscommon.obj
 0005:000112a1       ?MemFree@CMemoryManager@DirectSound@@SGXPAX@Z 005e5c81 f   dsoundd:dscommon.obj
 0005:0001133f       ?CreatePcmFormat@WaveFormat@DirectSound@@YGXGKGPAUtWAVEFORMATEX@@@Z 005e5d1f f   dsoundd:dscommon.obj
 0005:000113be       ?CreateXboxAdpcmFormat@WaveFormat@DirectSound@@YGXGKPAUxbox_adpcmwaveformat_tag@@@Z 005e5d9e f   dsoundd:dscommon.obj
 0005:00011438       ?PcmToInternalFormat@WaveFormat@DirectSound@@YGXPAUDSWAVEFORMAT@@PBUtWAVEFORMATEX@@@Z 005e5e18 f   dsoundd:dscommon.obj
 0005:00011533       ?IsValidPcmFormat@WaveFormat@DirectSound@@YGHPBUtWAVEFORMATEX@@H@Z 005e5f13 f   dsoundd:dscommon.obj
 0005:000116df       ?AdpcmToInternalFormat@WaveFormat@DirectSound@@YGXPAUDSWAVEFORMAT@@PBUxbox_adpcmwaveformat_tag@@@Z 005e60bf f   dsoundd:dscommon.obj
 0005:000117d7       ?IsValidAdpcmFormat@WaveFormat@DirectSound@@YGHPBUxbox_adpcmwaveformat_tag@@H@Z 005e61b7 f   dsoundd:dscommon.obj
 0005:000119c8       ?ExtensibleToInternalFormat@WaveFormat@DirectSound@@YGKPAUDSWAVEFORMAT@@PBUWAVEFORMATEXTENSIBLE@@@Z 005e63a8 f   dsoundd:dscommon.obj
 0005:00011a91       ?IsValidExtensibleFormat@WaveFormat@DirectSound@@YGHPBUWAVEFORMATEXTENSIBLE@@H@Z 005e6471 f   dsoundd:dscommon.obj
 0005:00011c99       ??1CStdFileStream@WaveLoaderFoo@@QAE@XZ 005e6679 f   dsoundd:dscommon.obj
 0005:00011c9e       ?Open@CStdFileStream@WaveLoaderFoo@@QAEJPBDKKKK@Z 005e667e f   dsoundd:dscommon.obj
 0005:00011d82       ?Attach@CStdFileStream@WaveLoaderFoo@@QAEXPAX@Z 005e6762 f   dsoundd:dscommon.obj
 0005:00011dcf       ?Read@CStdFileStream@WaveLoaderFoo@@QAEJPAXKPAKPAU_OVERLAPPED@@@Z 005e67af f   dsoundd:dscommon.obj
 0005:00011f47       ?Write@CStdFileStream@WaveLoaderFoo@@QAEJPBXKPAK@Z 005e6927 f   dsoundd:dscommon.obj
 0005:00012067       ?Seek@CStdFileStream@WaveLoaderFoo@@QAEJJKPAK@Z 005e6a47 f   dsoundd:dscommon.obj
 0005:000121a4       ?GetLength@CStdFileStream@WaveLoaderFoo@@QAEJPAK@Z 005e6b84 f   dsoundd:dscommon.obj
 0005:0001226e       ?SetEOF@CStdFileStream@WaveLoaderFoo@@QAEJXZ 005e6c4e f   dsoundd:dscommon.obj
 0005:00012327       ?Open@CRiffChunk@WaveLoaderFoo@@QAEJPAV12@PAVCStdFileStream@2@K@Z 005e6d07 f   dsoundd:dscommon.obj
 0005:000124c2       ?Read@CRiffChunk@WaveLoaderFoo@@QAEJKPAXKPAK@Z 005e6ea2 f   dsoundd:dscommon.obj
 0005:0001256c       ??0CWaveFile@WaveLoaderFoo@@QAE@XZ 005e6f4c f   dsoundd:dscommon.obj
 0005:0001259e       ?GetFormat@CWaveFile@WaveLoaderFoo@@QAEJPAUtWAVEFORMATEX@@KPAK@Z 005e6f7e f   dsoundd:dscommon.obj
 0005:00012643       ?GetWaveFormat@CWaveFile@WaveLoaderFoo@@IAEJPAUtWAVEFORMATEX@@KPAK@Z 005e7023 f   dsoundd:dscommon.obj
 0005:0001271f       ?GetAiffFormat@CWaveFile@WaveLoaderFoo@@IAEJPAUtWAVEFORMATEX@@KPAK@Z 005e70ff f   dsoundd:dscommon.obj
 0005:00012929       ?GetWaveDLSLoopRegion@CWaveFile@WaveLoaderFoo@@IAEJPAK0@Z 005e7309 f   dsoundd:dscommon.obj
 0005:00012a98       ?GetWaveMIDILoopRegion@CWaveFile@WaveLoaderFoo@@IAEJPAK0@Z 005e7478 f   dsoundd:dscommon.obj
 0005:00012c03       ?ConvertAiffPcm@CWaveFile@WaveLoaderFoo@@SGXPAXKK@Z 005e75e3 f   dsoundd:dscommon.obj
 0005:00012c77       ??0CWaveFileWriter@WaveLoaderFoo@@QAE@XZ 005e7657 f   dsoundd:dscommon.obj
 0005:00012c93       ??1CWaveFileWriter@WaveLoaderFoo@@QAE@XZ 005e7673 f   dsoundd:dscommon.obj
 0005:00012d0b       ?WriteSample@CWaveFileWriter@WaveLoaderFoo@@QAEJPBXKPAK@Z 005e76eb f   dsoundd:dscommon.obj
 0005:00012d44       ?Initialize@CImaAdpcmCodec@DirectSound@@QAEHPBUxbox_adpcmwaveformat_tag@@H@Z 005e7724 f   dsoundd:dscommon.obj
 0005:00012da1       ?InsertTailListUninit@@YGXPAU_LIST_ENTRY@@0@Z 005e7781 f i dsoundd:dscommon.obj
 0005:00012df3       ?TrackAlloc@CMemoryManager@DirectSound@@CGXPAU_LIST_ENTRY@@PAUDSMEMTRACK@@PAXPBDK3K@Z 005e77d3 f   dsoundd:dscommon.obj
 0005:00012eea       ?ForgetAlloc@CMemoryManager@DirectSound@@CGXPAUDSMEMTRACK@@@Z 005e78ca f   dsoundd:dscommon.obj
 0005:00012f40       ?TrackingPoolAlloc@CMemoryManager@DirectSound@@SGPAXPBDK0W4DSOUND_POOL_TAG@@KH@Z 005e7920 f   dsoundd:dscommon.obj
 0005:00012f93       ?TrackingPoolFree@CMemoryManager@DirectSound@@SGXPAX@Z 005e7973 f   dsoundd:dscommon.obj
 0005:00012fb7       ?TrackingPhysicalAlloc@CMemoryManager@DirectSound@@SGPAXPBDK0KKKH@Z 005e7997 f   dsoundd:dscommon.obj
 0005:00013022       ?TrackingPhysicalFree@CMemoryManager@DirectSound@@SGXPAX@Z 005e7a02 f   dsoundd:dscommon.obj
 0005:000130c9       ?TrackingMemAlloc@CMemoryManager@DirectSound@@SGPAXPBDK0W4DSOUND_POOL_TAG@@KH@Z 005e7aa9 f   dsoundd:dscommon.obj
 0005:00013116       ?TrackingMemFree@CMemoryManager@DirectSound@@SGXPAX@Z 005e7af6 f   dsoundd:dscommon.obj
 0005:0001313a       ?DumpTrackingList@CMemoryManager@DirectSound@@CGXPAU_LIST_ENTRY@@@Z 005e7b1a f   dsoundd:dscommon.obj
 0005:000131f0       ?CreateInternalFormat@WaveFormat@DirectSound@@YGKPAUDSWAVEFORMAT@@PBUtWAVEFORMATEX@@@Z 005e7bd0 f   dsoundd:dscommon.obj
 0005:000132ae       ?IsValidFormat@WaveFormat@DirectSound@@YGHPBUtWAVEFORMATEX@@@Z 005e7c8e f   dsoundd:dscommon.obj
 0005:00013353       ?GetAiffLoopRegion@CWaveFile@WaveLoaderFoo@@IAEJPAK0@Z 005e7d33 f   dsoundd:dscommon.obj
 0005:000136ed       ?Close@CWaveFile@WaveLoaderFoo@@QAEXXZ 005e80cd f   dsoundd:dscommon.obj
 0005:0001370e       ?ConvertAiffPcm@CWaveFile@WaveLoaderFoo@@QAEXPAXK@Z 005e80ee f   dsoundd:dscommon.obj
 0005:00013783       ?Open@CWaveFileWriter@WaveLoaderFoo@@QAEJPBDPBUtWAVEFORMATEX@@KKKK@Z 005e8163 f   dsoundd:dscommon.obj
 0005:00013834       ?CreateWaveHeader@CWaveFileWriter@WaveLoaderFoo@@SGJPBUtWAVEFORMATEX@@KPAPAXPAK@Z 005e8214 f   dsoundd:dscommon.obj
 0005:000138af       ?DumpMemoryUsage@CMemoryManager@DirectSound@@SGXH@Z 005e828f f   dsoundd:dscommon.obj
 0005:00013bc1       ??1CWaveFile@WaveLoaderFoo@@QAE@XZ 005e85a1 f   dsoundd:dscommon.obj
 0005:00013bd5       ?Open@CWaveFile@WaveLoaderFoo@@IAEJPBDPAX@Z 005e85b5 f   dsoundd:dscommon.obj
 0005:00013f74       ?GetLoopRegion@CWaveFile@WaveLoaderFoo@@QAEJPAK0@Z 005e8954 f   dsoundd:dscommon.obj
 0005:00014049       ?ReadSample@CWaveFile@WaveLoaderFoo@@QAEJKPAXKPAK@Z 005e8a29 f   dsoundd:dscommon.obj
 0005:000140a4       ?Close@CWaveFileWriter@WaveLoaderFoo@@QAEJXZ 005e8a84 f   dsoundd:dscommon.obj
 0005:00014137       ??_GCImaAdpcmCodec@DirectSound@@UAEPAXI@Z 005e8b17 f i dsoundd:dscommon.obj
 0005:00014137       ??_ECImaAdpcmCodec@DirectSound@@UAEPAXI@Z 005e8b17 f i dsoundd:dscommon.obj
 0005:000141ab       _fabsf@4                   005e8b8b f i dsoundd:hrtf.obj
 0005:000141ba       _sqrtf@4                   005e8b9a f i dsoundd:hrtf.obj
 0005:000141c9       ?sqrt@@YAMM@Z              005e8ba9 f i dsoundd:hrtf.obj
 0005:000141e0       ?MagnitudeVector3@Math@DirectSound@@YGMPBU_D3DVECTOR@@@Z 005e8bc0 f i dsoundd:hrtf.obj
 0005:00014214       ?MagnitudeVector2@Math@DirectSound@@YGMMM@Z 005e8bf4 f i dsoundd:hrtf.obj
 0005:00014230       ?MetersToVolume@Math@DirectSound@@YGJM@Z 005e8c10 f i dsoundd:hrtf.obj
 0005:00014277       ?PowerToVolume@Math@DirectSound@@YGJM@Z 005e8c57 f i dsoundd:hrtf.obj
 0005:000142d3       ?CalcNormOrient@CFullHRTFListener@DirectSound@@SGXABU_D3DVECTOR@@0PAU3@@Z 005e8cb3 f   dsoundd:hrtf.obj
 0005:00014320       ?CalcNormPos@CFullHRTFSource@DirectSound@@SGXKABU_D3DVECTOR@@0PAU3@PAM@Z 005e8d00 f   dsoundd:hrtf.obj
 0005:000143a7       ?CalcPolarCoords@CFullHRTFSource@DirectSound@@SGXKABU_D3DVECTOR@@000MPAM1@Z 005e8d87 f   dsoundd:hrtf.obj
 0005:00014681       ?CalcConeAngle@CFullHRTFSource@DirectSound@@SGXABU_D3DVECTOR@@0PAM@Z 005e9061 f   dsoundd:hrtf.obj
 0005:0001480a       ?CalcRelativeVelocity@CFullHRTFSource@DirectSound@@SGXKABU_D3DVECTOR@@00PAM@Z 005e91ea f   dsoundd:hrtf.obj
 0005:00014897       ?GetDistanceVolume@CFullHRTFSource@DirectSound@@SGXMMMPBMKMHPAJ@Z 005e9277 f   dsoundd:hrtf.obj
 0005:00014a0e       ?GetConeVolume@CFullHRTFSource@DirectSound@@SGXKKJMPAJ@Z 005e93ee f   dsoundd:hrtf.obj
 0005:00014af0       ?GetFrontRearVolume@CFullHRTFSource@DirectSound@@SGXMMMMHPAJ0@Z 005e94d0 f   dsoundd:hrtf.obj
 0005:00014bf2       ?GetCenterVolume@CFullHRTFSource@DirectSound@@SGXMMPAJ0@Z 005e95d2 f   dsoundd:hrtf.obj
 0005:00014cbc       ?GetDopplerPitch@CFullHRTFSource@DirectSound@@SGXMMMPAJ@Z 005e969c f   dsoundd:hrtf.obj
 0005:00014d53       ?GetFilterPair@CFullHRTFSource@DirectSound@@SGXMMHPAUHRTFFILTERPAIR@@@Z 005e9733 f   dsoundd:hrtf.obj
 0005:00014fb7       ?CalcNormPos@CLightHRTFSource@DirectSound@@SGXKABU_D3DVECTOR@@0PAU3@PAM@Z 005e9997 f   dsoundd:hrtf.obj
 0005:0001502f       ?CalcPolarCoords@CLightHRTFSource@DirectSound@@SGXKABU_D3DVECTOR@@000MPAM1@Z 005e9a0f f   dsoundd:hrtf.obj
 0005:000151e9       ?GetFrontRearVolume@CLightHRTFSource@DirectSound@@SGXMMMMHPAJ0@Z 005e9bc9 f   dsoundd:hrtf.obj
 0005:000152cd       ?GetCenterVolume@CLightHRTFSource@DirectSound@@SGXMMPAJ0@Z 005e9cad f   dsoundd:hrtf.obj
 0005:00015350       ?GetFilterPair@CLightHRTFSource@DirectSound@@SGXMMHPAUHRTFFILTERPAIR@@@Z 005e9d30 f   dsoundd:hrtf.obj
 0005:000154d6       ?SetFullHRTF5Channel@CHRTFSource@DirectSound@@SGXXZ 005e9eb6 f   dsoundd:hrtf.obj
 0005:00015560       ?SetLightHRTF5Channel@CHRTFSource@DirectSound@@SGXXZ 005e9f40 f   dsoundd:hrtf.obj
 0005:000155ea       ?GetCenterVolumeStub@CHRTFSource@DirectSound@@CGXMMPAJ0@Z 005e9fca f   dsoundd:hrtf.obj
 0005:00015605       ?SetFullHRTF4Channel@CHRTFSource@DirectSound@@SGXXZ 005e9fe5 f   dsoundd:hrtf.obj
 0005:0001568f       ?SetLightHRTF4Channel@CHRTFSource@DirectSound@@SGXXZ 005ea06f f   dsoundd:hrtf.obj
 0005:00015771       ?GetScratchSpaceLinAddr@CMcpxDspScratchDma@DirectSound@@QAEPAXXZ 005ea151 f i dsoundd:gpdsp.obj
 0005:00015777       ?GetFxScratchSpaceLinAddr@CMcpxDspScratchDma@DirectSound@@QAEPAXXZ 005ea157 f i dsoundd:gpdsp.obj
 0005:0001577b       ??0CMcpxDspImage@DirectSound@@QAE@XZ 005ea15b f i dsoundd:gpdsp.obj
 0005:00015787       ?GetLoader@CMcpxDspImage@DirectSound@@QAEPAXXZ 005ea167 f i dsoundd:gpdsp.obj
 0005:0001578a       ?GetLoaderSize@CMcpxDspImage@DirectSound@@QAEKXZ 005ea16a f i dsoundd:gpdsp.obj
 0005:0001578e       ?Initialize@CMcpxDspImage@DirectSound@@QAEXXZ 005ea16e f   dsoundd:gpdsp.obj
 0005:0001579f       ??0CMcpxGPDspManager@DirectSound@@QAE@XZ 005ea17f f   dsoundd:gpdsp.obj
 0005:000157c5       ??_GCMcpxDspScratchDma@DirectSound@@QAEPAXI@Z 005ea1a5 f i dsoundd:gpdsp.obj
 0005:000157eb       ?Initialize@CMcpxGPDspManager@DirectSound@@QAEXXZ 005ea1cb f   dsoundd:gpdsp.obj
 0005:0001591c       ?RestoreCommandBlock@CMcpxGPDspManager@DirectSound@@QAEXXZ 005ea2fc f   dsoundd:gpdsp.obj
 0005:00015946       ?ParseEffectImageInfo@CMcpxGPDspManager@DirectSound@@IAEJPBX@Z 005ea326 f   dsoundd:gpdsp.obj
 0005:00015b9e       ?GetEffectMap@CMcpxGPDspManager@DirectSound@@QAEJKPAPBU_DSEFFECTMAP@@@Z 005ea57e f   dsoundd:gpdsp.obj
 0005:00015c53       ?CommitChanges@CMcpxGPDspManager@DirectSound@@QAEXKK@Z 005ea633 f   dsoundd:gpdsp.obj
 0005:00015d05       ?AC3SetOutputBuffer@CMcpxGPDspManager@DirectSound@@QAEXPAUMCPX_ALLOC_CONTEXT@@K@Z 005ea6e5 f   dsoundd:gpdsp.obj
 0005:00015d20       ?SetMultipassBuffer@CMcpxGPDspManager@DirectSound@@QAEXPAUMCPX_ALLOC_CONTEXT@@K@Z 005ea700 f   dsoundd:gpdsp.obj
 0005:00015d3f       ??1CMcpxGPDspManager@DirectSound@@QAE@XZ 005ea71f f   dsoundd:gpdsp.obj
 0005:00015d88       ?DownloadEffectsImage@CMcpxGPDspManager@DirectSound@@QAEJPBXKPAPAU_DSEFFECTIMAGEDESC@@@Z 005ea768 f   dsoundd:gpdsp.obj
 0005:00015ee1       ?SetEffectData@CMcpxGPDspManager@DirectSound@@QAEJKKPBXKK@Z 005ea8c1 f   dsoundd:gpdsp.obj
 0005:0001604c       ?GetEffectData@CMcpxGPDspManager@DirectSound@@QAEJKKPAXK@Z 005eaa2c f   dsoundd:gpdsp.obj
 0005:00016167       ?MoveEntryTailList@@YGPAU_LIST_ENTRY@@PAU1@0@Z 005eab47 f i dsoundd:mcpapu.obj
 0005:000161e2       ?BlockIdleHandler@CMcpxAPU@DirectSound@@QAEXXZ 005eabc2 f i dsoundd:mcpapu.obj
 0005:00016243       ?UnblockIdleHandler@CMcpxAPU@DirectSound@@QAEXXZ 005eac23 f i dsoundd:mcpapu.obj
 0005:000162a8       ?ScheduleApuInterruptDpc@CMcpxAPU@DirectSound@@IAEXXZ 005eac88 f i dsoundd:mcpapu.obj
 0005:000162be       ??0CMcpxAPU@DirectSound@@QAE@PAVCDirectSoundSettings@1@@Z 005eac9e f   dsoundd:mcpapu.obj
 0005:0001637f       ?Terminate@CMcpxAPU@DirectSound@@IAEXXZ 005ead5f f   dsoundd:mcpapu.obj
 0005:000163fa       ?AllocateVoices@CMcpxAPU@DirectSound@@QAEJPAVCMcpxVoiceClient@2@@Z 005eadda f   dsoundd:mcpapu.obj
 0005:0001660c       ?FreeVoices@CMcpxAPU@DirectSound@@QAEXPAVCMcpxVoiceClient@2@@Z 005eafec f   dsoundd:mcpapu.obj
 0005:0001672e       ?WaitForMagicWrite@CMcpxAPU@DirectSound@@IAEXXZ 005eb10e f   dsoundd:mcpapu.obj
 0005:000167de       ?ServiceVoiceInterrupt@CMcpxAPU@DirectSound@@IAEXXZ 005eb1be f   dsoundd:mcpapu.obj
 0005:00016880       ?GetInterruptStatusCallback@CMcpxAPU@DirectSound@@CGEPAX@Z 005eb260 f   dsoundd:mcpapu.obj
 0005:000168b7       ?HandleDeltaWarning@CMcpxAPU@DirectSound@@IAEXXZ 005eb297 f   dsoundd:mcpapu.obj
 0005:000168d7       ?HandleDeltaPanic@CMcpxAPU@DirectSound@@IAEXXZ 005eb2b7 f   dsoundd:mcpapu.obj
 0005:00016960       ?HandleIdleVoice@CMcpxAPU@DirectSound@@IAEXK@Z 005eb340 f   dsoundd:mcpapu.obj
 0005:000169e9       ?ScheduleDeferredCommandLow@CMcpxAPU@DirectSound@@IAEHPAUMCPX_DEFERRED_COMMAND@@@Z 005eb3c9 f   dsoundd:mcpapu.obj
 0005:00016a98       ?RemoveDeferredCommandHigh@CMcpxAPU@DirectSound@@IAEXPAUMCPX_DEFERRED_COMMAND@@@Z 005eb478 f   dsoundd:mcpapu.obj
 0005:00016b8d       ?RemoveDeferredCommandLow@CMcpxAPU@DirectSound@@IAEXPAUMCPX_DEFERRED_COMMAND@@@Z 005eb56d f   dsoundd:mcpapu.obj
 0005:00016c19       ?ServiceDeferredCommandsHigh@CMcpxAPU@DirectSound@@IAEXXZ 005eb5f9 f   dsoundd:mcpapu.obj
 0005:00016d39       ?ServiceDeferredCommandsLow@CMcpxAPU@DirectSound@@IAEXXZ 005eb719 f   dsoundd:mcpapu.obj
 0005:00016e60       ?SetHRTFHeadroom@CMcpxAPU@DirectSound@@QAEJK@Z 005eb840 f   dsoundd:mcpapu.obj
 0005:00016eee       ?SetMixBinHeadroom@CMcpxAPU@DirectSound@@QAEJK@Z 005eb8ce f   dsoundd:mcpapu.obj
 0005:00016f8e       ?SetSpeakerConfig@CMcpxAPU@DirectSound@@QAEJXZ 005eb96e f   dsoundd:mcpapu.obj
 0005:00016ffa       ?AddSynchVoice@CMcpxAPU@DirectSound@@QAEJPAVCMcpxVoiceClient@2@@Z 005eb9da f   dsoundd:mcpapu.obj
 0005:000170c0       ?RemoveSynchVoice@CMcpxAPU@DirectSound@@QAEXPAVCMcpxVoiceClient@2@@Z 005ebaa0 f   dsoundd:mcpapu.obj
 0005:00017157       ?SynchPlayback@CMcpxAPU@DirectSound@@QAEJXZ 005ebb37 f   dsoundd:mcpapu.obj
 0005:0001738f       ?CommitI3DL2Listener@CMcpxAPU@DirectSound@@QAEXXZ 005ebd6f f   dsoundd:mcpapu.obj
 0005:000174a3       ?DeferredCommandDpcRoutine@CMcpxAPU@DirectSound@@CGXPAU_KDPC@@PAX11@Z 005ebe83 f i dsoundd:mcpapu.obj
 0005:000174b5       ?ApuShutdownNotifier@CMcpxAPU@DirectSound@@CGXPAU_HAL_SHUTDOWN_REGISTRATION@@@Z 005ebe95 f i dsoundd:mcpapu.obj
 0005:000174db       ??1CMcpxAPU@DirectSound@@UAE@XZ 005ebebb f   dsoundd:mcpapu.obj
 0005:000175e1       ?ServiceApuInterruptDpc@CMcpxAPU@DirectSound@@IAEXXZ 005ebfc1 f   dsoundd:mcpapu.obj
 0005:0001762f       ?HandleSoftwareMethod@CMcpxAPU@DirectSound@@IAEXKK@Z 005ec00f f   dsoundd:mcpapu.obj
 0005:00017689       ?RemoveDeferredCommand@CMcpxAPU@DirectSound@@QAEXPAUMCPX_DEFERRED_COMMAND@@@Z 005ec069 f   dsoundd:mcpapu.obj
 0005:000176de       ?ApuInterruptDpcRoutine@CMcpxAPU@DirectSound@@CGXPAU_KDPC@@PAX11@Z 005ec0be f i dsoundd:mcpapu.obj
 0005:000176f0       ??_ECMcpxAPU@DirectSound@@UAEPAXI@Z 005ec0d0 f i dsoundd:mcpapu.obj
 0005:000176f0       ??_GCMcpxAPU@DirectSound@@UAEPAXI@Z 005ec0d0 f i dsoundd:mcpapu.obj
 0005:00017715       ?HandleFETrap@CMcpxAPU@DirectSound@@IAEXXZ 005ec0f5 f   dsoundd:mcpapu.obj
 0005:000179f5       ?ScheduleDeferredCommandHigh@CMcpxAPU@DirectSound@@IAEHPAUMCPX_DEFERRED_COMMAND@@@Z 005ec3d5 f   dsoundd:mcpapu.obj
 0005:00017b85       ?ServiceApuInterrupt@CMcpxAPU@DirectSound@@IAEHXZ 005ec565 f   dsoundd:mcpapu.obj
 0005:00017c39       ?ScheduleDeferredCommand@CMcpxAPU@DirectSound@@QAEHPAUMCPX_DEFERRED_COMMAND@@@Z 005ec619 f   dsoundd:mcpapu.obj
 0005:00017c91       ?ApuInterruptServiceRoutine@CMcpxAPU@DirectSound@@CGEPAU_KINTERRUPT@@PAX@Z 005ec671 f i dsoundd:mcpapu.obj
 0005:00017ca3       ?Initialize@CMcpxAPU@DirectSound@@QAEJXZ 005ec683 f   dsoundd:mcpapu.obj
 0005:00017e0c       ?XMOAcceptPacket@@YGXPBU_XMEDIAPACKET@@@Z 005ec7ec f i dsoundd:mcpstrm.obj
 0005:00017e35       ?XMOCompletePacket@@YGXPBU_XMEDIAPACKET@@KP6GXPAX1K@Z1K@Z 005ec815 f i dsoundd:mcpstrm.obj
 0005:00017e8a       ?MoveHeadTailList@@YGPAU_LIST_ENTRY@@PAU1@0@Z 005ec86a f i dsoundd:mcpstrm.obj
 0005:00017ecf       ?GetStatus@CMcpxNotifier@DirectSound@@QAEHK@Z 005ec8af f i dsoundd:mcpstrm.obj
 0005:00017f63       ?SetStatus@CMcpxNotifier@DirectSound@@QAEXKH@Z 005ec943 f i dsoundd:mcpstrm.obj
 0005:00017fd9       ?IsEnvelopeActive@CMcpxNotifier@DirectSound@@QAEHK@Z 005ec9b9 f i dsoundd:mcpstrm.obj
 0005:00018034       ?BytesToSamples@CMcpxVoiceClient@DirectSound@@IAEKK@Z 005eca14 f i dsoundd:mcpstrm.obj
 0005:00018099       ?SamplesToBytes@CMcpxVoiceClient@DirectSound@@IAEKK@Z 005eca79 f i dsoundd:mcpstrm.obj
 0005:000180fb       ?GetSslBase@CMcpxStream@DirectSound@@IAEKKK@Z 005ecadb f i dsoundd:mcpstrm.obj
 0005:00018119       ?AllocateStreamResources@CMcpxStream@DirectSound@@IAEJXZ 005ecaf9 f i dsoundd:mcpstrm.obj
 0005:0001811e       ?HasPendingData@CMcpxStream@DirectSound@@QAEHXZ 005ecafe f i dsoundd:mcpstrm.obj
 0005:0001813c       ?Initialize@CMcpxStream@DirectSound@@QAEJXZ 005ecb1c f   dsoundd:mcpstrm.obj
 0005:00018228       ?Stop@CMcpxStream@DirectSound@@QAEJK@Z 005ecc08 f   dsoundd:mcpstrm.obj
 0005:000182df       ?GetStatus@CMcpxStream@DirectSound@@QAEJPAK@Z 005eccbf f   dsoundd:mcpstrm.obj
 0005:00018353       ?OnEndOfStream@CMcpxStream@DirectSound@@IAEXXZ 005ecd33 f   dsoundd:mcpstrm.obj
 0005:00018485       ?MapPacket@CMcpxStream@DirectSound@@IAEKKPAUMCPX_PACKET_CONTEXT@@@Z 005ece65 f   dsoundd:mcpstrm.obj
 0005:000187d2       ?CommitSsl@CMcpxStream@DirectSound@@IAEXK@Z 005ed1b2 f   dsoundd:mcpstrm.obj
 0005:000189db       ?CompletePacket@CMcpxStream@DirectSound@@IAEXPAUMCPX_PACKET_CONTEXT@@K@Z 005ed3bb f   dsoundd:mcpstrm.obj
 0005:00018a95       ?ReleaseStreamResources@CMcpxStream@DirectSound@@IAEXXZ 005ed475 f   dsoundd:mcpstrm.obj
 0005:00018ae5       ?ScheduleDeferredCommand@CMcpxStream@DirectSound@@MAEHK_JK@Z 005ed4c5 f   dsoundd:mcpstrm.obj
 0005:00018b94       ?RemoveDeferredCommand@CMcpxStream@DirectSound@@MAEXK@Z 005ed574 f   dsoundd:mcpstrm.obj
 0005:00018c30       ??$__AddRef@VCDirectSoundStreamSettings@DirectSound@@@DirectSound@@YGPAVCDirectSoundStreamSettings@0@PAV10@@Z 005ed610 f i dsoundd:mcpstrm.obj
 0005:00018c4e       ??0CMcpxStream@DirectSound@@QAE@PAVCMcpxAPU@1@PAVCDirectSoundStreamSettings@1@@Z 005ed62e f   dsoundd:mcpstrm.obj
 0005:00018d25       ?Stop@CMcpxStream@DirectSound@@QAEJ_JK@Z 005ed705 f   dsoundd:mcpstrm.obj
 0005:00018d6c       ?MapPackets@CMcpxStream@DirectSound@@IAEHK@Z 005ed74c f   dsoundd:mcpstrm.obj
 0005:00018e6e       ?CompletePackets@CMcpxStream@DirectSound@@IAEXPAU_LIST_ENTRY@@K@Z 005ed84e f   dsoundd:mcpstrm.obj
 0005:00018f3b       ?CompleteDeferredPackets@CMcpxStream@DirectSound@@IAEXXZ 005ed91b f   dsoundd:mcpstrm.obj
 0005:00018f6d       ?Discontinuity@CMcpxStream@DirectSound@@QAEJXZ 005ed94d f   dsoundd:mcpstrm.obj
 0005:00018fa5       ?CompleteSsl@CMcpxStream@DirectSound@@IAEXKK@Z 005ed985 f   dsoundd:mcpstrm.obj
 0005:0001919e       ?Flush@CMcpxStream@DirectSound@@IAEXH@Z 005edb7e f   dsoundd:mcpstrm.obj
 0005:000192e1       ?OnDeferredFlush@CMcpxStream@DirectSound@@IAEXXZ 005edcc1 f   dsoundd:mcpstrm.obj
 0005:00019361       ?Process@CMcpxStream@DirectSound@@IAEKXZ 005edd41 f   dsoundd:mcpstrm.obj
 0005:00019501       ?ServiceVoiceInterrupt@CMcpxStream@DirectSound@@MAEHXZ 005edee1 f   dsoundd:mcpstrm.obj
 0005:00019697       ??1CMcpxStream@DirectSound@@UAE@XZ 005ee077 f   dsoundd:mcpstrm.obj
 0005:0001970b       ?SetFormat@CMcpxStream@DirectSound@@UAEJXZ 005ee0eb f   dsoundd:mcpstrm.obj
 0005:00019879       ?SubmitPacket@CMcpxStream@DirectSound@@QAEJABU_XMEDIAPACKET@@@Z 005ee259 f   dsoundd:mcpstrm.obj
 0005:00019a81       ?Pause@CMcpxStream@DirectSound@@QAEJK@Z 005ee461 f   dsoundd:mcpstrm.obj
 0005:00019b55       ?Pause@CMcpxStream@DirectSound@@QAEJ_JK@Z 005ee535 f   dsoundd:mcpstrm.obj
 0005:00019b9c       ?ServiceDeferredCommand@CMcpxStream@DirectSound@@MAEXKK@Z 005ee57c f   dsoundd:mcpstrm.obj
 0005:00019c1c       ??_ECMcpxStream@DirectSound@@UAEPAXI@Z 005ee5fc f i dsoundd:mcpstrm.obj
 0005:00019c1c       ??_GCMcpxStream@DirectSound@@UAEPAXI@Z 005ee5fc f i dsoundd:mcpstrm.obj
 0005:00019c41       ?MagnitudeVector3@Math@DirectSound@@YGNNNN@Z 005ee621 f i dsoundd:dsmath.obj
 0005:00019c67       ?MagnitudeVector2@Math@DirectSound@@YGNNN@Z 005ee647 f i dsoundd:dsmath.obj
 0005:00019c83       ?MagnitudeVector2@Math@DirectSound@@YGMPBU_D3DVECTOR@@@Z 005ee663 f i dsoundd:dsmath.obj
 0005:00019ca9       ?NormalizeDouble@Math@DirectSound@@YGNN@Z 005ee689 f   dsoundd:dsmath.obj
 0005:00019d7c       ?NormalizeFloat@Math@DirectSound@@YGMM@Z 005ee75c f   dsoundd:dsmath.obj
 0005:00019e4f       ?NormalizeVector3@Math@DirectSound@@YGNPAU_D3DVECTOR@@NNN@Z 005ee82f f   dsoundd:dsmath.obj
 0005:00019f87       ?NormalizeVector3@Math@DirectSound@@YGMPAU_D3DVECTOR@@PBU3@@Z 005ee967 f   dsoundd:dsmath.obj
 0005:0001a0aa       ?NormalizeVector3@Math@DirectSound@@YGMPAU_D3DVECTOR@@@Z 005eea8a f   dsoundd:dsmath.obj
 0005:0001a19c       ?NormalizeVector2@Math@DirectSound@@YGNPAU_D3DVECTOR@@NN@Z 005eeb7c f   dsoundd:dsmath.obj
 0005:0001a28f       ?NormalizeVector2@Math@DirectSound@@YGMPAU_D3DVECTOR@@PBU3@@Z 005eec6f f   dsoundd:dsmath.obj
 0005:0001a375       ?NormalizeVector2@Math@DirectSound@@YGMPAU_D3DVECTOR@@@Z 005eed55 f   dsoundd:dsmath.obj
 0005:0001a43b       ?RatioToPitch@Math@DirectSound@@YGJM@Z 005eee1b f   dsoundd:dsmath.obj
 0005:0001a4b8       ?MatrixRotationAxis@Math@DirectSound@@YGPAU_D3DMATRIX@@PAU3@PBU_D3DVECTOR@@M@Z 005eee98 f   dsoundd:dsmath.obj
 0005:0001a617       ?Vec3Transform@Math@DirectSound@@YGPAU_VECTOR4@@PAU3@PBU_D3DVECTOR@@PBU_D3DMATRIX@@@Z 005eeff7 f   dsoundd:dsmath.obj
 0005:0001a6cf       ?InsertHeadList@@YGXPAU_LIST_ENTRY@@0@Z 005ef0af f i dsoundd:mcpvoice.obj
 0005:0001a73c       ?GetFilterPair@CHRTFSource@DirectSound@@SGXMMHPAUHRTFFILTERPAIR@@@Z 005ef11c f i dsoundd:mcpvoice.obj
 0005:0001a766       ?Free@CMcpxNotifier@DirectSound@@QAEXXZ 005ef146 f i dsoundd:mcpvoice.obj
 0005:0001a770       ?Reset@CMcpxNotifier@DirectSound@@QAEXXZ 005ef150 f i dsoundd:mcpvoice.obj
 0005:0001a7df       ?GetVoiceCfgFMT@CMcpxVoiceClient@DirectSound@@IAEKK@Z 005ef1bf f i dsoundd:mcpvoice.obj
 0005:0001a7f9       ?GetSubMixDestination@CMcpxVoiceClient@DirectSound@@IAEPAVCMcpxBuffer@2@XZ 005ef1d9 f i dsoundd:mcpvoice.obj
 0005:0001a88b       ?Initialize@CMcpxVoiceClient@DirectSound@@UAEJH@Z 005ef26b f   dsoundd:mcpvoice.obj
 0005:0001a968       ?SetFormat@CMcpxVoiceClient@DirectSound@@UAEJXZ 005ef348 f   dsoundd:mcpvoice.obj
 0005:0001abd1       ?ReleaseVoiceResources@CMcpxVoiceClient@DirectSound@@IAEXXZ 005ef5b1 f   dsoundd:mcpvoice.obj
 0005:0001ace6       ?ConvertMixBinValues@CMcpxVoiceClient@DirectSound@@IAEXPAK0@Z 005ef6c6 f   dsoundd:mcpvoice.obj
 0005:0001aebf       ?ConvertVolumeValues@CMcpxVoiceClient@DirectSound@@IAEXPAUMCPX_VOICE_VOLUME@@@Z 005ef89f f   dsoundd:mcpvoice.obj
 0005:0001b377       ?ConvertPitchValue@CMcpxVoiceClient@DirectSound@@IAEXPAK@Z 005efd57 f   dsoundd:mcpvoice.obj
 0005:0001b44b       ?GetAntecedentVoice@CMcpxVoiceClient@DirectSound@@AAEXPAEPAPAV12@@Z 005efe2b f   dsoundd:mcpvoice.obj
 0005:0001b4f3       ?RemoveIdleVoice@CMcpxVoiceClient@DirectSound@@AAEXH@Z 005efed3 f   dsoundd:mcpvoice.obj
 0005:0001b741       ?RemoveStuckVoice@CMcpxVoiceClient@DirectSound@@AAEXXZ 005f0121 f   dsoundd:mcpvoice.obj
 0005:0001b7bf       ?ReleaseVoice@CMcpxVoiceClient@DirectSound@@IAEXXZ 005f019f f   dsoundd:mcpvoice.obj
 0005:0001b8f1       ?CheckStuckVoice@CMcpxVoiceClient@DirectSound@@IAEXXZ 005f02d1 f   dsoundd:mcpvoice.obj
 0005:0001b9f6       ?PauseVoice@CMcpxVoiceClient@DirectSound@@IAEJK@Z 005f03d6 f   dsoundd:mcpvoice.obj
 0005:0001bbc0       ?LoadHRTFFilter@CMcpxVoiceClient@DirectSound@@QAEXPBU_DS3DCALCBUFFER@@PBU_DS3DCALCVOICEDATA@@@Z 005f05a0 f   dsoundd:mcpvoice.obj
 0005:0001be57       ?SetLFO@CMcpxVoiceClient@DirectSound@@QAEJPBU_DSLFODESC@@@Z 005f0837 f   dsoundd:mcpvoice.obj
 0005:0001c052       ?SetEG@CMcpxVoiceClient@DirectSound@@QAEJPBU_DSENVELOPEDESC@@@Z 005f0a32 f   dsoundd:mcpvoice.obj
 0005:0001c2cb       ?SetFilter@CMcpxVoiceClient@DirectSound@@QAEJPBU_DSFILTERDESC@@@Z 005f0cab f   dsoundd:mcpvoice.obj
 0005:0001c4c7       ?GetSslPosition@CMcpxVoiceClient@DirectSound@@IAEKXZ 005f0ea7 f   dsoundd:mcpvoice.obj
 0005:0001c5cc       ?GetVoiceProperties@CMcpxVoiceClient@DirectSound@@QAEJPAU_DSVOICEPROPS@@@Z 005f0fac f   dsoundd:mcpvoice.obj
 0005:0001c7f0       ??$__AddRef@VCMcpxAPU@DirectSound@@@DirectSound@@YGPAVCMcpxAPU@0@PAV10@@Z 005f11d0 f i dsoundd:mcpvoice.obj
 0005:0001c80e       ??0CMcpxNotifier@DirectSound@@QAE@XZ 005f11ee f i dsoundd:mcpvoice.obj
 0005:0001c81a       ?Initialize@CMcpxNotifier@DirectSound@@QAEXKK@Z 005f11fa f i dsoundd:mcpvoice.obj
 0005:0001c893       ?Initialize@CMcpxVoiceNotifier@DirectSound@@QAEXG@Z 005f1273 f i dsoundd:mcpvoice.obj
 0005:0001c8b3       ??0CMcpxVoiceNotifier@DirectSound@@QAE@XZ 005f1293 f i dsoundd:mcpvoice.obj
 0005:0001c8bf       ?AllocateVoiceResources@CMcpxVoiceClient@DirectSound@@IAEJXZ 005f129f f   dsoundd:mcpvoice.obj
 0005:0001cafb       ?SetMixBins@CMcpxVoiceClient@DirectSound@@QAEJXZ 005f14db f   dsoundd:mcpvoice.obj
 0005:0001cc41       ?SetVolume@CMcpxVoiceClient@DirectSound@@QAEJXZ 005f1621 f   dsoundd:mcpvoice.obj
 0005:0001cd61       ?SetPitch@CMcpxVoiceClient@DirectSound@@QAEJXZ 005f1741 f   dsoundd:mcpvoice.obj
 0005:0001ce8f       ?WaitForVoiceOff@CMcpxVoiceClient@DirectSound@@IAEXXZ 005f186f f   dsoundd:mcpvoice.obj
 0005:0001d0a8       ?Apply3dSettings@CMcpxVoiceClient@DirectSound@@QAEXXZ 005f1a88 f   dsoundd:mcpvoice.obj
 0005:0001d15d       ??0CMcpxVoiceClient@DirectSound@@QAE@PAVCMcpxAPU@1@PAVCDirectSoundVoiceSettings@1@@Z 005f1b3d f   dsoundd:mcpvoice.obj
 0005:0001d1dd       ?DeactivateVoice@CMcpxVoiceClient@DirectSound@@IAEXH@Z 005f1bbd f   dsoundd:mcpvoice.obj
 0005:0001d454       ?Commit3dSettings@CMcpxVoiceClient@DirectSound@@QAEXXZ 005f1e34 f   dsoundd:mcpvoice.obj
 0005:0001d57b       ?ConnectVoice@CMcpxVoiceClient@DirectSound@@QAEJXZ 005f1f5b f   dsoundd:mcpvoice.obj
 0005:0001d79c       ?DisconnectVoice@CMcpxVoiceClient@DirectSound@@QAEJXZ 005f217c f   dsoundd:mcpvoice.obj
 0005:0001d9a0       ??1CMcpxVoiceClient@DirectSound@@UAE@XZ 005f2380 f   dsoundd:mcpvoice.obj
 0005:0001da5c       ?ActivateVoice@CMcpxVoiceClient@DirectSound@@IAEXXZ 005f243c f   dsoundd:mcpvoice.obj
 0005:0001df98       ??_ECMcpxVoiceClient@DirectSound@@UAEPAXI@Z 005f2978 f i dsoundd:mcpvoice.obj
 0005:0001df98       ??_GCMcpxVoiceClient@DirectSound@@UAEPAXI@Z 005f2978 f i dsoundd:mcpvoice.obj
 0005:0001dfbd       ?log10@@YAMM@Z             005f299d f i dsoundd:i3dl2.obj
 0005:0001e0cf       ?SetSize@CI3DL2Listener@DirectSound@@AAEXM@Z 005f2aaf f   dsoundd:i3dl2.obj
 0005:0001e21c       ?SetReflectionsGain@CI3DL2Listener@DirectSound@@AAEXM@Z 005f2bfc f   dsoundd:i3dl2.obj
 0005:0001e2b5       ?SetReflectionsDelay@CI3DL2Listener@DirectSound@@AAEXM@Z 005f2c95 f   dsoundd:i3dl2.obj
 0005:0001e31f       ?SetReverbGain@CI3DL2Listener@DirectSound@@AAEXM@Z 005f2cff f   dsoundd:i3dl2.obj
 0005:0001e3ad       ?SetReverbDelay@CI3DL2Listener@DirectSound@@AAEXM@Z 005f2d8d f   dsoundd:i3dl2.obj
 0005:0001e568       ?SetDiffusion@CI3DL2Listener@DirectSound@@AAEXM@Z 005f2f48 f   dsoundd:i3dl2.obj
 0005:0001e6d1       ?Initialize@CI3DL2Listener@DirectSound@@AAEXXZ 005f30b1 f   dsoundd:i3dl2.obj
 0005:0001e731       ?Get1PoleLoPass@CI3DL2Listener@DirectSound@@AAEXJJMMPAM0@Z 005f3111 f   dsoundd:i3dl2.obj
 0005:0001e8a6       ?Get1PoleLoPass@CI3DL2Listener@DirectSound@@AAEXJJMMPAH0@Z 005f3286 f   dsoundd:i3dl2.obj
 0005:0001e912       ?Get1PoleLoPass@CI3DL2Source@DirectSound@@CGHJJMM@Z 005f32f2 f   dsoundd:i3dl2.obj
 0005:0001ea2d       ?SetInputFilter@CI3DL2Listener@DirectSound@@AAEXJM@Z 005f340d f   dsoundd:i3dl2.obj
 0005:0001eaec       ?SetDecayFilter@CI3DL2Listener@DirectSound@@AAEXPAU_DSFX_I3DL2REVERB_IIR@@KMMM@Z 005f34cc f   dsoundd:i3dl2.obj
 0005:0001ebee       ?CalculateI3DL2@CI3DL2Source@DirectSound@@SGXMMMPBU_DS3DCALCI3DL2BUFFER@@PAJ1PAH2@Z 005f35ce f   dsoundd:i3dl2.obj
 0005:0001eda2       ?SetDecayTimes@CI3DL2Listener@DirectSound@@AAEXMMM@Z 005f3782 f   dsoundd:i3dl2.obj
 0005:0001ef7e       ?CalculateI3DL2@CI3DL2Listener@DirectSound@@QAEXPBU_DS3DCALCI3DL2LISTENER@@PAU_DSFX_I3DL2REVERB_PARAMS@@@Z 005f395e f   dsoundd:i3dl2.obj
 0005:0001f4f4       ??1CWaveFileMediaObject@DirectSound@@UAE@XZ 005f3ed4 f   dsoundd:wavexmo.obj
 0005:0001f51c       ?AddRef@CWaveFileMediaObject@DirectSound@@UAGKXZ 005f3efc f i dsoundd:wavexmo.obj
 0005:0001f533       ?Release@CWaveFileMediaObject@DirectSound@@UAGKXZ 005f3f13 f i dsoundd:wavexmo.obj
 0005:0001f54a       ?GetStatus@CWaveFileMediaObject@DirectSound@@UAGJPAK@Z 005f3f2a f i dsoundd:wavexmo.obj
 0005:0001f560       ?Discontinuity@CWaveFileMediaObject@DirectSound@@UAGJXZ 005f3f40 f i dsoundd:wavexmo.obj
 0005:0001f565       ?Flush@CWaveFileMediaObject@DirectSound@@UAGJXZ 005f3f45 f i dsoundd:wavexmo.obj
 0005:0001f57f       ?GetLength@CWaveFileMediaObject@DirectSound@@UAGJPAK@Z 005f3f5f f i dsoundd:wavexmo.obj
 0005:0001f598       ?GetFormat@CWaveFileMediaObject@DirectSound@@UAGJPAPBUtWAVEFORMATEX@@@Z 005f3f78 f i dsoundd:wavexmo.obj
 0005:0001f5b1       ?GetLoopRegion@CWaveFileMediaObject@DirectSound@@UAGJPAK0@Z 005f3f91 f i dsoundd:wavexmo.obj
 0005:0001f5cf       ?Initialize@CWaveFileMediaObject@DirectSound@@QAGJPBDPAX@Z 005f3faf f   dsoundd:wavexmo.obj
 0005:0001f5ed       ?GetInfo@CWaveFileMediaObject@DirectSound@@UAGJPAU_XMEDIAINFO@@@Z 005f3fcd f   dsoundd:wavexmo.obj
 0005:0001f61d       ?DoWork@CWaveFileMediaObject@DirectSound@@UAGXXZ 005f3ffd f   dsoundd:wavexmo.obj
 0005:0001f620       ?Process@CWaveFileMediaObject@DirectSound@@UAGJPBU_XMEDIAPACKET@@0@Z 005f4000 f   dsoundd:wavexmo.obj
 0005:0001f759       ?Seek@CWaveFileMediaObject@DirectSound@@UAGJJKPAK@Z 005f4139 f   dsoundd:wavexmo.obj
 0005:0001f79c       ?Initialize@CFileMediaObject@DirectSound@@QAGJPAXK@Z 005f417c f   dsoundd:wavexmo.obj
 0005:0001f879       ?GetInfo@CFileMediaObject@DirectSound@@UAGJPAU_XMEDIAINFO@@@Z 005f4259 f   dsoundd:wavexmo.obj
 0005:0001f8c4       ?Seek@CFileMediaObject@DirectSound@@UAGJJKPAK@Z 005f42a4 f   dsoundd:wavexmo.obj
 0005:0001f91b       ?Flush@CFileMediaObject@DirectSound@@UAGJXZ 005f42fb f   dsoundd:wavexmo.obj
 0005:0001f9ea       ?FindFreePacket@CFileMediaObject@DirectSound@@QAEHPAK@Z 005f43ca f   dsoundd:wavexmo.obj
 0005:0001fa30       ?DoWork@CFileMediaObject@DirectSound@@UAGXXZ 005f4410 f   dsoundd:wavexmo.obj
 0005:0001fb52       ?AddRef@CWaveFileMediaObject@DirectSound@@W3AGKXZ 005f4532 f i dsoundd:wavexmo.obj
 0005:0001fb5e       ?Release@CWaveFileMediaObject@DirectSound@@W3AGKXZ 005f453e f i dsoundd:wavexmo.obj
 0005:0001fb6a       ??_GCWaveFileMediaObject@DirectSound@@UAEPAXI@Z 005f454a f i dsoundd:wavexmo.obj
 0005:0001fb6a       ??_ECWaveFileMediaObject@DirectSound@@UAEPAXI@Z 005f454a f i dsoundd:wavexmo.obj
 0005:0001fb8f       ??0XFileMediaObject@@QAE@XZ 005f456f f i dsoundd:wavexmo.obj
 0005:0001fb92       ??0CFileMediaObject@DirectSound@@QAE@XZ 005f4572 f   dsoundd:wavexmo.obj
 0005:0001fbe7       ?AddRef@CFileMediaObject@DirectSound@@UAGKXZ 005f45c7 f i dsoundd:wavexmo.obj
 0005:0001fbfe       ?Release@CFileMediaObject@DirectSound@@UAGKXZ 005f45de f i dsoundd:wavexmo.obj
 0005:0001fc15       ?Discontinuity@CFileMediaObject@DirectSound@@UAGJXZ 005f45f5 f i dsoundd:wavexmo.obj
 0005:0001fc1a       ?GetLength@CFileMediaObject@DirectSound@@UAGJPAK@Z 005f45fa f i dsoundd:wavexmo.obj
 0005:0001fc34       ?AddRef@CFileMediaObject@DirectSound@@W3AGKXZ 005f4614 f i dsoundd:wavexmo.obj
 0005:0001fc40       ?Release@CFileMediaObject@DirectSound@@W3AGKXZ 005f4620 f i dsoundd:wavexmo.obj
 0005:0001fc4c       ?GetStatus@CFileMediaObject@DirectSound@@UAGJPAK@Z 005f462c f i dsoundd:wavexmo.obj
 0005:0001fc88       ??1CFileMediaObject@DirectSound@@UAE@XZ 005f4668 f   dsoundd:wavexmo.obj
 0005:0001fd3d       ?Process@CFileMediaObject@DirectSound@@UAGJPBU_XMEDIAPACKET@@0@Z 005f471d f   dsoundd:wavexmo.obj
 0005:00020047       ??0XWaveFileMediaObject@@QAE@XZ 005f4a27 f i dsoundd:wavexmo.obj
 0005:0002004a       ??_GCFileMediaObject@DirectSound@@UAEPAXI@Z 005f4a2a f i dsoundd:wavexmo.obj
 0005:0002004a       ??_ECFileMediaObject@DirectSound@@UAEPAXI@Z 005f4a2a f i dsoundd:wavexmo.obj
 0005:0002006f       ??0CWaveFileMediaObject@DirectSound@@QAE@XZ 005f4a4f f   dsoundd:wavexmo.obj
 0005:000200e7       ?ReleaseChannel@CAc97Device@DirectSound@@QAEXPAVCAc97Channel@2@@Z 005f4ac7 f i dsoundd:ac97xmo.obj
 0005:000200fc       ?Release@CAc97Channel@DirectSound@@QAEXXZ 005f4adc f i dsoundd:ac97xmo.obj
 0005:00020109       ?AttachPacket@CAc97Channel@DirectSound@@QAEXPBXK@Z 005f4ae9 f i dsoundd:ac97xmo.obj
 0005:0002012f       ??_GCAc97Device@DirectSound@@QAEPAXI@Z 005f4b0f f i dsoundd:ac97xmo.obj
 0005:00020154       ?CompletePacket@CAc97MediaObject@DirectSound@@IAEXPAUAC97PACKET@@K@Z 005f4b34 f   dsoundd:ac97xmo.obj
 0005:000201fe       ??0?$CValidObject@$0EBEDDJDH@@DirectSound@@QAE@XZ 005f4bde f i dsoundd:ac97xmo.obj
 0005:00020212       ??1?$CValidObject@$0EBEDDJDH@@DirectSound@@UAE@XZ 005f4bf2 f i dsoundd:ac97xmo.obj
 0005:00020219       ?__AssertValidObject@?$CValidObject@$0EBEDDJDH@@DirectSound@@QAEXPBDK0@Z 005f4bf9 f i dsoundd:ac97xmo.obj
 0005:00020298       ??_E?$CValidObject@$0EBEDDJDH@@DirectSound@@UAEPAXI@Z 005f4c78 f i dsoundd:ac97xmo.obj
 0005:00020298       ??_G?$CValidObject@$0EBEDDJDH@@DirectSound@@UAEPAXI@Z 005f4c78 f i dsoundd:ac97xmo.obj
 0005:000202be       ??0XAc97MediaObject@@QAE@XZ 005f4c9e f i dsoundd:ac97xmo.obj
 0005:000202c1       ?GetInfo@CAc97MediaObject@DirectSound@@UAGJPAU_XMEDIAINFO@@@Z 005f4ca1 f   dsoundd:ac97xmo.obj
 0005:000203c2       ?Flush@CAc97MediaObject@DirectSound@@UAGJXZ 005f4da2 f   dsoundd:ac97xmo.obj
 0005:000204ae       ?GetStatus@CAc97MediaObject@DirectSound@@UAGJPAK@Z 005f4e8e f   dsoundd:ac97xmo.obj
 0005:0002059a       ?Process@CAc97MediaObject@DirectSound@@UAGJPBU_XMEDIAPACKET@@0@Z 005f4f7a f   dsoundd:ac97xmo.obj
 0005:00020973       ?CompletePendingPackets@CAc97MediaObject@DirectSound@@IAEXXZ 005f5353 f   dsoundd:ac97xmo.obj
 0005:000209cd       ?SetMode@CAc97MediaObject@DirectSound@@UAGJK@Z 005f53ad f   dsoundd:ac97xmo.obj
 0005:00020b60       ?GetCurrentPosition@CAc97MediaObject@DirectSound@@UAGJPAK@Z 005f5540 f   dsoundd:ac97xmo.obj
 0005:00020c52       ?InterruptCallback@CAc97MediaObject@DirectSound@@CGXPAX@Z 005f5632 f i dsoundd:ac97xmo.obj
 0005:00020c64       ??0CAc97MediaObject@DirectSound@@QAE@XZ 005f5644 f   dsoundd:ac97xmo.obj
 0005:00020cb7       ?Discontinuity@CAc97MediaObject@DirectSound@@UAGJXZ 005f5697 f i dsoundd:ac97xmo.obj
 0005:00020cbc       ?AddRef@CAc97MediaObject@DirectSound@@UAGKXZ 005f569c f i dsoundd:ac97xmo.obj
 0005:00020d68       ?Release@CAc97MediaObject@DirectSound@@UAGKXZ 005f5748 f i dsoundd:ac97xmo.obj
 0005:00020e14       ?AddRef@CAc97MediaObject@DirectSound@@WM@AGKXZ 005f57f4 f i dsoundd:ac97xmo.obj
 0005:00020e20       ?Release@CAc97MediaObject@DirectSound@@WM@AGKXZ 005f5800 f i dsoundd:ac97xmo.obj
 0005:00020e2c       ??1CAc97MediaObject@DirectSound@@UAE@XZ 005f580c f   dsoundd:ac97xmo.obj
 0005:00020ee8       ?Initialize@CAc97MediaObject@DirectSound@@UAGJKP6GXPAX0K@Z0@Z 005f58c8 f   dsoundd:ac97xmo.obj
 0005:00021111       ??_GCAc97MediaObject@DirectSound@@UAEPAXI@Z 005f5af1 f i dsoundd:ac97xmo.obj
 0005:00021111       ??_ECAc97MediaObject@DirectSound@@UAEPAXI@Z 005f5af1 f i dsoundd:ac97xmo.obj
 0005:000211cf       ?RegisterCounters@CPerfMon@DirectSound@@SGXXZ 005f5baf f   dsoundd:dsperf.obj
 0005:00021229       ?UnregisterCounters@CPerfMon@DirectSound@@SGXXZ 005f5c09 f   dsoundd:dsperf.obj
 0005:0002125c       ?GetFreeDSPCycles@CPerfMon@DirectSound@@CGKKK@Z 005f5c3c f   dsoundd:dsperf.obj
 0005:00021304       ?GetFreeGPCycles@CPerfMon@DirectSound@@KGJPAT_LARGE_INTEGER@@0@Z 005f5ce4 f   dsoundd:dsperf.obj
 0005:0002132d       ?GetFreeEPCycles@CPerfMon@DirectSound@@KGJPAT_LARGE_INTEGER@@0@Z 005f5d0d f   dsoundd:dsperf.obj
 0005:00021365       ?InsertHeadListUninit@@YGXPAU_LIST_ENTRY@@0@Z 005f5d45 f i dsoundd:heap.obj
 0005:000213b6       ?CreateMarker@CMcpxBufferSgeHeap@DirectSound@@IAEPAUSGEHEAPRUNMARKER@@PAU3@GGPAU_LIST_ENTRY@@@Z 005f5d96 f i dsoundd:heap.obj
 0005:000213f0       ?CreateMarker@CMcpxSlopMemoryHeap@DirectSound@@IAEPAUSLOPRUNMARKER@@PAXKPAU_LIST_ENTRY@@@Z 005f5dd0 f i dsoundd:heap.obj
 0005:00021443       ??0CMcpxBufferSgeHeap@DirectSound@@QAE@XZ 005f5e23 f   dsoundd:heap.obj
 0005:0002146b       ??1CMcpxBufferSgeHeap@DirectSound@@UAE@XZ 005f5e4b f   dsoundd:heap.obj
 0005:00021495       ?Initialize@CMcpxBufferSgeHeap@DirectSound@@QAEJG@Z 005f5e75 f   dsoundd:heap.obj
 0005:0002154a       ?AllocRun@CMcpxBufferSgeHeap@DirectSound@@IAEPAUSGEHEAPRUNMARKER@@PAXG@Z 005f5f2a f   dsoundd:heap.obj
 0005:00021791       ?IsValidMarker@CMcpxBufferSgeHeap@DirectSound@@QAEHPAUSGEHEAPRUNMARKER@@@Z 005f6171 f   dsoundd:heap.obj
 0005:000217c5       ?CoalesceRuns@CMcpxBufferSgeHeap@DirectSound@@IAEPAUSGEHEAPRUNMARKER@@PAU3@0@Z 005f61a5 f   dsoundd:heap.obj
 0005:000218a1       ?MapBuffer@CMcpxBufferSgeHeap@DirectSound@@KGXKPAXK@Z 005f6281 f   dsoundd:heap.obj
 0005:00021a33       ?UnmapBuffer@CMcpxBufferSgeHeap@DirectSound@@KGXPAXK@Z 005f6413 f   dsoundd:heap.obj
 0005:00021ac2       ??0CMcpxSlopMemoryHeap@DirectSound@@QAE@XZ 005f64a2 f   dsoundd:heap.obj
 0005:00021b71       ??1CMcpxSlopMemoryHeap@DirectSound@@UAE@XZ 005f6551 f   dsoundd:heap.obj
 0005:00021c7b       ?AddRun@CMcpxSlopMemoryHeap@DirectSound@@QAEHPAXKK@Z 005f665b f   dsoundd:heap.obj
 0005:00021d8b       ?Alloc@CMcpxSlopMemoryHeap@DirectSound@@QAEPAXK@Z 005f676b f   dsoundd:heap.obj
 0005:00021f68       ?CoalesceRuns@CMcpxSlopMemoryHeap@DirectSound@@IAEPAUSLOPRUNMARKER@@PAU3@0@Z 005f6948 f   dsoundd:heap.obj
 0005:00022058       ??_GCMcpxBufferSgeHeap@DirectSound@@UAEPAXI@Z 005f6a38 f i dsoundd:heap.obj
 0005:00022058       ??_ECMcpxBufferSgeHeap@DirectSound@@UAEPAXI@Z 005f6a38 f i dsoundd:heap.obj
 0005:0002207d       ?Alloc@CMcpxBufferSgeHeap@DirectSound@@QAEPAUSGEHEAPRUNMARKER@@PAXK@Z 005f6a5d f   dsoundd:heap.obj
 0005:000221ab       ?FreeRun@CMcpxBufferSgeHeap@DirectSound@@IAEXPAUSGEHEAPRUNMARKER@@@Z 005f6b8b f   dsoundd:heap.obj
 0005:00022288       ??_ECMcpxSlopMemoryHeap@DirectSound@@UAEPAXI@Z 005f6c68 f i dsoundd:heap.obj
 0005:00022288       ??_GCMcpxSlopMemoryHeap@DirectSound@@UAEPAXI@Z 005f6c68 f i dsoundd:heap.obj
 0005:000222ad       ?Free@CMcpxSlopMemoryHeap@DirectSound@@QAEXPAX@Z 005f6c8d f   dsoundd:heap.obj
 0005:000223ef       ?Free@CMcpxBufferSgeHeap@DirectSound@@QAEXPAUSGEHEAPRUNMARKER@@@Z 005f6dcf f   dsoundd:heap.obj
 0005:00022479       ?MapBuffer@CMcpxBuffer@DirectSound@@IAEXK@Z 005f6e59 f   dsoundd:mcpbuf.obj
 0005:00022703       ?UnmapBuffer@CMcpxBuffer@DirectSound@@IAEXXZ 005f70e3 f   dsoundd:mcpbuf.obj
 0005:00022786       ?PlayFromCurrent@CMcpxBuffer@DirectSound@@IAEXK@Z 005f7166 f   dsoundd:mcpbuf.obj
 0005:000229e4       ?PlayFromPosition@CMcpxBuffer@DirectSound@@IAEXKK@Z 005f73c4 f   dsoundd:mcpbuf.obj
 0005:00022d15       ?Pause@CMcpxBuffer@DirectSound@@QAEJK@Z 005f76f5 f   dsoundd:mcpbuf.obj
 0005:00022dc4       ?Pause@CMcpxBuffer@DirectSound@@QAEJ_JK@Z 005f77a4 f   dsoundd:mcpbuf.obj
 0005:00022e0b       ?GetStatus@CMcpxBuffer@DirectSound@@QAEJPAK@Z 005f77eb f   dsoundd:mcpbuf.obj
 0005:00022e60       ?GetCurrentPosition@CMcpxBuffer@DirectSound@@QAEJPAK0@Z 005f7840 f   dsoundd:mcpbuf.obj
 0005:00022fad       ?ServiceVoiceInterrupt@CMcpxBuffer@DirectSound@@MAEHXZ 005f798d f   dsoundd:mcpbuf.obj
 0005:00023064       ?SetNotificationPositions@CMcpxBuffer@DirectSound@@QAEJXZ 005f7a44 f   dsoundd:mcpbuf.obj
 0005:000230cd       ?NotifyToPosition@CMcpxBuffer@DirectSound@@IAEXKH@Z 005f7aad f   dsoundd:mcpbuf.obj
 0005:000231a7       ?NotifyStop@CMcpxBuffer@DirectSound@@IAEXXZ 005f7b87 f   dsoundd:mcpbuf.obj
 0005:0002324e       ?ScheduleDeferredCommand@CMcpxBuffer@DirectSound@@MAEHK_JK@Z 005f7c2e f   dsoundd:mcpbuf.obj
 0005:000232fd       ?RemoveDeferredCommand@CMcpxBuffer@DirectSound@@MAEXK@Z 005f7cdd f   dsoundd:mcpbuf.obj
 0005:00023399       ??$__AddRef@VCDirectSoundBufferSettings@DirectSound@@@DirectSound@@YGPAVCDirectSoundBufferSettings@0@PAV10@@Z 005f7d79 f i dsoundd:mcpbuf.obj
 0005:000233b7       ?MapBuffer@CMcpxBuffer@DirectSound@@IAEXXZ 005f7d97 f i dsoundd:mcpbuf.obj
 0005:000233cd       ??0CMcpxBuffer@DirectSound@@QAE@PAVCMcpxAPU@1@PAVCDirectSoundBufferSettings@1@@Z 005f7dad f   dsoundd:mcpbuf.obj
 0005:00023441       ?MapInputBuffer@CMcpxBuffer@DirectSound@@IAEJXZ 005f7e21 f   dsoundd:mcpbuf.obj
 0005:000235d9       ?MapEffectsBuffer@CMcpxBuffer@DirectSound@@IAEXXZ 005f7fb9 f   dsoundd:mcpbuf.obj
 0005:0002374d       ?OnPositionDelta@CMcpxBuffer@DirectSound@@IAEXXZ 005f812d f   dsoundd:mcpbuf.obj
 0005:00023872       ?AllocateBufferResources@CMcpxBuffer@DirectSound@@IAEJXZ 005f8252 f   dsoundd:mcpbuf.obj
 0005:000238d3       ?Play@CMcpxBuffer@DirectSound@@QAEJK@Z 005f82b3 f   dsoundd:mcpbuf.obj
 0005:000239dd       ?SetPlayRegion@CMcpxBuffer@DirectSound@@QAEJXZ 005f83bd f   dsoundd:mcpbuf.obj
 0005:00023a74       ?SetLoopRegion@CMcpxBuffer@DirectSound@@QAEJXZ 005f8454 f   dsoundd:mcpbuf.obj
 0005:00023adf       ?Stop@CMcpxBuffer@DirectSound@@QAEJK@Z 005f84bf f   dsoundd:mcpbuf.obj
 0005:00023b95       ?SetCurrentPosition@CMcpxBuffer@DirectSound@@QAEJK@Z 005f8575 f   dsoundd:mcpbuf.obj
 0005:00023dbb       ?Initialize@CMcpxBuffer@DirectSound@@QAEJXZ 005f879b f   dsoundd:mcpbuf.obj
 0005:00023de8       ?SetBufferData@CMcpxBuffer@DirectSound@@QAEJXZ 005f87c8 f   dsoundd:mcpbuf.obj
 0005:00023ed6       ?ReleaseBufferResources@CMcpxBuffer@DirectSound@@IAEXXZ 005f88b6 f   dsoundd:mcpbuf.obj
 0005:00023f36       ?SetFormat@CMcpxBuffer@DirectSound@@UAEJXZ 005f8916 f   dsoundd:mcpbuf.obj
 0005:00023fa4       ?Play@CMcpxBuffer@DirectSound@@QAEJ_JK@Z 005f8984 f   dsoundd:mcpbuf.obj
 0005:00023feb       ?Stop@CMcpxBuffer@DirectSound@@QAEJ_JK@Z 005f89cb f   dsoundd:mcpbuf.obj
 0005:00024032       ?OnDeferredTerminate@CMcpxBuffer@DirectSound@@IAEXXZ 005f8a12 f   dsoundd:mcpbuf.obj
 0005:00024053       ??1CMcpxBuffer@DirectSound@@UAE@XZ 005f8a33 f   dsoundd:mcpbuf.obj
 0005:0002409f       ?ReleaseBufferData@CMcpxBuffer@DirectSound@@QAEJH@Z 005f8a7f f   dsoundd:mcpbuf.obj
 0005:00024119       ?ServiceDeferredCommand@CMcpxBuffer@DirectSound@@MAEXKK@Z 005f8af9 f   dsoundd:mcpbuf.obj
 0005:0002419d       ??_GCMcpxBuffer@DirectSound@@UAEPAXI@Z 005f8b7d f i dsoundd:mcpbuf.obj
 0005:0002419d       ??_ECMcpxBuffer@DirectSound@@UAEPAXI@Z 005f8b7d f i dsoundd:mcpbuf.obj
 0005:000241c2       ??0CMcpxDspScratchDma@DirectSound@@QAE@H@Z 005f8ba2 f   dsoundd:dspdma.obj
 0005:000241e6       ??1CMcpxDspScratchDma@DirectSound@@QAE@XZ 005f8bc6 f   dsoundd:dspdma.obj
 0005:0002421f       ?Initialize@CMcpxDspScratchDma@DirectSound@@QAEXK@Z 005f8bff f   dsoundd:dspdma.obj
 0005:000242fe       ?AddPages@CMcpxDspScratchDma@DirectSound@@QAEXPAUMCPX_ALLOC_CONTEXT@@KPAK@Z 005f8cde f   dsoundd:dspdma.obj
 0005:00024385       ?Copy@CMcpxDspScratchDma@DirectSound@@QAEXKPAXK@Z 005f8d65 f   dsoundd:dspdma.obj
 0005:000243b8       ?AdjustFxScratch@CMcpxDspScratchDma@DirectSound@@QAEJK@Z 005f8d98 f   dsoundd:dspdma.obj
 0005:0002454b       ?lfsr@@YGX_KPAXK@Z         005f8f2b f   dsoundd:cipher.obj
 0005:000245e2       ?rotr@@YGXPAKKE@Z          005f8fc2 f   dsoundd:cipher.obj
 0005:0002465f       ?rotl@@YGXPAKKE@Z          005f903f f   dsoundd:cipher.obj
 0005:000246df       ?XAudiopUtility_GenerateKey@@YGXPAE@Z 005f90bf f   dsoundd:cipher.obj
 0005:0002471b       ?XAudiopUtility_Decode@@YGHPAE0K0H@Z 005f90fb f   dsoundd:cipher.obj
 0005:0002481d       ?XAudiopUtility_Encode@@YGHPAE0K0H@Z 005f91fd f   dsoundd:cipher.obj
 0005:000249d6       ??_GCMcpxGPDspManager@DirectSound@@QAEPAXI@Z 005f93b6 f i dsoundd:mcpxcore.obj
 0005:000249fc       ??_GCMcpxEPDspManager@DirectSound@@QAEPAXI@Z 005f93dc f i dsoundd:mcpxcore.obj
 0005:00024a22       ?SetupVoiceProcessor@CMcpxCore@DirectSound@@IAEJXZ 005f9402 f   dsoundd:mcpxcore.obj
 0005:00024b49       ?SetupGlobalProcessor@CMcpxCore@DirectSound@@IAEJXZ 005f9529 f   dsoundd:mcpxcore.obj
 0005:00024dc0       ?SetupEncodeProcessor@CMcpxCore@DirectSound@@IAEJXZ 005f97a0 f   dsoundd:mcpxcore.obj
 0005:0002500f       ?SetupAc97@CMcpxCore@DirectSound@@IAEJXZ 005f99ef f   dsoundd:mcpxcore.obj
 0005:00025109       ?SetInterruptState@CMcpxCore@DirectSound@@IAEXH@Z 005f9ae9 f   dsoundd:mcpxcore.obj
 0005:0002514d       ?SetPrivLockState@CMcpxCore@DirectSound@@IAEXH@Z 005f9b2d f   dsoundd:mcpxcore.obj
 0005:00025191       ?SetFrontEndState@CMcpxCore@DirectSound@@IAEXW4MCPX_FE_STATE@@@Z 005f9b71 f   dsoundd:mcpxcore.obj
 0005:00025227       ?SetSetupEngineState@CMcpxCore@DirectSound@@IAEXW4MCPX_SE_STATE@@@Z 005f9c07 f   dsoundd:mcpxcore.obj
 0005:000252c5       ?GetPhysicalMemoryProperties@CMcpxCore@DirectSound@@SGKPAXKPAK1@Z 005f9ca5 f   dsoundd:mcpxcore.obj
 0005:0002538a       ?MapTransfer@CMcpxCore@DirectSound@@SGKPAPAXPAK1@Z 005f9d6a f   dsoundd:mcpxcore.obj
 0005:000253d6       ?AllocateContext@CMcpxCore@DirectSound@@SGJPAUMCPX_ALLOC_CONTEXT@@KK@Z 005f9db6 f   dsoundd:mcpxcore.obj
 0005:000254e6       ?ResetGlobalCounters@CMcpxCore@DirectSound@@IAEXXZ 005f9ec6 f   dsoundd:mcpxcore.obj
 0005:0002557e       ??$__AddRef@VCDirectSoundSettings@DirectSound@@@DirectSound@@YGPAVCDirectSoundSettings@0@PAV10@@Z 005f9f5e f i dsoundd:mcpxcore.obj
 0005:0002559c       ??$__AddRef@VCMcpxSlopMemoryHeap@DirectSound@@@DirectSound@@YGPAVCMcpxSlopMemoryHeap@0@PAV10@@Z 005f9f7c f i dsoundd:mcpxcore.obj
 0005:000255ba       ?SetupDSPs@CMcpxCore@DirectSound@@IAEJXZ 005f9f9a f i dsoundd:mcpxcore.obj
 0005:000255f1       ??0CMcpxCore@DirectSound@@QAE@PAVCDirectSoundSettings@1@@Z 005f9fd1 f   dsoundd:mcpxcore.obj
 0005:00025620       ??1CMcpxCore@DirectSound@@UAE@XZ 005fa000 f   dsoundd:mcpxcore.obj
 0005:000256e0       ?SetupFrontEndProcessor@CMcpxCore@DirectSound@@IAEJXZ 005fa0c0 f   dsoundd:mcpxcore.obj
 0005:000257e0       ?AllocateApuMemory@CMcpxCore@DirectSound@@IAEJXZ 005fa1c0 f   dsoundd:mcpxcore.obj
 0005:00025a35       ?IdleVoiceProcessor@CMcpxCore@DirectSound@@QAEHH@Z 005fa415 f   dsoundd:mcpxcore.obj
 0005:00025bd9       ??_GCMcpxCore@DirectSound@@UAEPAXI@Z 005fa5b9 f i dsoundd:mcpxcore.obj
 0005:00025bd9       ??_ECMcpxCore@DirectSound@@UAEPAXI@Z 005fa5b9 f i dsoundd:mcpxcore.obj
 0005:00025bff       ?Reset@CMcpxCore@DirectSound@@IAEXXZ 005fa5df f   dsoundd:mcpxcore.obj
 0005:00025c9b       ?Initialize@CMcpxCore@DirectSound@@QAEJXZ 005fa67b f   dsoundd:mcpxcore.obj
 0005:00025d61       ?PeekRegister8@CAc97Device@DirectSound@@KGEK@Z 005fa741 f i dsoundd:ac97.obj
 0005:00025d70       ?PokeRegister8@CAc97Device@DirectSound@@KGXKE@Z 005fa750 f i dsoundd:ac97.obj
 0005:00025d82       ?PeekRegister16@CAc97Device@DirectSound@@KGGK@Z 005fa762 f i dsoundd:ac97.obj
 0005:00025d92       ?PokeRegister16@CAc97Device@DirectSound@@KGXKG@Z 005fa772 f i dsoundd:ac97.obj
 0005:00025da7       ?PeekRegister32@CAc97Device@DirectSound@@KGKK@Z 005fa787 f i dsoundd:ac97.obj
 0005:00025db6       ?PokeRegister32@CAc97Device@DirectSound@@KGXKK@Z 005fa796 f i dsoundd:ac97.obj
 0005:00025dc8       ?PeekAciRegister8@CAc97Device@DirectSound@@KGEK@Z 005fa7a8 f i dsoundd:ac97.obj
 0005:00025ddc       ?PokeAciRegister8@CAc97Device@DirectSound@@KGXKE@Z 005fa7bc f i dsoundd:ac97.obj
 0005:00025df3       ?PeekAciRegister16@CAc97Device@DirectSound@@KGGK@Z 005fa7d3 f i dsoundd:ac97.obj
 0005:00025e08       ?PokeAciRegister16@CAc97Device@DirectSound@@KGXKG@Z 005fa7e8 f i dsoundd:ac97.obj
 0005:00025e22       ?PeekAciRegister32@CAc97Device@DirectSound@@KGKK@Z 005fa802 f i dsoundd:ac97.obj
 0005:00025e36       ?PokeAciRegister32@CAc97Device@DirectSound@@KGXKK@Z 005fa816 f i dsoundd:ac97.obj
 0005:00025e4d       ?WaitRegisterRetry@CAc97Device@DirectSound@@KGXXZ 005fa82d f i dsoundd:ac97.obj
 0005:00025e58       ?PeekAciRegister8@CAc97Channel@DirectSound@@IAEEK@Z 005fa838 f i dsoundd:ac97.obj
 0005:00025e78       ?PokeAciRegister8@CAc97Channel@DirectSound@@IAEXKE@Z 005fa858 f i dsoundd:ac97.obj
 0005:00025e9c       ?PeekAciRegister16@CAc97Channel@DirectSound@@IAEGK@Z 005fa87c f i dsoundd:ac97.obj
 0005:00025ebd       ?PokeAciRegister16@CAc97Channel@DirectSound@@IAEXKG@Z 005fa89d f i dsoundd:ac97.obj
 0005:00025ee3       ?PokeAciRegister32@CAc97Channel@DirectSound@@IAEXKK@Z 005fa8c3 f i dsoundd:ac97.obj
 0005:00025f07       ??0CAc97Device@DirectSound@@QAE@XZ 005fa8e7 f   dsoundd:ac97.obj
 0005:00025f50       ?AcquireCodecSemaphore@CAc97Device@DirectSound@@KGHXZ 005fa930 f   dsoundd:ac97.obj
 0005:00025fba       ?CodecReady@CAc97Device@DirectSound@@IAEHXZ 005fa99a f   dsoundd:ac97.obj
 0005:00026050       ?GetInterruptStatus@CAc97Device@DirectSound@@IAEKXZ 005faa30 f   dsoundd:ac97.obj
 0005:0002605b       ?SynchronizeAciInterrupt@CAc97Device@DirectSound@@IAEXXZ 005faa3b f   dsoundd:ac97.obj
 0005:00026074       ?PeekAc97Register@CAc97Device@DirectSound@@KGHW4AC97REGISTER@@PAG@Z 005faa54 f   dsoundd:ac97.obj
 0005:000260f4       ?PokeAc97Register@CAc97Device@DirectSound@@KGHW4AC97REGISTER@@G@Z 005faad4 f   dsoundd:ac97.obj
 0005:0002611a       ?VerifyPokeAc97Register@CAc97Device@DirectSound@@KGHW4AC97REGISTER@@G@Z 005faafa f   dsoundd:ac97.obj
 0005:00026157       ?PowerUp@CAc97Device@DirectSound@@IAEJXZ 005fab37 f   dsoundd:ac97.obj
 0005:000261a7       ??0CAc97Channel@DirectSound@@QAE@PAVCAc97Device@1@W4AC97CHANNELTYPE@@@Z 005fab87 f   dsoundd:ac97.obj
 0005:000261c8       ?Pause@CAc97Channel@DirectSound@@QAEXXZ 005faba8 f   dsoundd:ac97.obj
 0005:00026202       ?SetPrdIndeces@CAc97Channel@DirectSound@@IAEXEEHH@Z 005fabe2 f   dsoundd:ac97.obj
 0005:000262e1       ?SetMode@CAc97Channel@DirectSound@@QAEXK@Z 005facc1 f   dsoundd:ac97.obj
 0005:0002631e       ?GetPosition@CAc97Channel@DirectSound@@QAEKXZ 005facfe f   dsoundd:ac97.obj
 0005:00026406       ?SetPosition@CAc97Channel@DirectSound@@IAEXK@Z 005fade6 f   dsoundd:ac97.obj
 0005:000264c5       ?AciSynchronizationRoutine@CAc97Device@DirectSound@@CGEPAX@Z 005faea5 f i dsoundd:ac97.obj
 0005:000264da       ?CreateChannel@CAc97Device@DirectSound@@QAEJW4AC97CHANNELTYPE@@PAPAVCAc97Channel@2@@Z 005faeba f   dsoundd:ac97.obj
 0005:00026598       ?AttachPacket@CAc97Channel@DirectSound@@QAEXKK@Z 005faf78 f   dsoundd:ac97.obj
 0005:00026726       ?AttachBuffer@CAc97Channel@DirectSound@@QAEXKKK@Z 005fb106 f   dsoundd:ac97.obj
 0005:000267a4       ?Reset@CAc97Channel@DirectSound@@QAEXXZ 005fb184 f   dsoundd:ac97.obj
 0005:00026832       ?Flush@CAc97Channel@DirectSound@@QAEXH@Z 005fb212 f   dsoundd:ac97.obj
 0005:00026893       ?Run@CAc97Channel@DirectSound@@QAEXK@Z 005fb273 f   dsoundd:ac97.obj
 0005:0002692b       ?Initialize@CAc97Channel@DirectSound@@QAEJKP6GXPAX@Z0@Z 005fb30b f   dsoundd:ac97.obj
 0005:00026a1b       ?Terminate@CAc97Channel@DirectSound@@QAEXXZ 005fb3fb f   dsoundd:ac97.obj
 0005:00026a7c       ?Discontinuity@CAc97Channel@DirectSound@@QAEXXZ 005fb45c f   dsoundd:ac97.obj
 0005:00026aea       ?ServiceInterrupt@CAc97Channel@DirectSound@@IAEXXZ 005fb4ca f   dsoundd:ac97.obj
 0005:00026b92       ?ServiceAciInterrupt@CAc97Device@DirectSound@@IAEKXZ 005fb572 f   dsoundd:ac97.obj
 0005:00026ce1       ?ServiceAciInterruptDpc@CAc97Device@DirectSound@@IAEXXZ 005fb6c1 f   dsoundd:ac97.obj
 0005:00026d5a       ??1CAc97Channel@DirectSound@@QAE@XZ 005fb73a f   dsoundd:ac97.obj
 0005:00026d5f       ?AciInterruptServiceRoutine@CAc97Device@DirectSound@@CGEPAU_KINTERRUPT@@PAX@Z 005fb73f f i dsoundd:ac97.obj
 0005:00026d78       ?AciInterruptDpcHandler@CAc97Device@DirectSound@@CGXPAU_KDPC@@PAX11@Z 005fb758 f i dsoundd:ac97.obj
 0005:00026d8a       ??_GCAc97Channel@DirectSound@@QAEPAXI@Z 005fb76a f i dsoundd:ac97.obj
 0005:00026daf       ?ReleaseChannel@CAc97Device@DirectSound@@QAEXW4AC97CHANNELTYPE@@@Z 005fb78f f   dsoundd:ac97.obj
 0005:00026df3       ?Terminate@CAc97Device@DirectSound@@QAEXXZ 005fb7d3 f   dsoundd:ac97.obj
 0005:00026e7d       ?AciShutdownNotifier@CAc97Device@DirectSound@@CGXPAU_HAL_SHUTDOWN_REGISTRATION@@@Z 005fb85d f i dsoundd:ac97.obj
 0005:00026e93       ??1CAc97Device@DirectSound@@QAE@XZ 005fb873 f   dsoundd:ac97.obj
 0005:00026ea3       ?Initialize@CAc97Device@DirectSound@@QAEJK@Z 005fb883 f   dsoundd:ac97.obj
 0005:000270c3       ?Put@CMcpxDspScratchDma@DirectSound@@QAEXKK@Z 005fbaa3 f i dsoundd:epdsp.obj
 0005:000270e1       ?GetScratchSpacePhysAddr@CMcpxDspScratchDma@DirectSound@@QAEKXZ 005fbac1 f i dsoundd:epdsp.obj
 0005:000270e8       ?AC3GetLoaderTableBase@CMcpxEPDspManager@DirectSound@@SGKXZ 005fbac8 f i dsoundd:epdsp.obj
 0005:000270ee       ?AC3GetProgramBase@CMcpxEPDspManager@DirectSound@@SGKXZ 005fbace f i dsoundd:epdsp.obj
 0005:000270f4       ?AC3GetMaxPrograms@CMcpxEPDspManager@DirectSound@@SGKXZ 005fbad4 f i dsoundd:epdsp.obj
 0005:000270f8       ?AC3GetHeapSize@CMcpxEPDspManager@DirectSound@@SGKXZ 005fbad8 f i dsoundd:epdsp.obj
 0005:000270fe       ?AC3GetTotalScratchSize@CMcpxEPDspManager@DirectSound@@SGKXZ 005fbade f   dsoundd:epdsp.obj
 0005:00027104       ?AC3GetSuperExec@CMcpxEPDspManager@DirectSound@@SGXPAPAXPAK1@Z 005fbae4 f   dsoundd:epdsp.obj
 0005:0002712a       ?AC3GetLoader@CMcpxEPDspManager@DirectSound@@SGXPAPAXPAK1@Z 005fbb0a f   dsoundd:epdsp.obj
 0005:00027154       ?AC3GetInitialConfigTable@CMcpxEPDspManager@DirectSound@@SGPAXXZ 005fbb34 f   dsoundd:epdsp.obj
 0005:0002715a       ?AC3GetProgram@CMcpxEPDspManager@DirectSound@@SGXKPAPAXPAK@Z 005fbb3a f   dsoundd:epdsp.obj
 0005:0002721f       ??0CMcpxEPDspManager@DirectSound@@QAE@XZ 005fbbff f   dsoundd:epdsp.obj
 0005:0002722f       ?GetDolbyConfigTable@CMcpxEPDspManager@DirectSound@@QAEPAUDOLBY_CONFIG_TABLE@@XZ 005fbc0f f   dsoundd:epdsp.obj
 0005:00027233       ?AC3StartGpInput@CMcpxEPDspManager@DirectSound@@AAEXK@Z 005fbc13 f   dsoundd:epdsp.obj
 0005:00027307       ?AC3SetAnalogOutput@CMcpxEPDspManager@DirectSound@@QAEXKK@Z 005fbce7 f   dsoundd:epdsp.obj
 0005:0002737f       ?AC3SetDigitalOutput@CMcpxEPDspManager@DirectSound@@QAEXKK@Z 005fbd5f f   dsoundd:epdsp.obj
 0005:0002741b       ??1CMcpxEPDspManager@DirectSound@@QAE@XZ 005fbdfb f   dsoundd:epdsp.obj
 0005:00027435       ?Initialize@CMcpxEPDspManager@DirectSound@@QAEXPAVCMcpxGPDspManager@2@@Z 005fbe15 f   dsoundd:epdsp.obj
 0005:000288c0       ?m_wfxMixDest@CDirectSoundBufferSettings@DirectSound@@2UtWAVEFORMATEX@@B 005fd2a0     dsoundd:dsapi.obj
 0005:000288d8       ??_C@_0CB@FLABCILB@List?5entry?5contains?5NULL?5pointer@ 005fd2b8     dsoundd:dsapi.obj
 0005:00028900       ??_C@_0CG@FMEINEKN@List?5entry?5partially?5points?5to?5i@ 005fd2e0     dsoundd:dsapi.obj
 0005:00028930       ??_C@_0BD@MCAPMFFH@List?5entry?5in?5list?$AA@ 005fd310     dsoundd:dsapi.obj
 0005:00028948       ??_C@_0BI@MLBFKIOK@NULL?5list?5entry?5pointer?$AA@ 005fd328     dsoundd:dsapi.obj
 0005:00028964       ??_C@_0DH@JFNGKBAP@d?3?2xbox?2private?2windows?2directx?2@ 005fd344     dsoundd:dsapi.obj
 0005:000289a8       ??_C@_0O@GGBLDHEI@?$CBm_dwRefCount?$AA@ 005fd388     dsoundd:dsapi.obj
 0005:000289b8       ??_C@_0DJ@PIMOCPNP@d?3?2xbox?2private?2windows?2directx?2@ 005fd398     dsoundd:dsapi.obj
 0005:000289fc       ??_C@_0BE@DAEOBIBM@m_dwRefCount?5?$DM?5?$HO0UL?$AA@ 005fd3dc     dsoundd:dsapi.obj
 0005:00028a14       ??_C@_0N@OILPJBKD@m_dwRefCount?$AA@ 005fd3f4     dsoundd:dsapi.obj
 0005:00028a24       ??_C@_0DH@GCPIPEEJ@d?3?2xbox?2private?2windows?2directx?2@ 005fd404     dsoundd:dsapi.obj
 0005:00028a68       ??_C@_0BA@IANIBDAF@m_pGpDspManager?$AA@ 005fd448     dsoundd:dsapi.obj
 0005:00028a7c       ??_C@_0DH@ODBKKHLF@d?3?2xbox?2private?2windows?2directx?2@ 005fd45c     dsoundd:dsapi.obj
 0005:00028ac0       ??_C@_0CC@ONCKHILO@m_dwState?5?$CG?5MCPX_APUSTATE_GPIMAG@ 005fd4a0     dsoundd:dsapi.obj
 0005:00028ae8       ??_C@_0N@POCBACBD@ppvInterface?$AA@ 005fd4c8     dsoundd:dsapi.obj
 0005:00028af8       ??_C@_07KCKPANJI@pStream?$AA@ 005fd4d8     dsoundd:dsapi.obj
 0005:00028b04       ??_C@_0DI@KFOLDEIH@d?3?2xbox?2private?2windows?2directx?2@ 005fd4e4     dsoundd:dsapi.obj
 0005:00028b48       ??_C@_0FK@NPLJHMGG@Can?8t?5call?5DirectSoundOverrideSp@ 005fd528     dsoundd:dsapi.obj
 0005:00028bb4       ??_C@_0CN@NKDHKHKO@Can?8t?5set?5encoder?5bits?5in?5the?5sp@ 005fd594     dsoundd:dsapi.obj
 0005:00028bec       ??_C@_0BO@FIHBIBCP@Invalid?5speaker?5configuration?$AA@ 005fd5cc     dsoundd:dsapi.obj
 0005:00028c10       ??_C@_0CB@CNGMJOFG@DirectSoundOverrideSpeakerConfig@ 005fd5f0     dsoundd:dsapi.obj
 0005:00028c38       ??_C@_06JAKMBBHB@DSOUND?$AA@ 005fd618     dsoundd:dsapi.obj
 0005:00028c40       ??_C@_0BI@IPPIOPAN@Invalid?5frequency?5value?$AA@ 005fd620     dsoundd:dsapi.obj
 0005:00028c5c       ??_C@_0BF@BPPLJCKL@XAudioCalculatePitch?$AA@ 005fd63c     dsoundd:dsapi.obj
 0005:00028c84       ??_C@_07NHJFGEGF@q?5?$DO?50?40?$AA@ 005fd664     dsoundd:dsapi.obj
 0005:00028c90       ??_C@_0CA@ELGHAIJL@Failed?5to?5specify?5a?5time?5buffer?$AA@ 005fd670     dsoundd:dsapi.obj
 0005:00028cb8       ??_C@_0BG@PKIOADP@CDirectSound?3?3GetTime?$AA@ 005fd698     dsoundd:dsapi.obj
 0005:00028cd4       ??_C@_0CJ@PAFGHEFI@Failed?5to?5specify?5an?5output?5leve@ 005fd6b4     dsoundd:dsapi.obj
 0005:00028d08       ??_C@_0BO@BALLHIEJ@CDirectSound?3?3GetOutputLevels?$AA@ 005fd6e8     dsoundd:dsapi.obj
 0005:00028d2c       ??_C@_0BL@JONOPIML@m_lVolume?5?$DM?$DN?5DSBVOLUME_MAX?$AA@ 005fd70c     dsoundd:dsapi.obj
 0005:00028d50       ??_C@_0FO@NNPCJGE@Mixbin?5?$CFlu?5appears?5in?5the?5struct@ 005fd730     dsoundd:dsapi.obj
 0005:00028dc0       ??_C@_0CM@JKGAGJJA@CDirectSoundVoiceSettings?3?3SetMi@ 005fd7a0     dsoundd:dsapi.obj
 0005:00028df8       ??_C@_0EH@JCOOJHLK@pMixBins?9?$DOlpMixBinVolumePairs?$FLi?$FN@ 005fd7d8     dsoundd:dsapi.obj
 0005:00028e50       ??_C@_0DG@JINADBML@pMixBins?9?$DOdwMixBinCount?5?$DM?$DN?5NUMEL@ 005fd830     dsoundd:dsapi.obj
 0005:00028e90       ??_C@_08IANEAGJN@pMixBins?$AA@ 005fd870     dsoundd:dsapi.obj
 0005:00028e9c       ??_C@_0CH@JEGNMIPE@m_dwMixBinCount?5?$DM?5NUMELMS?$CIm_abMi@ 005fd87c     dsoundd:dsapi.obj
 0005:00028ed0       ??_C@_0FB@DAJDBLOB@Not?5enough?5free?5mixbin?5slots?5to?5@ 005fd8b0     dsoundd:dsapi.obj
 0005:00028f34       ??_C@_0CM@EMFNOMIH@CDirectSoundVoiceSettings?3?3Inclu@ 005fd914     dsoundd:dsapi.obj
 0005:00028f68       ??_C@_0BE@GGKNKICF@Invalid?5pitch?5value?$AA@ 005fd948     dsoundd:dsapi.obj
 0005:00028f80       ??_C@_0BM@HJLAICEL@CDirectSoundVoice?3?3SetPitch?$AA@ 005fd960     dsoundd:dsapi.obj
 0005:00028fa4       ??_C@_0BL@JLPGLIJE@Volume?5value?5out?9of?9bounds?$AA@ 005fd984     dsoundd:dsapi.obj
 0005:00028fc4       ??_C@_0BN@GPFNHHLE@CDirectSoundVoice?3?3SetVolume?$AA@ 005fd9a4     dsoundd:dsapi.obj
 0005:00028fe8       ??_C@_0EN@CDBMGOGN@The?5pitch?5LFO?5doesn?5not?5support?5@ 005fd9c8     dsoundd:dsapi.obj
 0005:00029044       ??_C@_0CH@BNNNECFA@Invalid?5LFO?5amplitude?5modulation@ 005fda24     dsoundd:dsapi.obj
 0005:00029074       ??_C@_0CA@NLOIDDNF@Invalid?5LFO?5filter?5cutoff?5value?$AA@ 005fda54     dsoundd:dsapi.obj
 0005:0002909c       ??_C@_0CD@DDJCPJHN@Invalid?5LFO?5pitch?5modulation?5val@ 005fda7c     dsoundd:dsapi.obj
 0005:000290c8       ??_C@_0BI@BFFHNCNB@Invalid?5LFO?5delta?5value?$AA@ 005fdaa8     dsoundd:dsapi.obj
 0005:000290e4       ??_C@_0BI@FMFOPPHB@Invalid?5LFO?5delay?5value?$AA@ 005fdac4     dsoundd:dsapi.obj
 0005:00029100       ??_C@_0BN@PNGPHNPI@LFO?5description?5not?5provided?$AA@ 005fdae0     dsoundd:dsapi.obj
 0005:00029124       ??_C@_0BK@PNKNNCBM@CDirectSoundVoice?3?3SetLFO?$AA@ 005fdb04     dsoundd:dsapi.obj
 0005:00029148       ??_C@_0EG@HJNFDHAI@The?5amplitude?5envelope?5doesn?5not@ 005fdb28     dsoundd:dsapi.obj
 0005:0002919c       ??_C@_0CF@CHEONPI@Invalid?5envelope?5filter?5cutoff?5v@ 005fdb7c     dsoundd:dsapi.obj
 0005:000291c8       ??_C@_0CD@NBKAHFMI@Invalid?5envelope?5pitch?5scale?5val@ 005fdba8     dsoundd:dsapi.obj
 0005:000291f4       ??_C@_0BP@FPGDLLFG@Invalid?5envelope?5sustain?5value?$AA@ 005fdbd4     dsoundd:dsapi.obj
 0005:0002921c       ??_C@_0BP@DBLEBMF@Invalid?5envelope?5release?5value?$AA@ 005fdbfc     dsoundd:dsapi.obj
 0005:00029244       ??_C@_0BN@DBHNMEH@Invalid?5envelope?5decay?5value?$AA@ 005fdc24     dsoundd:dsapi.obj
 0005:00029268       ??_C@_0BM@DICEDIB@Invalid?5envelope?5hold?5value?$AA@ 005fdc48     dsoundd:dsapi.obj
 0005:0002928c       ??_C@_0BO@CHAGBIOL@Invalid?5envelope?5attack?5value?$AA@ 005fdc6c     dsoundd:dsapi.obj
 0005:000292b0       ??_C@_0BN@PCBMIHMK@Invalid?5envelope?5delay?5value?$AA@ 005fdc90     dsoundd:dsapi.obj
 0005:000292d4       ??_C@_0CA@IIDKFKNJ@Invalid?5envelope?5generator?5mode?$AA@ 005fdcb4     dsoundd:dsapi.obj
 0005:000292fc       ??_C@_0CG@BJPMKGB@Invalid?5envelope?5generator?5ident@ 005fdcdc     dsoundd:dsapi.obj
 0005:0002932c       ??_C@_0CC@BKPMJGEL@Envelope?5description?5not?5provide@ 005fdd0c     dsoundd:dsapi.obj
 0005:00029354       ??_C@_0BJ@DPICDANF@CDirectSoundVoice?3?3SetEG?$AA@ 005fdd34     dsoundd:dsapi.obj
 0005:00029374       ??_C@_0DG@NELHDLCP@Only?5the?5first?52?5coefficients?5ar@ 005fdd54     dsoundd:dsapi.obj
 0005:000293b4       ??_C@_0CL@KJELMDOG@The?5filter?5can?8t?5be?5bypassed?5on?5@ 005fdd94     dsoundd:dsapi.obj
 0005:000293e8       ??_C@_0CG@HIEOAAID@Invalid?5coefficient?5value?5?$CIindex@ 005fddc8     dsoundd:dsapi.obj
 0005:00029418       ??_C@_0BM@MNKBDPOF@Invalid?5Q?9coefficient?5value?$AA@ 005fddf8     dsoundd:dsapi.obj
 0005:0002943c       ??_C@_0BE@EGGJIDJA@Invalid?5filter?5mode?$AA@ 005fde1c     dsoundd:dsapi.obj
 0005:00029454       ??_C@_0CA@HHPMHMGE@Filter?5description?5not?5provided?$AA@ 005fde34     dsoundd:dsapi.obj
 0005:0002947c       ??_C@_0BN@GNPGLKCM@CDirectSoundVoice?3?3SetFilter?$AA@ 005fde5c     dsoundd:dsapi.obj
 0005:000294a0       ??_C@_0BN@KGGOOANK@Headroom?5value?5out?9of?9bounds?$AA@ 005fde80     dsoundd:dsapi.obj
 0005:000294c4       ??_C@_0BP@MICKMGL@CDirectSoundVoice?3?3SetHeadroom?$AA@ 005fdea4     dsoundd:dsapi.obj
 0005:000294ec       ??_C@_0BM@BIDAHOAG@Invalid?5volume?5at?5index?5?$CFlu?$AA@ 005fdecc     dsoundd:dsapi.obj
 0005:00029510       ??_C@_0EK@CCNEIJPJ@Specified?5a?5mixbin?5the?5voice?5is?5@ 005fdef0     dsoundd:dsapi.obj
 0005:00029568       ??_C@_0BF@HLJGNGGL@Invalid?5mixbin?5count?$AA@ 005fdf48     dsoundd:dsapi.obj
 0005:00029584       ??_C@_0CB@PELGAILP@Failed?5to?5supply?5any?5volume?5data@ 005fdf64     dsoundd:dsapi.obj
 0005:000295ac       ??_C@_0CE@EOLELOPB@CDirectSoundVoice?3?3SetMixBinVolu@ 005fdf8c     dsoundd:dsapi.obj
 0005:000295d8       ??_C@_0BI@PMIEJGCG@Software?53D?5not?5enabled?$AA@ 005fdfb8     dsoundd:dsapi.obj
 0005:000295f4       ??_C@_0CK@MNHGFLOP@CDirectSoundVoice?3?3CommitDeferre@ 005fdfd4     dsoundd:dsapi.obj
 0005:00029628       ??_C@_0CI@CMHIACIA@Voice?5properties?5structure?5not?5s@ 005fe008     dsoundd:dsapi.obj
 0005:00029658       ??_C@_0CG@HPMHBEHC@CDirectSoundVoice?3?3GetVoicePrope@ 005fe038     dsoundd:dsapi.obj
 0005:00029688       ??_C@_0CP@KBGJLGKN@FIR?5filter?5parameters?5are?5invali@ 005fe068     dsoundd:dsapi.obj
 0005:000296c0       ??_C@_0EL@IMHDAIPB@Only?5FIR?5filter?5parameters?5are?5v@ 005fe0a0     dsoundd:dsapi.obj
 0005:0002971c       ??_C@_0DH@JAHOJALP@Neither?5hardware?53D?5nor?53D?5voice@ 005fe0fc     dsoundd:dsapi.obj
 0005:00029760       ??_C@_0CB@JAOPPHEL@Invalid?5flags?5in?5the?5change?5mask@ 005fe140     dsoundd:dsapi.obj
 0005:00029788       ??_C@_0BI@JLMLOOEB@Parameters?5not?5supplied?$AA@ 005fe168     dsoundd:dsapi.obj
 0005:000297a4       ??_C@_0CC@HIIJGEED@CDirectSoundVoice?3?3Set3DVoiceDat@ 005fe184     dsoundd:dsapi.obj
 0005:000297cc       ??_C@_0CN@JJDLFACJ@dwLoopStart?5?$CL?5dwLoopLength?5?$DM?$DN?5m_@ 005fe1ac     dsoundd:dsapi.obj
 0005:00029804       ??_C@_0CN@DHEINPGA@dwLoopStart?5?$CL?5dwLoopLength?5?$DM?$DN?5m_@ 005fe1e4     dsoundd:dsapi.obj
 0005:0002983c       ??_C@_0BC@FAIDNDCA@DSBPOSITIONNOTIFY?$AA@ 005fe21c     dsoundd:dsapi.obj
 0005:00029858       ??_C@_0FD@HKFCMOEO@I3DL2?5listener?5and?5I3DL2?5buffer?5@ 005fe238     dsoundd:dsapi.obj
 0005:000298bc       ??_C@_0DN@MCPBHNED@3D?5listener?5and?53D?5buffer?5struct@ 005fe29c     dsoundd:dsapi.obj
 0005:00029908       ??_C@_0JA@JELIMFIC@You?5must?5call?5one?5of?5the?53D?5algo@ 005fe2e8     dsoundd:dsapi.obj
 0005:000299b4       ??_C@_0CH@BNCOEALD@CDirectSound3DCalculator?3?3GetVoi@ 005fe394     dsoundd:dsapi.obj
 0005:000299e4       ??_C@_0CF@FNFDNMPG@CDirectSound3DCalculator?3?3GetPan@ 005fe3c4     dsoundd:dsapi.obj
 0005:00029a10       ??_C@_0BE@HHFFHBAK@No?5mixbins?5supplied?$AA@ 005fe3f0     dsoundd:dsapi.obj
 0005:00029a28       ??_C@_0CK@GDOEEFCF@DSMIXBINVOLUMEPAIR?5structure?5not@ 005fe408     dsoundd:dsapi.obj
 0005:00029a5c       ??_C@_0BI@HAKMGPM@Voice?5data?5not?5supplied?$AA@ 005fe43c     dsoundd:dsapi.obj
 0005:00029a78       ??_C@_0CL@KHEACKDL@CDirectSound3DCalculator?3?3GetMix@ 005fe458     dsoundd:dsapi.obj
 0005:00029aac       ??_C@_0CC@LEKIOFPG@Invalid?5?$CCthis?$CC?5pointer?5?$CI?$CFx?5?$CB?$DN?5?$CFx@ 005fe48c     dsoundd:dsapi.obj
 0005:00029ad4       ??_C@_0BJ@GLKFBKGJ@NULL?5?$CCthis?$CC?5pointer?5?$CI?$CFx?$CJ?$AA@ 005fe4b4     dsoundd:dsapi.obj
 0005:00029af4       ??_C@_0BO@INMBMDIC@CDirectSoundBuffer?3?3SetVolume?$AA@ 005fe4d4     dsoundd:dsapi.obj
 0005:00029b18       ??_C@_0FF@CEBOEHDG@DirectSound?5is?5in?5the?5final?5stag@ 005fe4f8     dsoundd:dsapi.obj
 0005:00029b80       ??_C@_0DG@DMIFJHMM@d?3?2xbox?2private?2windows?2directx?2@ 005fe560     dsoundd:dsapi.obj
 0005:00029bc0       ??_C@_0CL@KMEHIOGO@DirectSound?3?3CDirectSoundBuffer?3@ 005fe5a0     dsoundd:dsapi.obj
 0005:00029bf4       ??_C@_0BN@FNHOKAIC@CDirectSoundBuffer?3?3SetPitch?$AA@ 005fe5d4     dsoundd:dsapi.obj
 0005:00029c18       ??_C@_0CK@GPMHPJLG@DirectSound?3?3CDirectSoundBuffer?3@ 005fe5f8     dsoundd:dsapi.obj
 0005:00029c4c       ??_C@_0BL@BGJIIJJH@CDirectSoundBuffer?3?3SetLFO?$AA@ 005fe62c     dsoundd:dsapi.obj
 0005:00029c6c       ??_C@_0CI@EILAHGEJ@DirectSound?3?3CDirectSoundBuffer?3@ 005fe64c     dsoundd:dsapi.obj
 0005:00029c9c       ??_C@_0BK@EOPIEBA@CDirectSoundBuffer?3?3SetEG?$AA@ 005fe67c     dsoundd:dsapi.obj
 0005:00029cbc       ??_C@_0CH@PCOJFEGI@DirectSound?3?3CDirectSoundBuffer?3@ 005fe69c     dsoundd:dsapi.obj
 0005:00029cec       ??_C@_0BO@IPGKAOBK@CDirectSoundBuffer?3?3SetFilter?$AA@ 005fe6cc     dsoundd:dsapi.obj
 0005:00029d10       ??_C@_0CL@KOOMEDPG@DirectSound?3?3CDirectSoundBuffer?3@ 005fe6f0     dsoundd:dsapi.obj
 0005:00029d44       ??_C@_0CA@EJJCKIBH@CDirectSoundBuffer?3?3SetHeadroom?$AA@ 005fe724     dsoundd:dsapi.obj
 0005:00029d6c       ??_C@_0CN@LDDEAIFM@DirectSound?3?3CDirectSoundBuffer?3@ 005fe74c     dsoundd:dsapi.obj
 0005:00029da4       ??_C@_0CF@GMNMDMFI@CDirectSoundBuffer?3?3SetMixBinVol@ 005fe784     dsoundd:dsapi.obj
 0005:00029dd0       ??_C@_0DC@DNDCGEOA@DirectSound?3?3CDirectSoundBuffer?3@ 005fe7b0     dsoundd:dsapi.obj
 0005:00029e0c       ??_C@_0CH@DLENDLG@CDirectSoundBuffer?3?3GetVoiceProp@ 005fe7ec     dsoundd:dsapi.obj
 0005:00029e3c       ??_C@_0DE@EKBIHPCO@DirectSound?3?3CDirectSoundBuffer?3@ 005fe81c     dsoundd:dsapi.obj
 0005:00029e7c       ??_C@_0CD@FMLJCAFC@CDirectSoundBuffer?3?3Set3DVoiceDa@ 005fe85c     dsoundd:dsapi.obj
 0005:00029ea8       ??_C@_0DA@LBMEPILN@DirectSound?3?3CDirectSoundBuffer?3@ 005fe888     dsoundd:dsapi.obj
 0005:00029ee4       ??_C@_0CD@IJKCPMCF@CDirectSoundBuffer?3?3Use3DVoiceDa@ 005fe8c4     dsoundd:dsapi.obj
 0005:00029f10       ??_C@_0DA@GENPCEMK@DirectSound?3?3CDirectSoundBuffer?3@ 005fe8f0     dsoundd:dsapi.obj
 0005:00029f4c       ??_C@_0BN@GPKLKEMB@CDirectSoundStream?3?3SetPitch?$AA@ 005fe92c     dsoundd:dsapi.obj
 0005:00029f70       ??_C@_0CK@FNBCPNPF@DirectSound?3?3CDirectSoundStream?3@ 005fe950     dsoundd:dsapi.obj
 0005:00029fa4       ??_C@_0BO@GCCGAGKM@CDirectSoundStream?3?3SetVolume?$AA@ 005fe984     dsoundd:dsapi.obj
 0005:00029fc8       ??_C@_0CL@EDKAELEA@DirectSound?3?3CDirectSoundStream?3@ 005fe9a8     dsoundd:dsapi.obj
 0005:00029ffc       ??_C@_0BL@BDFCJLBN@CDirectSoundStream?3?3SetLFO?$AA@ 005fe9dc     dsoundd:dsapi.obj
 0005:0002a01c       ??_C@_0CI@ENHKGEMD@DirectSound?3?3CDirectSoundStream?3@ 005fe9fc     dsoundd:dsapi.obj
 0005:0002a04c       ??_C@_0BK@MOKKBNNH@CDirectSoundStream?3?3SetEG?$AA@ 005fea2c     dsoundd:dsapi.obj
 0005:0002a06c       ??_C@_0CH@DIKMMNKP@DirectSound?3?3CDirectSoundStream?3@ 005fea4c     dsoundd:dsapi.obj
 0005:0002a09c       ??_C@_0BO@GAINMLDE@CDirectSoundStream?3?3SetFilter?$AA@ 005fea7c     dsoundd:dsapi.obj
 0005:0002a0c0       ??_C@_0CL@EBALIGNI@DirectSound?3?3CDirectSoundStream?3@ 005feaa0     dsoundd:dsapi.obj
 0005:0002a0f4       ??_C@_0CA@KJJLHIOD@CDirectSoundStream?3?3SetHeadroom?$AA@ 005fead4     dsoundd:dsapi.obj
 0005:0002a11c       ??_C@_0CN@FDDNNIKI@DirectSound?3?3CDirectSoundStream?3@ 005feafc     dsoundd:dsapi.obj
 0005:0002a154       ??_C@_0CF@KGJDLLDP@CDirectSoundStream?3?3SetMixBinVol@ 005feb34     dsoundd:dsapi.obj
 0005:0002a180       ??_C@_0DC@PHHNODIH@DirectSound?3?3CDirectSoundStream?3@ 005feb60     dsoundd:dsapi.obj
 0005:0002a1bc       ??_C@_0CH@FKNEPCBK@CDirectSoundStream?3?3GetVoiceProp@ 005feb9c     dsoundd:dsapi.obj
 0005:0002a1ec       ??_C@_0DE@BDHIFOIC@DirectSound?3?3CDirectSoundStream?3@ 005febcc     dsoundd:dsapi.obj
 0005:0002a22c       ??_C@_0DA@PLONFOOK@DirectSound?3?3CDirectSoundStream?3@ 005fec0c     dsoundd:dsapi.obj
 0005:0002a268       ??_C@_0CD@MDILFKHC@CDirectSoundStream?3?3Use3DVoiceDa@ 005fec48     dsoundd:dsapi.obj
 0005:0002a294       ??_C@_0DA@COPGICJN@DirectSound?3?3CDirectSoundStream?3@ 005fec74     dsoundd:dsapi.obj
 0005:0002a2d0       ??_C@_0N@HOMJKBAH@pDirectSound?$AA@ 005fecb0     dsoundd:dsapi.obj
 0005:0002a2e0       ??_C@_07OFNMHBKJ@pBuffer?$AA@ 005fecc0     dsoundd:dsapi.obj
 0005:0002a2ec       ??_C@_0BF@JHBNNOBF@CWaveFileMediaObject?$AA@ 005feccc     dsoundd:dsapi.obj
 0005:0002a308       ??_C@_0CB@EMKKKBHF@No?5media?5object?5pointer?5supplied@ 005fece8     dsoundd:dsapi.obj
 0005:0002a330       ??_C@_0BH@CHEELPJG@No?5file?5name?5specified?$AA@ 005fed10     dsoundd:dsapi.obj
 0005:0002a34c       ??_C@_0BL@KKIBJCHH@XWaveFileCreateMediaObject?$AA@ 005fed2c     dsoundd:dsapi.obj
 0005:0002a36c       ??_C@_0CE@DEIACGD@Both?5file?5name?5and?5handle?5specif@ 005fed4c     dsoundd:dsapi.obj
 0005:0002a398       ??_C@_0CB@DOHCIFPB@No?5file?5name?5or?5handle?5specified@ 005fed78     dsoundd:dsapi.obj
 0005:0002a3c0       ??_C@_0BN@OPMIALAN@XWaveFileCreateMediaObjectEx?$AA@ 005feda0     dsoundd:dsapi.obj
 0005:0002a3e8       ??_C@_0GC@KBBLPLOL@?$CB?$CIdwFlagsAndAttributes?5?$CG?5FILE_FL@ 005fedc8     dsoundd:dsapi.obj
 0005:0002a460       ??_C@_0BB@FGJODPMK@CFileMediaObject?$AA@ 005fee40     dsoundd:dsapi.obj
 0005:0002a474       ??_C@_0BK@DGKHNHOH@dwMaxPackets?5cant?5be?5zero?$AA@ 005fee54     dsoundd:dsapi.obj
 0005:0002a494       ??_C@_0BE@MMBJFDPO@No?5handle?5specified?$AA@ 005fee74     dsoundd:dsapi.obj
 0005:0002a4ac       ??_C@_0BM@GFDCPKG@XFileCreateMediaObjectAsync?$AA@ 005fee8c     dsoundd:dsapi.obj
 0005:0002a4d0       ??_C@_0BB@GBGJNGD@CAc97MediaObject?$AA@ 005feeb0     dsoundd:dsapi.obj
 0005:0002a4e4       ??_C@_0BF@JCCIJAPA@CDirectSound?3?3AddRef?$AA@ 005feec4     dsoundd:dsapi.obj
 0005:0002a500       ??_C@_0CC@BNHBNIPL@DirectSound?3?3CDirectSound?3?3AddRe@ 005feee0     dsoundd:dsapi.obj
 0005:0002a528       ??_C@_0BE@FGNBHMGB@DSCAPS?5not?5supplied?$AA@ 005fef08     dsoundd:dsapi.obj
 0005:0002a540       ??_C@_0BG@BALKAGLG@CDirectSound?3?3GetCaps?$AA@ 005fef20     dsoundd:dsapi.obj
 0005:0002a55c       ??_C@_0CH@HMIKHCKH@Failed?5to?5supply?5speaker?5config?5@ 005fef3c     dsoundd:dsapi.obj
 0005:0002a58c       ??_C@_0BP@BPPCBFOG@CDirectSound?3?3GetSpeakerConfig?$AA@ 005fef6c     dsoundd:dsapi.obj
 0005:0002a5b4       ??_C@_0BD@BGOMCCDB@Invalid?5image?5size?$AA@ 005fef94     dsoundd:dsapi.obj
 0005:0002a5cc       ??_C@_0CB@IMEPOPKJ@Failed?5to?5supply?5an?5image?5buffer@ 005fefac     dsoundd:dsapi.obj
 0005:0002a5f4       ??_C@_0CD@LHHMLIME@CDirectSound?3?3DownloadEffectsIma@ 005fefd4     dsoundd:dsapi.obj
 0005:0002a620       ??_C@_0O@IHOLGAKK@Invalid?5flags?$AA@ 005ff000     dsoundd:dsapi.obj
 0005:0002a630       ??_C@_0CA@BEEJHJJ@Data?5size?5must?5be?5DWORD?9aligned?$AA@ 005ff010     dsoundd:dsapi.obj
 0005:0002a658       ??_C@_0BC@DFMMBJFB@Invalid?5data?5size?$AA@ 005ff038     dsoundd:dsapi.obj
 0005:0002a670       ??_C@_0BP@JDIKGDBB@Failed?5to?5supply?5a?5data?5buffer?$AA@ 005ff050     dsoundd:dsapi.obj
 0005:0002a698       ??_C@_0BN@BHOEKAGO@Offset?5must?5be?5DWORD?9aligned?$AA@ 005ff078     dsoundd:dsapi.obj
 0005:0002a6bc       ??_C@_0BM@BGFJIEHG@CDirectSound?3?3SetEffectData?$AA@ 005ff09c     dsoundd:dsapi.obj
 0005:0002a6e0       ??_C@_0BM@GJEHDHAB@CDirectSound?3?3GetEffectData?$AA@ 005ff0c0     dsoundd:dsapi.obj
 0005:0002a704       ??_C@_0BP@BANNDMNP@CDirectSound?3?3CommitEffectData?$AA@ 005ff0e4     dsoundd:dsapi.obj
 0005:0002a72c       ??_C@_0BH@DDEKMEPM@Invalid?5headroom?5value?$AA@ 005ff10c     dsoundd:dsapi.obj
 0005:0002a748       ??_C@_0P@NEKPABJB@Invalid?5mixbin?$AA@ 005ff128     dsoundd:dsapi.obj
 0005:0002a75c       ??_C@_0CA@CKGJKEKA@CDirectSound?3?3SetMixBinHeadroom?$AA@ 005ff13c     dsoundd:dsapi.obj
 0005:0002a784       ??_C@_0BM@GKEJMMLC@CDirectSound?3?3SynchPlayback?$AA@ 005ff164     dsoundd:dsapi.obj
 0005:0002a7a8       ??_C@_0HB@OFDFMNGN@Out?5of?5scatter?1gather?5entries?4?5?5@ 005ff188     dsoundd:dsapi.obj
 0005:0002a830       ??_C@_0CE@HONBMHCB@Mapping?5handle?5pointer?5not?5suppl@ 005ff210     dsoundd:dsapi.obj
 0005:0002a85c       ??_C@_0BJ@PDALNLEN@Buffer?5size?5not?5supplied?$AA@ 005ff23c     dsoundd:dsapi.obj
 0005:0002a87c       ??_C@_0BJ@EFDBMBNO@Data?5buffer?5not?5supplied?$AA@ 005ff25c     dsoundd:dsapi.obj
 0005:0002a89c       ??_C@_0BM@KGGLECNP@CDirectSound?3?3MapBufferData?$AA@ 005ff27c     dsoundd:dsapi.obj
 0005:0002a8c0       ??_C@_0BH@CJJPCPNJ@Invalid?5mapping?5handle?$AA@ 005ff2a0     dsoundd:dsapi.obj
 0005:0002a8dc       ??_C@_0BO@EBIGIEAM@CDirectSound?3?3UnmapBufferData?$AA@ 005ff2bc     dsoundd:dsapi.obj
 0005:0002a900       ??_C@_0BF@OCNAGGAG@CDirectSound?3?3DoWork?$AA@ 005ff2e0     dsoundd:dsapi.obj
 0005:0002a91c       ??_C@_0BP@KBFKHNOD@CDirectSound?3?3EnableHeadphones?$AA@ 005ff2fc     dsoundd:dsapi.obj
 0005:0002a944       ??_C@_0DA@LJNAAHGK@pMixBins?9?$DOdwMixBinCount?5?$DM?$DN?5NUMEL@ 005ff324     dsoundd:dsapi.obj
 0005:0002a994       ??_C@_0DA@DPOBGDIP@m_fmt?4nChannels?5?1?52?5?$DM?5NUMELMS?$CIap@ 005ff374     dsoundd:dsapi.obj
 0005:0002a9dc       ??_C@_0CA@BLOGINIO@pOutputBuffer?5?$CB?$DN?5m_pMixinBuffer?$AA@ 005ff3bc     dsoundd:dsapi.obj
 0005:0002aa08       ??_C@_0HE@CKJLDPOL@?$CB?$CIm_pSettings?9?$DOm_p3dParams?9?$DOHRTF@ 005ff3e8     dsoundd:dsapi.obj
 0005:0002aa94       ??_C@_0CA@KGMCDICN@CDirectSoundVoice?3?3SetFrequency?$AA@ 005ff474     dsoundd:dsapi.obj
 0005:0002aabc       ??_C@_0CF@LMMJOHBD@You?5will?5only?5see?5this?5warning?5o@ 005ff49c     dsoundd:dsapi.obj
 0005:0002aae8       ??_C@_0EM@LOELFEDP@destination?5is?5reading?5to?0?5possi@ 005ff4c8     dsoundd:dsapi.obj
 0005:0002ab48       ??_C@_0EE@DOPHHMBJ@non?9zero?4?5?5This?5will?5be?5additive@ 005ff528     dsoundd:dsapi.obj
 0005:0002aba0       ??_C@_0EH@LBEFOPJD@The?5headroom?5for?5the?5mixbin?5your@ 005ff580     dsoundd:dsapi.obj
 0005:0002abf8       ??_C@_0FC@OCBCMFK@Can?8t?5submix?5a?53D?5buffer?4?5?5Creat@ 005ff5d8     dsoundd:dsapi.obj
 0005:0002ac5c       ??_C@_0DI@GFIHCNBF@Can?8t?5set?5the?5output?5buffer?5on?5M@ 005ff63c     dsoundd:dsapi.obj
 0005:0002aca0       ??_C@_0DJ@PFGKEAHP@Output?5buffer?5specified?5is?5not?5a@ 005ff680     dsoundd:dsapi.obj
 0005:0002ace4       ??_C@_0CD@ODLMGAMI@CDirectSoundVoice?3?3SetOutputBuff@ 005ff6c4     dsoundd:dsapi.obj
 0005:0002ad10       ??_C@_0DD@EJEOPAOD@MixBin?5array?5does?5not?5include?5th@ 005ff6f0     dsoundd:dsapi.obj
 0005:0002ad50       ??_C@_0EI@MJPKEPAI@MixBin?5count?5doesn?8t?5include?5eno@ 005ff730     dsoundd:dsapi.obj
 0005:0002ada8       ??_C@_0BM@IOBMOJLJ@Specified?5an?5invalid?5mixbin?$AA@ 005ff788     dsoundd:dsapi.obj
 0005:0002adcc       ??_C@_0DJ@NDMJBELB@The?5mixbin?5count?5must?5be?5a?5multi@ 005ff7ac     dsoundd:dsapi.obj
 0005:0002ae10       ??_C@_0DD@JHLFCOCA@No?5voice?5can?5be?5assigned?5to?5more@ 005ff7f0     dsoundd:dsapi.obj
 0005:0002ae50       ??_C@_0BO@ICABEEDN@CDirectSoundVoice?3?3SetMixBins?$AA@ 005ff830     dsoundd:dsapi.obj
 0005:0002ae74       ??_C@_0CN@PPNGGLIO@Specified?5invalid?5or?5unsupported@ 005ff854     dsoundd:dsapi.obj
 0005:0002aeac       ??_C@_0BN@CELBIGOI@Rolloff?5factor?5out?5of?5bounds?$AA@ 005ff88c     dsoundd:dsapi.obj
 0005:0002aed0       ??_C@_0BN@HHJNBFFA@Doppler?5factor?5out?5of?5bounds?$AA@ 005ff8b0     dsoundd:dsapi.obj
 0005:0002aef4       ??_C@_0BO@LCGDMHLP@Distance?5factor?5out?5of?5bounds?$AA@ 005ff8d4     dsoundd:dsapi.obj
 0005:0002af18       ??_C@_0CO@NHMANPEN@Minimum?5and?5maximum?5distance?5mus@ 005ff8f8     dsoundd:dsapi.obj
 0005:0002af50       ??_C@_0BF@DLKDHIFC@Invalid?5volume?5level?$AA@ 005ff930     dsoundd:dsapi.obj
 0005:0002af6c       ??_C@_0BJ@NEIBCMFO@Invalid?5cone?5orientation?$AA@ 005ff94c     dsoundd:dsapi.obj
 0005:0002af8c       ??_C@_0DA@BHNOOMMA@Inside?5cone?5angle?5can?8t?5be?5great@ 005ff96c     dsoundd:dsapi.obj
 0005:0002afc8       ??_C@_0BJ@NCIONLNI@Invalid?5cone?5angle?5value?$AA@ 005ff9a8     dsoundd:dsapi.obj
 0005:0002afe8       ??_C@_0BH@KBEADHF@Invalid?5structure?5size?$AA@ 005ff9c8     dsoundd:dsapi.obj
 0005:0002b004       ??_C@_0CE@HOMGIPI@CDirectSoundVoice?3?3SetAllParamet@ 005ff9e4     dsoundd:dsapi.obj
 0005:0002b030       ??_C@_0CB@OOGMOKNP@CDirectSoundVoice?3?3SetConeAngles@ 005ffa10     dsoundd:dsapi.obj
 0005:0002b058       ??_C@_0CG@GFAMGMJN@CDirectSoundVoice?3?3SetConeOrient@ 005ffa38     dsoundd:dsapi.obj
 0005:0002b088       ??_C@_0CI@PFHMKJGP@CDirectSoundVoice?3?3SetConeOutsid@ 005ffa68     dsoundd:dsapi.obj
 0005:0002b0b8       ??_C@_0CH@FELEFEMJ@flMaxDistance?5must?5be?5?$DO?$DN?5flMinDi@ 005ffa98     dsoundd:dsapi.obj
 0005:0002b0e8       ??_C@_0BL@ODHMFJI@Invalid?5max?5distance?5value?$AA@ 005ffac8     dsoundd:dsapi.obj
 0005:0002b108       ??_C@_0CC@JABKLHAC@CDirectSoundVoice?3?3SetMaxDistanc@ 005ffae8     dsoundd:dsapi.obj
 0005:0002b130       ??_C@_0CD@HBGDLNMF@MinDistance?5must?5be?5?$DM?$DN?5MaxDistan@ 005ffb10     dsoundd:dsapi.obj
 0005:0002b15c       ??_C@_0BL@KJADEFOB@Invalid?5min?5distance?5value?$AA@ 005ffb3c     dsoundd:dsapi.obj
 0005:0002b17c       ??_C@_0CC@GJKHOI@CDirectSoundVoice?3?3SetMinDistanc@ 005ffb5c     dsoundd:dsapi.obj
 0005:0002b1a4       ??_C@_0BL@NIDEAOHK@CDirectSoundVoice?3?3SetMode?$AA@ 005ffb84     dsoundd:dsapi.obj
 0005:0002b1c4       ??_C@_0BP@EHIDDHEM@CDirectSoundVoice?3?3SetPosition?$AA@ 005ffba4     dsoundd:dsapi.obj
 0005:0002b1ec       ??_C@_0BP@CFKGNOKB@CDirectSoundVoice?3?3SetVelocity?$AA@ 005ffbcc     dsoundd:dsapi.obj
 0005:0002b214       ??_C@_0CF@EDNENMKI@CDirectSoundVoice?3?3SetDistanceFa@ 005ffbf4     dsoundd:dsapi.obj
 0005:0002b240       ??_C@_0CE@BPMLICEL@CDirectSoundVoice?3?3SetDopplerFac@ 005ffc20     dsoundd:dsapi.obj
 0005:0002b26c       ??_C@_0CE@GAOLLPH@CDirectSoundVoice?3?3SetRolloffFac@ 005ffc4c     dsoundd:dsapi.obj
 0005:0002b298       ??_C@_0DB@MCCEBEEE@Point?5array?5and?5count?5most?5both?5@ 005ffc78     dsoundd:dsapi.obj
 0005:0002b2d4       ??_C@_0CN@MFPFNDEA@Rolloff?5curve?5points?5must?5be?5bet@ 005ffcb4     dsoundd:dsapi.obj
 0005:0002b30c       ??_C@_0CD@NCGGFELK@CDirectSoundVoice?3?3SetRolloffCur@ 005ffcec     dsoundd:dsapi.obj
 0005:0002b338       ??_C@_0CC@INJAHIFA@Invalid?5Occlusion?4flLFRatio?5valu@ 005ffd18     dsoundd:dsapi.obj
 0005:0002b360       ??_C@_0CB@OAHBFPJJ@Invalid?5Occlusion?4lHFLevel?5value@ 005ffd40     dsoundd:dsapi.obj
 0005:0002b388       ??_C@_0CE@OBCELHCF@Invalid?5Obstruction?4flLFRatio?5va@ 005ffd68     dsoundd:dsapi.obj
 0005:0002b3b4       ??_C@_0CD@FCCLMHMN@Invalid?5Obstruction?4lHFLevel?5val@ 005ffd94     dsoundd:dsapi.obj
 0005:0002b3e0       ??_C@_0CC@MMCGGFDN@Invalid?5flRoomRolloffFactor?5valu@ 005ffdc0     dsoundd:dsapi.obj
 0005:0002b408       ??_C@_0BG@INCPBGEM@Invalid?5lRoomHF?5value?$AA@ 005ffde8     dsoundd:dsapi.obj
 0005:0002b424       ??_C@_0BE@BFGOEDGP@Invalid?5lRoom?5value?$AA@ 005ffe04     dsoundd:dsapi.obj
 0005:0002b43c       ??_C@_0BI@IKEBLGNA@Invalid?5lDirectHF?5value?$AA@ 005ffe1c     dsoundd:dsapi.obj
 0005:0002b458       ??_C@_0BG@MHAJELON@Invalid?5lDirect?5value?$AA@ 005ffe38     dsoundd:dsapi.obj
 0005:0002b474       ??_C@_0BM@LINKIFON@Failed?5to?5supply?5parameters?$AA@ 005ffe54     dsoundd:dsapi.obj
 0005:0002b498       ??_C@_0CC@FLJGNFAH@CDirectSoundVoice?3?3SetI3DL2Sourc@ 005ffe78     dsoundd:dsapi.obj
 0005:0002b4c0       ??_C@_0CN@GDLOIFBF@dwPlayStart?5?$CL?5dwPlayLength?5?$DM?$DN?5m_@ 005ffea0     dsoundd:dsapi.obj
 0005:0002b4f8       ??_C@_0BL@IDOOAHKJ@CDirectSoundBuffer?3?3AddRef?$AA@ 005ffed8     dsoundd:dsapi.obj
 0005:0002b518       ??_C@_0CI@NNMGPIHH@DirectSound?3?3CDirectSoundBuffer?3@ 005ffef8     dsoundd:dsapi.obj
 0005:0002b548       ??_C@_0BM@IJJNEHOC@CDirectSoundBuffer?3?3Release?$AA@ 005fff28     dsoundd:dsapi.obj
 0005:0002b56c       ??_C@_0CJ@OIKIJAMO@DirectSound?3?3CDirectSoundBuffer?3@ 005fff4c     dsoundd:dsapi.obj
 0005:0002b5a0       ??_C@_0CF@LHJLLMK@Play?5region?5length?5not?5block?9ali@ 005fff80     dsoundd:dsapi.obj
 0005:0002b5cc       ??_C@_0BB@MCLPOMMM@No?5data?5to?5play?$CB?$AA@ 005fffac     dsoundd:dsapi.obj
 0005:0002b5e0       ??_C@_0CG@CPJEDCBJ@Flags?5not?5supported?5for?5FXIN2?5bu@ 005fffc0     dsoundd:dsapi.obj
 0005:0002b610       ??_C@_0DF@KHLIAHGC@Can?8t?5call?5Play?5on?5a?5MIXIN?1FXIN?5@ 005ffff0     dsoundd:dsapi.obj
 0005:0002b650       ??_C@_0BO@DPDMNBCJ@Reserved?5parameters?5must?5be?50?$AA@ 00600030     dsoundd:dsapi.obj
 0005:0002b674       ??_C@_0BJ@IPKMPMIL@CDirectSoundBuffer?3?3Play?$AA@ 00600054     dsoundd:dsapi.obj
 0005:0002b694       ??_C@_0DH@KPBIIJHN@Can?8t?5call?5PlayEx?5on?5a?5MIXIN?1FXI@ 00600074     dsoundd:dsapi.obj
 0005:0002b6d8       ??_C@_0BL@PNMLMMMO@CDirectSoundBuffer?3?3PlayEx?$AA@ 006000b8     dsoundd:dsapi.obj
 0005:0002b6f8       ??_C@_0DF@JAFCJEMI@Can?8t?5call?5Stop?5on?5a?5MIXIN?1FXIN?5@ 006000d8     dsoundd:dsapi.obj
 0005:0002b738       ??_C@_0BJ@IGPNGPGI@CDirectSoundBuffer?3?3Stop?$AA@ 00600118     dsoundd:dsapi.obj
 0005:0002b758       ??_C@_0DH@JCPGCIAK@Can?8t?5call?5StopEx?5on?5a?5MIXIN?1FXI@ 00600138     dsoundd:dsapi.obj
 0005:0002b79c       ??_C@_0BL@OBJOKHEO@CDirectSoundBuffer?3?3StopEx?$AA@ 0060017c     dsoundd:dsapi.obj
 0005:0002b7bc       ??_C@_0BL@BMOFJJNB@Invalid?5buffer?5pause?5state?$AA@ 0060019c     dsoundd:dsapi.obj
 0005:0002b7dc       ??_C@_0BK@EIBDOIBJ@CDirectSoundBuffer?3?3Pause?$AA@ 006001bc     dsoundd:dsapi.obj
 0005:0002b7fc       ??_C@_0BM@KEGGDHJE@CDirectSoundBuffer?3?3PauseEx?$AA@ 006001dc     dsoundd:dsapi.obj
 0005:0002b820       ??_C@_0CC@CDHJLAHH@Failed?5to?5specify?5a?5status?5buffe@ 00600200     dsoundd:dsapi.obj
 0005:0002b848       ??_C@_0BO@NGCMNLCE@CDirectSoundBuffer?3?3GetStatus?$AA@ 00600228     dsoundd:dsapi.obj
 0005:0002b86c       ??_C@_0CP@GHNNCDPI@Play?5region?5extends?5past?5the?5end@ 0060024c     dsoundd:dsapi.obj
 0005:0002b8a4       ??_C@_0BO@EAGIFABL@Play?5length?5not?5block?9aligned?$AA@ 00600284     dsoundd:dsapi.obj
 0005:0002b8c8       ??_C@_0BO@DPLKNCLL@Play?5offset?5not?5block?9aligned?$AA@ 006002a8     dsoundd:dsapi.obj
 0005:0002b8ec       ??_C@_0DF@GDHAPHAO@Can?8t?5call?5SetPlayRegion?5on?5MIXI@ 006002cc     dsoundd:dsapi.obj
 0005:0002b92c       ??_C@_0CC@LLNBMADI@CDirectSoundBuffer?3?3SetPlayRegio@ 0060030c     dsoundd:dsapi.obj
 0005:0002b954       ??_C@_0DE@HMEEMDGC@Loop?5region?5extends?5past?5the?5end@ 00600334     dsoundd:dsapi.obj
 0005:0002b994       ??_C@_0BO@PIGELODJ@Loop?5length?5not?5block?9aligned?$AA@ 00600374     dsoundd:dsapi.obj
 0005:0002b9b8       ??_C@_0BO@IHLGDMJJ@Loop?5offset?5not?5block?9aligned?$AA@ 00600398     dsoundd:dsapi.obj
 0005:0002b9dc       ??_C@_0DF@GIBEJBBE@Can?8t?5call?5SetLoopRegion?5on?5MIXI@ 006003bc     dsoundd:dsapi.obj
 0005:0002ba1c       ??_C@_0CC@CDIHONIO@CDirectSoundBuffer?3?3SetLoopRegio@ 006003fc     dsoundd:dsapi.obj
 0005:0002ba44       ??_C@_0DK@NGMHLFIE@Can?8t?5call?5GetCurrentPosition?5on@ 00600424     dsoundd:dsapi.obj
 0005:0002ba8c       ??_C@_0CH@EAEJCEAG@CDirectSoundBuffer?3?3GetCurrentPo@ 0060046c     dsoundd:dsapi.obj
 0005:0002babc       ??_C@_0BM@NMCIIKAJ@Lock?5size?5not?5block?5aligned?$AA@ 0060049c     dsoundd:dsapi.obj
 0005:0002bae0       ??_C@_0BI@ILPPJOBN@Lock?5size?5out?9of?9bounds?$AA@ 006004c0     dsoundd:dsapi.obj
 0005:0002bafc       ??_C@_0DN@JHOKEDLB@Lock?5size?5can?8t?5be?50?5without?5spe@ 006004dc     dsoundd:dsapi.obj
 0005:0002bb48       ??_C@_0CA@BEKBLCB@Lock?5position?5not?5block?5aligned?$AA@ 00600528     dsoundd:dsapi.obj
 0005:0002bb70       ??_C@_0BM@MKDABCIF@Lock?5position?5out?9of?9bounds?$AA@ 00600550     dsoundd:dsapi.obj
 0005:0002bb94       ??_C@_0CE@IAAMBJOH@Can?8t?5lock?5MIXIN?1FXIN?1FXIN2?5buff@ 00600574     dsoundd:dsapi.obj
 0005:0002bbc0       ??_C@_0CN@BEMGHNMF@Specified?5unsupported?5or?5invalid@ 006005a0     dsoundd:dsapi.obj
 0005:0002bbf8       ??_C@_0DB@JGMHEDHM@Missing?5one?5of?5the?5second?5set?5of@ 006005d8     dsoundd:dsapi.obj
 0005:0002bc34       ??_C@_0CF@PKJFODPD@Missing?5first?5set?5of?5lock?5parame@ 00600614     dsoundd:dsapi.obj
 0005:0002bc60       ??_C@_0BJ@EDHJINFL@CDirectSoundBuffer?3?3Lock?$AA@ 00600640     dsoundd:dsapi.obj
 0005:0002bc80       ??_C@_0CD@EJDFOLMC@Play?5cursor?5position?5out?9of?9boun@ 00600660     dsoundd:dsapi.obj
 0005:0002bcac       ??_C@_0DK@IJHHDHEE@Can?8t?5call?5SetCurrentPosition?5on@ 0060068c     dsoundd:dsapi.obj
 0005:0002bcf4       ??_C@_0BM@KLDMGNIL@Position?5not?5sample?9aligned?$AA@ 006006d4     dsoundd:dsapi.obj
 0005:0002bd18       ??_C@_0CH@LKGDBCOO@CDirectSoundBuffer?3?3SetCurrentPo@ 006006f8     dsoundd:dsapi.obj
 0005:0002bd48       ??_C@_0EA@DEEKINFJ@Can?8t?5call?5SetNotificationPositi@ 00600728     dsoundd:dsapi.obj
 0005:0002bd94       ??_C@_0BL@ICKCNNOB@Invalid?5event?5at?5index?5?$CFlu?$AA@ 00600774     dsoundd:dsapi.obj
 0005:0002bdb4       ??_C@_0DE@JNMEBNPI@Offset?5at?5index?5?$CFlu?5past?5the?5end@ 00600794     dsoundd:dsapi.obj
 0005:0002bdf4       ??_C@_0CG@FJHCJHCJ@Offset?5at?5index?5?$CFlu?5not?5block?9al@ 006007d4     dsoundd:dsapi.obj
 0005:0002be24       ??_C@_0CI@OOGNPNNJ@Buffer?5does?5not?5have?5CTRLPOSITIO@ 00600804     dsoundd:dsapi.obj
 0005:0002be54       ??_C@_0CN@HOGDHNFJ@CDirectSoundBuffer?3?3SetNotificat@ 00600834     dsoundd:dsapi.obj
 0005:0002be8c       ??_C@_0BL@IGCEBFCD@CDirectSoundStream?3?3AddRef?$AA@ 0060086c     dsoundd:dsapi.obj
 0005:0002beac       ??_C@_0CI@NIAMOKPN@DirectSound?3?3CDirectSoundStream?3@ 0060088c     dsoundd:dsapi.obj
 0005:0002bedc       ??_C@_0BM@IEPFOHMO@CDirectSoundStream?3?3Release?$AA@ 006008bc     dsoundd:dsapi.obj
 0005:0002bf00       ??_C@_0CJ@OFMADAOC@DirectSound?3?3CDirectSoundStream?3@ 006008e0     dsoundd:dsapi.obj
 0005:0002bf34       ??_C@_0BO@FAPKLLAJ@No?5XMEDIAINFO?5buffer?5supplied?$AA@ 00600914     dsoundd:dsapi.obj
 0005:0002bf58       ??_C@_0BM@ODHLADDF@CDirectSoundStream?3?3GetInfo?$AA@ 00600938     dsoundd:dsapi.obj
 0005:0002bf7c       ??_C@_0CC@HBPPFBBE@CDirectSoundStream?3?3Discontinuit@ 0060095c     dsoundd:dsapi.obj
 0005:0002bfa4       ??_C@_0BK@BKOHCKKE@CDirectSoundStream?3?3Flush?$AA@ 00600984     dsoundd:dsapi.obj
 0005:0002bfc4       ??_C@_0BL@FHIKNDCM@Status?5buffer?5not?5supplied?$AA@ 006009a4     dsoundd:dsapi.obj
 0005:0002bfe4       ??_C@_0BO@DJMLBOAK@CDirectSoundStream?3?3GetStatus?$AA@ 006009c4     dsoundd:dsapi.obj
 0005:0002c008       ??_C@_0CM@PFPDLHIF@The?5stream?5is?5not?5ready?5to?5accep@ 006009e8     dsoundd:dsapi.obj
 0005:0002c040       ??_C@_0EP@IPABPLMJ@DirectSound?5streams?5are?5input?5on@ 00600a20     dsoundd:dsapi.obj
 0005:0002c0a0       ??_C@_0DE@MFMIGPGP@Timestamps?5are?5not?5supported?5on?5@ 00600a80     dsoundd:dsapi.obj
 0005:0002c0e0       ??_C@_0CE@NECMEEBH@Input?5buffer?5size?5not?5block?9alig@ 00600ac0     dsoundd:dsapi.obj
 0005:0002c10c       ??_C@_0BF@IOLPOIIL@No?5input?5buffer?5size?$AA@ 00600aec     dsoundd:dsapi.obj
 0005:0002c128       ??_C@_0BO@IGGFGKFP@No?5input?5data?5buffer?5supplied?$AA@ 00600b08     dsoundd:dsapi.obj
 0005:0002c14c       ??_C@_0BJ@HNOKMBNN@No?5input?5buffer?5supplied?$AA@ 00600b2c     dsoundd:dsapi.obj
 0005:0002c16c       ??_C@_0BM@POIHOHHN@CDirectSoundStream?3?3Process?$AA@ 00600b4c     dsoundd:dsapi.obj
 0005:0002c190       ??_C@_0BL@MANMHDNL@Invalid?5stream?5pause?5state?$AA@ 00600b70     dsoundd:dsapi.obj
 0005:0002c1b0       ??_C@_0BK@ICFGHBNO@CDirectSoundStream?3?3Pause?$AA@ 00600b90     dsoundd:dsapi.obj
 0005:0002c1d0       ??_C@_0BM@KJAOJHLI@CDirectSoundStream?3?3PauseEx?$AA@ 00600bb0     dsoundd:dsapi.obj
 0005:0002c1f4       ??_C@_0CG@IFFHOGAL@Timestamped?5flush?5requires?5ASYNC@ 00600bd4     dsoundd:dsapi.obj
 0005:0002c224       ??_C@_0CC@GEPHEJGF@ENVELOPE?5flag?5requires?5ASYNC?5fla@ 00600c04     dsoundd:dsapi.obj
 0005:0002c24c       ??_C@_0BM@IAGHBGAJ@CDirectSoundStream?3?3FlushEx?$AA@ 00600c2c     dsoundd:dsapi.obj
 0005:0002c270       ??_C@_0CB@PPDEBFDO@CDirectSoundBuffer?3?3SetFrequency@ 00600c50     dsoundd:dsapi.obj
 0005:0002c298       ??_C@_0CO@BOMACLIG@DirectSound?3?3CDirectSoundBuffer?3@ 00600c78     dsoundd:dsapi.obj
 0005:0002c2d0       ??_C@_0CE@IJCIHAHO@CDirectSoundBuffer?3?3SetOutputBuf@ 00600cb0     dsoundd:dsapi.obj
 0005:0002c2fc       ??_C@_0DB@LJHAPCEP@DirectSound?3?3CDirectSoundBuffer?3@ 00600cdc     dsoundd:dsapi.obj
 0005:0002c338       ??_C@_0BP@ENFJENBA@CDirectSoundBuffer?3?3SetMixBins?$AA@ 00600d18     dsoundd:dsapi.obj
 0005:0002c360       ??_C@_0CM@OEMEGFAO@DirectSound?3?3CDirectSoundBuffer?3@ 00600d40     dsoundd:dsapi.obj
 0005:0002c394       ??_C@_0CF@CFIEOKFB@CDirectSoundBuffer?3?3SetAllParame@ 00600d74     dsoundd:dsapi.obj
 0005:0002c3c0       ??_C@_0DC@HEGKLCOJ@DirectSound?3?3CDirectSoundBuffer?3@ 00600da0     dsoundd:dsapi.obj
 0005:0002c3fc       ??_C@_0CC@GKILFNCM@CDirectSoundBuffer?3?3SetConeAngle@ 00600ddc     dsoundd:dsapi.obj
 0005:0002c424       ??_C@_0CP@KPNAJCKM@DirectSound?3?3CDirectSoundBuffer?3@ 00600e04     dsoundd:dsapi.obj
 0005:0002c45c       ??_C@_0CH@BJHPKLFJ@CDirectSoundBuffer?3?3SetConeOrien@ 00600e3c     dsoundd:dsapi.obj
 0005:0002c48c       ??_C@_0DE@FANDAHMB@DirectSound?3?3CDirectSoundBuffer?3@ 00600e6c     dsoundd:dsapi.obj
 0005:0002c4cc       ??_C@_0CJ@FPOKJAEF@CDirectSoundBuffer?3?3SetConeOutsi@ 00600eac     dsoundd:dsapi.obj
 0005:0002c500       ??_C@_0DG@DJBCDGDI@DirectSound?3?3CDirectSoundBuffer?3@ 00600ee0     dsoundd:dsapi.obj
 0005:0002c540       ??_C@_0CD@LECKPDBD@CDirectSoundBuffer?3?3SetMaxDistan@ 00600f20     dsoundd:dsapi.obj
 0005:0002c56c       ??_C@_0DA@FJFHCLPM@DirectSound?3?3CDirectSoundBuffer?3@ 00600f4c     dsoundd:dsapi.obj
 0005:0002c5a8       ??_C@_0CD@CEFJODPJ@CDirectSoundBuffer?3?3SetMinDistan@ 00600f88     dsoundd:dsapi.obj
 0005:0002c5d4       ??_C@_0DA@MJCEDLBG@DirectSound?3?3CDirectSoundBuffer?3@ 00600fb4     dsoundd:dsapi.obj
 0005:0002c610       ??_C@_0BM@KCLFGBIJ@CDirectSoundBuffer?3?3SetMode?$AA@ 00600ff0     dsoundd:dsapi.obj
 0005:0002c634       ??_C@_0CJ@MDIALGKF@DirectSound?3?3CDirectSoundBuffer?3@ 00601014     dsoundd:dsapi.obj
 0005:0002c668       ??_C@_0CA@CJDDDDA@CDirectSoundBuffer?3?3SetPosition?$AA@ 00601048     dsoundd:dsapi.obj
 0005:0002c690       ??_C@_0CN@PIDFJDHL@DirectSound?3?3CDirectSoundBuffer?3@ 00601070     dsoundd:dsapi.obj
 0005:0002c6c8       ??_C@_0CA@GALGNKNN@CDirectSoundBuffer?3?3SetVelocity?$AA@ 006010a8     dsoundd:dsapi.obj
 0005:0002c6f0       ??_C@_0CN@JKBAHKJG@DirectSound?3?3CDirectSoundBuffer?3@ 006010d0     dsoundd:dsapi.obj
 0005:0002c728       ??_C@_0CG@OMPMKPGG@CDirectSoundBuffer?3?3SetDistanceF@ 00601108     dsoundd:dsapi.obj
 0005:0002c758       ??_C@_0DD@CJBHHKIA@DirectSound?3?3CDirectSoundBuffer?3@ 00601138     dsoundd:dsapi.obj
 0005:0002c798       ??_C@_0CF@DNKDAAOC@CDirectSoundBuffer?3?3SetDopplerFa@ 00601178     dsoundd:dsapi.obj
 0005:0002c7c4       ??_C@_0DC@GMENFIFK@DirectSound?3?3CDirectSoundBuffer?3@ 006011a4     dsoundd:dsapi.obj
 0005:0002c800       ??_C@_0CF@CEGGDJFO@CDirectSoundBuffer?3?3SetRolloffFa@ 006011e0     dsoundd:dsapi.obj
 0005:0002c82c       ??_C@_0DC@HFIIGBOG@DirectSound?3?3CDirectSoundBuffer?3@ 0060120c     dsoundd:dsapi.obj
 0005:0002c868       ??_C@_0CE@LIPCEEAM@CDirectSoundBuffer?3?3SetRolloffCu@ 00601248     dsoundd:dsapi.obj
 0005:0002c894       ??_C@_0DB@IIKKMGDN@DirectSound?3?3CDirectSoundBuffer?3@ 00601274     dsoundd:dsapi.obj
 0005:0002c8d0       ??_C@_0CD@HPKGJBBG@CDirectSoundBuffer?3?3SetI3DL2Sour@ 006012b0     dsoundd:dsapi.obj
 0005:0002c8fc       ??_C@_0DA@JCNLEJPJ@DirectSound?3?3CDirectSoundBuffer?3@ 006012dc     dsoundd:dsapi.obj
 0005:0002c938       ??_C@_0CB@EFAECKOL@CDirectSoundStream?3?3SetFrequency@ 00601318     dsoundd:dsapi.obj
 0005:0002c960       ??_C@_0CO@KEPABEFD@DirectSound?3?3CDirectSoundStream?3@ 00601340     dsoundd:dsapi.obj
 0005:0002c998       ??_C@_0CE@HMGNJNIP@CDirectSoundStream?3?3SetOutputBuf@ 00601378     dsoundd:dsapi.obj
 0005:0002c9c4       ??_C@_0DB@EMDFBPLO@DirectSound?3?3CDirectSoundStream?3@ 006013a4     dsoundd:dsapi.obj
 0005:0002ca00       ??_C@_0BP@JBGAKHBK@CDirectSoundStream?3?3SetMixBins?$AA@ 006013e0     dsoundd:dsapi.obj
 0005:0002ca28       ??_C@_0CM@DIPNIPAE@DirectSound?3?3CDirectSoundStream?3@ 00601408     dsoundd:dsapi.obj
 0005:0002ca5c       ??_C@_0CF@OPMLGNDG@CDirectSoundStream?3?3SetAllParame@ 0060143c     dsoundd:dsapi.obj
 0005:0002ca88       ??_C@_0DC@LOCFDFIO@DirectSound?3?3CDirectSoundStream?3@ 00601468     dsoundd:dsapi.obj
 0005:0002cac4       ??_C@_0CC@JMIIELEI@CDirectSoundStream?3?3SetConeAngle@ 006014a4     dsoundd:dsapi.obj
 0005:0002caec       ??_C@_0CP@FJNDIEMI@DirectSound?3?3CDirectSoundStream?3@ 006014cc     dsoundd:dsapi.obj
 0005:0002cb24       ??_C@_0CH@EABPIKPF@CDirectSoundStream?3?3SetConeOrien@ 00601504     dsoundd:dsapi.obj
 0005:0002cb54       ??_C@_0DE@JLDCGGN@DirectSound?3?3CDirectSoundStream?3@ 00601534     dsoundd:dsapi.obj
 0005:0002cb94       ??_C@_0CJ@BBDBCKJO@CDirectSoundStream?3?3SetConeOutsi@ 00601574     dsoundd:dsapi.obj
 0005:0002cbc8       ??_C@_0DG@HHMJIMOD@DirectSound?3?3CDirectSoundStream?3@ 006015a8     dsoundd:dsapi.obj
 0005:0002cc08       ??_C@_0CD@POADFFEE@CDirectSoundStream?3?3SetMaxDistan@ 006015e8     dsoundd:dsapi.obj
 0005:0002cc34       ??_C@_0DA@BDHOINKL@DirectSound?3?3CDirectSoundStream?3@ 00601614     dsoundd:dsapi.obj
 0005:0002cc70       ??_C@_0CD@GOHAEFKO@CDirectSoundStream?3?3SetMinDistan@ 00601650     dsoundd:dsapi.obj
 0005:0002cc9c       ??_C@_0DA@IDANJNEB@DirectSound?3?3CDirectSoundStream?3@ 0060167c     dsoundd:dsapi.obj
 0005:0002ccd8       ??_C@_0BM@KPNNMBKF@CDirectSoundStream?3?3SetMode?$AA@ 006016b8     dsoundd:dsapi.obj
 0005:0002ccfc       ??_C@_0CJ@MOOIBGIJ@DirectSound?3?3CDirectSoundStream?3@ 006016dc     dsoundd:dsapi.obj
 0005:0002cd30       ??_C@_0CA@OCJKODME@CDirectSoundStream?3?3SetPosition?$AA@ 00601710     dsoundd:dsapi.obj
 0005:0002cd58       ??_C@_0CN@BIDMEDIP@DirectSound?3?3CDirectSoundStream?3@ 00601738     dsoundd:dsapi.obj
 0005:0002cd90       ??_C@_0CA@IALPAKCJ@CDirectSoundStream?3?3SetVelocity?$AA@ 00601770     dsoundd:dsapi.obj
 0005:0002cdb8       ??_C@_0CN@HKBJKKGC@DirectSound?3?3CDirectSoundStream?3@ 00601798     dsoundd:dsapi.obj
 0005:0002cdf0       ??_C@_0CG@DPOABEBK@CDirectSoundStream?3?3SetDistanceF@ 006017d0     dsoundd:dsapi.obj
 0005:0002ce20       ??_C@_0DD@PKALMBPM@DirectSound?3?3CDirectSoundStream?3@ 00601800     dsoundd:dsapi.obj
 0005:0002ce60       ??_C@_0CF@PHOMIHIF@CDirectSoundStream?3?3SetDopplerFa@ 00601840     dsoundd:dsapi.obj
 0005:0002ce8c       ??_C@_0DC@KGACNPDN@DirectSound?3?3CDirectSoundStream?3@ 0060186c     dsoundd:dsapi.obj
 0005:0002cec8       ??_C@_0CF@OOCJLODJ@CDirectSoundStream?3?3SetRolloffFa@ 006018a8     dsoundd:dsapi.obj
 0005:0002cef4       ??_C@_0DC@LPMHOGIB@DirectSound?3?3CDirectSoundStream?3@ 006018d4     dsoundd:dsapi.obj
 0005:0002cf30       ??_C@_0CE@ENLHKJPN@CDirectSoundStream?3?3SetRolloffCu@ 00601910     dsoundd:dsapi.obj
 0005:0002cf5c       ??_C@_0DB@HNOPCLMM@DirectSound?3?3CDirectSoundStream?3@ 0060193c     dsoundd:dsapi.obj
 0005:0002cf98       ??_C@_0CD@DFIPDHEB@CDirectSoundStream?3?3SetI3DL2Sour@ 00601978     dsoundd:dsapi.obj
 0005:0002cfc4       ??_C@_0DA@NIPCOPKO@DirectSound?3?3CDirectSoundStream?3@ 006019a4     dsoundd:dsapi.obj
 0005:0002d000       ??_C@_0BG@EJGPJOEN@Can?8t?5read?5image?5file?$AA@ 006019e0     dsoundd:dsapi.obj
 0005:0002d01c       ??_C@_04ELFAHOMP@BYTE?$AA@ 006019fc     dsoundd:dsapi.obj
 0005:0002d024       ??_C@_0BG@GIBIPBEG@Can?8t?5find?5image?5file?$AA@ 00601a04     dsoundd:dsapi.obj
 0005:0002d040       ??_C@_0BJ@OLHLOOOG@Can?8t?5read?5image?5section?$AA@ 00601a20     dsoundd:dsapi.obj
 0005:0002d060       ??_C@_0BF@HCGENJOL@Can?8t?5get?5image?5size?$AA@ 00601a40     dsoundd:dsapi.obj
 0005:0002d07c       ??_C@_0BJ@MLCKJCNB@Can?8t?5find?5image?5section?$AA@ 00601a5c     dsoundd:dsapi.obj
 0005:0002d0a0       ??_C@_0GA@HGPLGPOH@The?5DirectSound?5object?5must?5have@ 00601a80     dsoundd:dsapi.obj
 0005:0002d114       ??_C@_0BH@KEPMOGMH@No?5image?5name?5supplied?$AA@ 00601af4     dsoundd:dsapi.obj
 0005:0002d130       ??_C@_0BL@OHILMFNA@XAudioDownloadEffectsImage?$AA@ 00601b10     dsoundd:dsapi.obj
 0005:0002d150       ??_C@_0BD@BIPCHPDD@Invalid?5effectType?$AA@ 00601b30     dsoundd:dsapi.obj
 0005:0002d168       ??_C@_0FJ@COPHJDDL@The?5DirectSound?5object?5must?5have@ 00601b48     dsoundd:dsapi.obj
 0005:0002d1d4       ??_C@_0BM@KNPEPNPE@Invalid?5flPostFilterQ?5value?$AA@ 00601bb4     dsoundd:dsapi.obj
 0005:0002d1f8       ??_C@_0CE@HHKLEGHA@Invalid?5flPostFilterFrequency?5va@ 00601bd8     dsoundd:dsapi.obj
 0005:0002d224       ??_C@_0BL@OLBLNFMP@Invalid?5flPreFilterQ?5value?$AA@ 00601c04     dsoundd:dsapi.obj
 0005:0002d244       ??_C@_0CD@GDPPHKBO@Invalid?5flPreFilterFrequency?5val@ 00601c24     dsoundd:dsapi.obj
 0005:0002d270       ??_C@_0BC@GPOJKEMD@Invalid?5flQ?5value?$AA@ 00601c50     dsoundd:dsapi.obj
 0005:0002d288       ??_C@_0BK@GCHDBKIO@Invalid?5flFrequency?5value?$AA@ 00601c68     dsoundd:dsapi.obj
 0005:0002d2a8       ??_C@_0BM@IOADAE@Invalid?5flHFReference?5value?$AA@ 00601c88     dsoundd:dsapi.obj
 0005:0002d2cc       ??_C@_0BI@BDIIEOGO@Invalid?5flDensity?5value?$AA@ 00601cac     dsoundd:dsapi.obj
 0005:0002d2e8       ??_C@_0BK@POIFFNNC@Invalid?5flDiffusion?5value?$AA@ 00601cc8     dsoundd:dsapi.obj
 0005:0002d308       ??_C@_0BM@HKPBDOAD@Invalid?5flReverbDelay?5value?$AA@ 00601ce8     dsoundd:dsapi.obj
 0005:0002d32c       ??_C@_0BG@GHFHGCHH@Invalid?5lReverb?5value?$AA@ 00601d0c     dsoundd:dsapi.obj
 0005:0002d348       ??_C@_0CB@MLJGFPIP@Invalid?5flReflectionsDelay?5value@ 00601d28     dsoundd:dsapi.obj
 0005:0002d370       ??_C@_0BL@HHFHHHAL@Invalid?5lReflections?5value?$AA@ 00601d50     dsoundd:dsapi.obj
 0005:0002d390       ??_C@_0BN@DIPMFMJF@Invalid?5flDecayHFRatio?5value?$AA@ 00601d70     dsoundd:dsapi.obj
 0005:0002d3b4       ??_C@_0BK@JLJBHPAG@Invalid?5flDecayTime?5value?$AA@ 00601d94     dsoundd:dsapi.obj
 0005:0002d3d4       ??_C@_0BE@HFKCBCAL@XAudioSetEffectData?$AA@ 00601db4     dsoundd:dsapi.obj
 0005:0002d3ec       ??_C@_0O@BDJHBCAD@pDesc?5?$CB?$DN?5NULL?$AA@ 00601dcc     dsoundd:dsapi.obj
 0005:0002d400       ??_C@_0L@LIGCIMFC@pwfxFormat?$AA@ 00601de0     dsoundd:dsapi.obj
 0005:0002d410       ??_C@_0DB@PBGOEEGF@Can?8t?5call?5SetFormat?5on?5MIXIN?1FX@ 00601df0     dsoundd:dsapi.obj
 0005:0002d44c       ??_C@_0BH@DNJAKINH@3D?5voices?5must?5be?5mono?$AA@ 00601e2c     dsoundd:dsapi.obj
 0005:0002d468       ??_C@_0BF@MLGENCEK@Invalid?5voice?5format?$AA@ 00601e48     dsoundd:dsapi.obj
 0005:0002d484       ??_C@_0CB@NOFDNCJP@Failed?5to?5specify?5a?5voice?5format@ 00601e64     dsoundd:dsapi.obj
 0005:0002d4ac       ??_C@_0BN@BIDNGHJN@CDirectSoundVoice?3?3SetFormat?$AA@ 00601e8c     dsoundd:dsapi.obj
 0005:0002d4d0       ??_C@_0CG@PFGHNCIF@NULL?5buffer?5with?5non?9zero?5buffer@ 00601eb0     dsoundd:dsapi.obj
 0005:0002d500       ??_C@_0CM@NMHIIO@0?9sized?5buffer?5with?5non?9NULL?5buf@ 00601ee0     dsoundd:dsapi.obj
 0005:0002d534       ??_C@_0DF@GFELOMGG@Can?8t?5call?5SetBufferData?5on?5MIXI@ 00601f14     dsoundd:dsapi.obj
 0005:0002d574       ??_C@_0CC@PACDNNME@CDirectSoundBuffer?3?3SetBufferDat@ 00601f54     dsoundd:dsapi.obj
 0005:0002d59c       ??_C@_0CG@EHBOJDKJ@CDirectSound3DCalculator?3?3Calcul@ 00601f7c     dsoundd:dsapi.obj
 0005:0002d5cc       ??_C@_0DF@GGPLDFE@?$CB?$CIpBuffer?9?$DOdwValidMask?5?$CG?5?$HODS3DCA@ 00601fac     dsoundd:dsapi.obj
 0005:0002d60c       ??_C@_0DG@DCEFLJMA@?$CB?$CIpBuffer?9?$DOdwChangeMask?5?$CG?5?$HODS3DC@ 00601fec     dsoundd:dsapi.obj
 0005:0002d64c       ??_C@_0DJ@GOMKPDCH@?$CB?$CIpListener?9?$DOdwValidMask?5?$CG?5?$HODS3D@ 0060202c     dsoundd:dsapi.obj
 0005:0002d690       ??_C@_0DK@FDMLBINE@?$CB?$CIpListener?9?$DOdwChangeMask?5?$CG?5?$HODS3@ 00602070     dsoundd:dsapi.obj
 0005:0002d6d8       ??_C@_0BO@PKKBNDKL@CDirectSoundBuffer?3?3SetFormat?$AA@ 006020b8     dsoundd:dsapi.obj
 0005:0002d6fc       ??_C@_0CL@NLCHJOEH@DirectSound?3?3CDirectSoundBuffer?3@ 006020dc     dsoundd:dsapi.obj
 0005:0002d730       ??_C@_0BO@BFEGBGIF@CDirectSoundStream?3?3SetFormat?$AA@ 00602110     dsoundd:dsapi.obj
 0005:0002d754       ??_C@_0CL@DEMAFLGJ@DirectSound?3?3CDirectSoundStream?3@ 00602134     dsoundd:dsapi.obj
 0005:0002d788       ??_C@_0M@BILKPJIE@?$CBdwRefCount?$AA@ 00602168     dsoundd:dsapi.obj
 0005:0002d798       ??_C@_0BI@FJJJKECJ@m_apKeepAliveBuffers?$FLi?$FN?$AA@ 00602178     dsoundd:dsapi.obj
 0005:0002d7b4       ??_C@_0BG@JLDLGICF@CDirectSound?3?3Release?$AA@ 00602194     dsoundd:dsapi.obj
 0005:0002d7d0       ??_C@_0CF@CKEHDPPH@CDirectSound?3?3CommitDeferredSett@ 006021b0     dsoundd:dsapi.obj
 0005:0002d7fc       ??_C@_0BC@CKJCOOJA@DS3DCALCVOICEDATA?$AA@ 006021dc     dsoundd:dsapi.obj
 0005:0002d814       ??_C@_0P@DEHJKFBP@DS3DBUFFERBLOB?$AA@ 006021f4     dsoundd:dsapi.obj
 0005:0002d828       ??_C@_0DE@ODMOHDOO@CMcpxBuffer?$CIm_pDirectSound?9?$DOm_pD@ 00602208     dsoundd:dsapi.obj
 0005:0002d868       ??_C@_0BL@HAPJOIIA@CDirectSoundBufferSettings?$AA@ 00602248     dsoundd:dsapi.obj
 0005:0002d888       ??_C@_0EK@HFJPEKNE@The?5input?5mixbin?5for?5an?5FXIN?1FXI@ 00602268     dsoundd:dsapi.obj
 0005:0002d8e0       ??_C@_0EI@PCDOEANA@Don?8t?5assign?5a?5voice?5to?5DSMIXBIN@ 006022c0     dsoundd:dsapi.obj
 0005:0002d938       ??_C@_0EK@MJHAJPJB@Specifying?5mixbins?5will?5override@ 00602318     dsoundd:dsapi.obj
 0005:0002d990       ??_C@_0JG@LMKCBGGI@You?5must?5call?5one?5of?5the?53D?5algo@ 00602370     dsoundd:dsapi.obj
 0005:0002da44       ??_C@_0CH@JDDMLFNJ@CTRL3D?5and?5HW3D?5are?5mutually?5exc@ 00602424     dsoundd:dsapi.obj
 0005:0002da74       ??_C@_0CO@MCFCIGDO@Buffer?5size?5not?5a?5multiple?5of?5th@ 00602454     dsoundd:dsapi.obj
 0005:0002daac       ??_C@_0BK@LGHHILEA@Buffer?5size?5out?9of?9bounds?$AA@ 0060248c     dsoundd:dsapi.obj
 0005:0002dacc       ??_C@_0BG@EBJBIGK@Invalid?5buffer?5format?$AA@ 006024ac     dsoundd:dsapi.obj
 0005:0002dae8       ??_C@_0CC@PCLFAJDB@Failed?5to?5specify?5a?5buffer?5forma@ 006024c8     dsoundd:dsapi.obj
 0005:0002db10       ??_C@_0DF@BOELDJPK@dwBufferBytes?5for?5MIXIN?1FXIN?1FXI@ 006024f0     dsoundd:dsapi.obj
 0005:0002db50       ??_C@_0DG@FMBPJLEH@lpwfxFormat?5for?5MIXIN?1FXIN?1FXIN2@ 00602530     dsoundd:dsapi.obj
 0005:0002db90       ??_C@_0DH@NFBEJJHG@MIXIN?1FXIN?1FXIN2?5buffers?5can?8t?5h@ 00602570     dsoundd:dsapi.obj
 0005:0002dbd4       ??_C@_0DD@PDFKEFAG@MIXIN?1FXIN?5buffers?5can?8t?5be?5LOCD@ 006025b4     dsoundd:dsapi.obj
 0005:0002dc14       ??_C@_0BO@GPLLBHKB@Specified?5invalid?5flags?5?$CI?$CFlx?$CJ?$AA@ 006025f4     dsoundd:dsapi.obj
 0005:0002dc38       ??_C@_0BM@JKLCLPIK@DSBUFFERDESC?5size?5not?5valid?$AA@ 00602618     dsoundd:dsapi.obj
 0005:0002dc5c       ??_C@_0BK@FJGLMMBO@DSBUFFERDESC?5not?5supplied?$AA@ 0060263c     dsoundd:dsapi.obj
 0005:0002dc7c       ??_C@_0BP@GDHCLLJF@CDirectSoundBuffer?3?3Initialize?$AA@ 0060265c     dsoundd:dsapi.obj
 0005:0002dca4       ??_C@_0DE@HMPJBIGK@CMcpxStream?$CIm_pDirectSound?9?$DOm_pD@ 00602684     dsoundd:dsapi.obj
 0005:0002dce4       ??_C@_0BL@HFDDPKAK@CDirectSoundStreamSettings?$AA@ 006026c4     dsoundd:dsapi.obj
 0005:0002dd04       ??_C@_0CI@DAKNOCIC@dwMaxAttachedPackets?5must?5be?5at?5@ 006026e4     dsoundd:dsapi.obj
 0005:0002dd38       ??_C@_0IN@GKOBELCK@You?5must?5call?5one?5of?5the?53D?5algo@ 00602718     dsoundd:dsapi.obj
 0005:0002dde4       ??_C@_0BI@MKKMDBFH@3D?5streams?5must?5be?5mono?$AA@ 006027c4     dsoundd:dsapi.obj
 0005:0002de00       ??_C@_0BG@MOFMIBKN@Invalid?5stream?5format?$AA@ 006027e0     dsoundd:dsapi.obj
 0005:0002de1c       ??_C@_0CC@DIPAJAPG@Failed?5to?5specify?5a?5stream?5forma@ 006027fc     dsoundd:dsapi.obj
 0005:0002de44       ??_C@_0BK@KMCOCBOP@DSSTREAMDESC?5not?5supplied?$AA@ 00602824     dsoundd:dsapi.obj
 0005:0002de64       ??_C@_0BP@LPELFBJP@CDirectSoundStream?3?3Initialize?$AA@ 00602844     dsoundd:dsapi.obj
 0005:0002de8c       ??_C@_0BJ@EJCJDDEP@CDirectSoundBuffer?$CIthis?$CJ?$AA@ 0060286c     dsoundd:dsapi.obj
 0005:0002deac       ??_C@_0BN@KMLCCGBC@Aggregation?5is?5not?5supported?$AA@ 0060288c     dsoundd:dsapi.obj
 0005:0002ded0       ??_C@_0CK@GPJEHCOH@Failed?5to?5supply?5an?5LPDIRECTSOUN@ 006028b0     dsoundd:dsapi.obj
 0005:0002df04       ??_C@_0CA@BHGIECKP@CDirectSound?3?3CreateSoundBuffer?$AA@ 006028e4     dsoundd:dsapi.obj
 0005:0002df2c       ??_C@_0BJ@LGHCHOLO@CDirectSoundStream?$CIthis?$CJ?$AA@ 0060290c     dsoundd:dsapi.obj
 0005:0002df4c       ??_C@_0CK@PAHKAPDB@Failed?5to?5supply?5an?5LPDIRECTSOUN@ 0060292c     dsoundd:dsapi.obj
 0005:0002df80       ??_C@_0CA@FABLDOJO@CDirectSound?3?3CreateSoundStream?$AA@ 00602960     dsoundd:dsapi.obj
 0005:0002dfa8       ??_C@_0BE@FGABALFI@Invalid?5orientation?$AA@ 00602988     dsoundd:dsapi.obj
 0005:0002dfc0       ??_C@_0BJ@BIBJPPFF@Structure?5size?5too?5small?$AA@ 006029a0     dsoundd:dsapi.obj
 0005:0002dfe0       ??_C@_0BE@GEFIHGFG@Buffer?5not?5supplied?$AA@ 006029c0     dsoundd:dsapi.obj
 0005:0002dff8       ??_C@_0BP@LDBBLBOO@CDirectSound?3?3SetAllParameters?$AA@ 006029d8     dsoundd:dsapi.obj
 0005:0002e020       ??_C@_0CA@LHLEJECA@CDirectSound?3?3SetDistanceFactor?$AA@ 00602a00     dsoundd:dsapi.obj
 0005:0002e048       ??_C@_0BP@KLDGFLFN@CDirectSound?3?3SetDopplerFactor?$AA@ 00602a28     dsoundd:dsapi.obj
 0005:0002e070       ??_C@_0BP@LCPDGCOB@CDirectSound?3?3SetRolloffFactor?$AA@ 00602a50     dsoundd:dsapi.obj
 0005:0002e098       ??_C@_0BN@ILJEPEOP@CDirectSound?3?3SetOrientation?$AA@ 00602a78     dsoundd:dsapi.obj
 0005:0002e0bc       ??_C@_0BK@NBPMIOHF@CDirectSound?3?3SetPosition?$AA@ 00602a9c     dsoundd:dsapi.obj
 0005:0002e0dc       ??_C@_0BK@LDNJGHJI@CDirectSound?3?3SetVelocity?$AA@ 00602abc     dsoundd:dsapi.obj
 0005:0002e100       ??_C@_0EM@OHHHODMJ@Can?8t?5set?5I3DL2?5listener?5propert@ 00602ae0     dsoundd:dsapi.obj
 0005:0002e15c       ??_C@_0BM@OHFOFNJM@Failed?5to?5supply?5properties?$AA@ 00602b3c     dsoundd:dsapi.obj
 0005:0002e180       ??_C@_0BP@GMOAAAC@CDirectSound?3?3SetI3DL2Listener?$AA@ 00602b60     dsoundd:dsapi.obj
 0005:0002e1c0       ??_C@_04ILLECDIN@WORD?$AA@ 00602ba0     dsoundd:dsapi.obj
 0005:0002e1c8       ??_C@_0BG@LPBBNBKB@CMcpxAPU?$CIm_pSettings?$CJ?$AA@ 00602ba8     dsoundd:dsapi.obj
 0005:0002e1e4       ??_C@_0BF@GBDPHPNJ@CDirectSoundSettings?$AA@ 00602bc4     dsoundd:dsapi.obj
 0005:0002e200       ??_C@_0N@MEHKCAOG@CDirectSound?$AA@ 00602be0     dsoundd:dsapi.obj
 0005:0002e210       ??_C@_0CE@HEGINMCG@Failed?5to?5supply?5an?5LPDIRECTSOUN@ 00602bf0     dsoundd:dsapi.obj
 0005:0002e23c       ??_C@_0DK@JFIBKPKF@NULL?5or?5GUID_NULL?5is?5the?5only?5su@ 00602c1c     dsoundd:dsapi.obj
 0005:0002e284       ??_C@_0BC@GKIGDBEH@DirectSoundCreate?$AA@ 00602c64     dsoundd:dsapi.obj
 0005:0002e2a0       ??_C@_0FE@KMLIIFLK@You?5must?5call?5DirectSoundLoadEnc@ 00602c80     dsoundd:dsapi.obj
 0005:0002e304       ??_C@_0BH@LFFHOEJA@DirectSoundLoadEncoder?$AA@ 00602ce4     dsoundd:dsapi.obj
 0005:0002e320       ?m_asNextStep@CImaAdpcmCodec@DirectSound@@0QBFB 00602d00     dsoundd:dscommon.obj
 0005:0002e340       ?m_asStep@CImaAdpcmCodec@DirectSound@@0QBFB 00602d20     dsoundd:dscommon.obj
 0005:0002e41c       ??_C@_07KAJBENLI@Error?3?5?$AA@ 00602dfc     dsoundd:dscommon.obj
 0005:0002e428       ??_C@_0BD@ELBNBAPH@Resource?5failure?3?5?$AA@ 00602e08     dsoundd:dscommon.obj
 0005:0002e440       ??_C@_09CKCJCCOK@Warning?3?5?$AA@ 00602e20     dsoundd:dscommon.obj
 0005:0002e44c       ??_C@_0N@JJEOJCLG@time?5?$CF?48lx?3?5?$AA@ 00602e2c     dsoundd:dscommon.obj
 0005:0002e45c       ??_C@_0P@DCHKJCKG@thread?5?$CF?48lx?3?5?$AA@ 00602e3c     dsoundd:dscommon.obj
 0005:0002e470       ??_C@_05HFOMLNMD@?$CFhs?3?5?$AA@ 00602e50     dsoundd:dscommon.obj
 0005:0002e478       ??_C@_0L@PAPNLNAE@?$CFhs?$CI?$CFlu?$CJ?3?5?$AA@ 00602e58     dsoundd:dscommon.obj
 0005:0002e488       ??_C@_04PFAOODAA@?$CFs?3?5?$AA@ 00602e68     dsoundd:dscommon.obj
 0005:0002e490       ??_C@_02NDKNKOCB@?3?6?$AA@ 00602e70     dsoundd:dscommon.obj
 0005:0002e494       ??_C@_07BAMMBJFH@?0?5line?5?$AA@ 00602e74     dsoundd:dscommon.obj
 0005:0002e4a0       ??_C@_0BF@DPPFGDJL@Assertion?5failed?5in?5?$AA@ 00602e80     dsoundd:dscommon.obj
 0005:0002e4c0       ??_C@_0EP@LPAKAOHB@?$CK?$CK?$CK?$CK?$CK?$CK?$CK?$CK?$CK?$CK?$CK?$CK?$CK?$CK?$CK?$CK?$CK?$CK?$CK?$CK?$CK?$CK?$CK?$CK?$CK?$CK?$CK?$CK?$CK?$CK?$CK?$CK@ 00602ea0     dsoundd:dscommon.obj
 0005:0002e520       ??_C@_0BD@EKDKBHPJ@Out?5of?5pool?5memory?$AA@ 00602f00     dsoundd:dscommon.obj
 0005:0002e538       ??_C@_0BK@BFDMGCLI@CMemoryManager?3?3PoolAlloc?$AA@ 00602f18     dsoundd:dscommon.obj
 0005:0002e558       ??_C@_08DNIHDBFJ@cbBuffer?$AA@ 00602f38     dsoundd:dscommon.obj
 0005:0002e564       ??_C@_0DJ@NPBEBGO@d?3?2xbox?2private?2windows?2directx?2@ 00602f44     dsoundd:dscommon.obj
 0005:0002e5a8       ??_C@_0CA@LBPCLHHJ@m_dwPoolMemoryUsage?5?$DO?$DN?5cbBuffer?$AA@ 00602f88     dsoundd:dscommon.obj
 0005:0002e5d0       ??_C@_08FADLHADM@pvBuffer?$AA@ 00602fb0     dsoundd:dscommon.obj
 0005:0002e5dc       ??_C@_0BJ@BGANBOHC@Out?5of?5contiguous?5memory?$AA@ 00602fbc     dsoundd:dscommon.obj
 0005:0002e5fc       ??_C@_0BO@GNDANLGM@CMemoryManager?3?3PhysicalAlloc?$AA@ 00602fdc     dsoundd:dscommon.obj
 0005:0002e620       ??_C@_07KIGAHELJ@dwFlags?$AA@ 00603000     dsoundd:dscommon.obj
 0005:0002e62c       ??_C@_0CE@EHAFMALM@m_dwPhysicalMemoryUsage?5?$DO?$DN?5cbBuf@ 0060300c     dsoundd:dscommon.obj
 0005:0002e658       ??_C@_0DC@OLMEENNO@DSOUND_ALLOCATOR_SLOP?5?$DN?$DN?5?$CK?$CI?$CILPDW@ 00603038     dsoundd:dscommon.obj
 0005:0002e694       ??_C@_0BE@FMKOLKGH@Invalid?5memory?5free?$AA@ 00603074     dsoundd:dscommon.obj
 0005:0002e6ac       ??_C@_0CA@GADDBPNL@Slop?5memory?5heap?5does?5not?5exist?$AA@ 0060308c     dsoundd:dscommon.obj
 0005:0002e6d4       ??_C@_04JNFLDEGE@pwfx?$AA@ 006030b4     dsoundd:dscommon.obj
 0005:0002e6dc       ??_C@_0DJ@PPACANGE@d?3?2xbox?2private?2windows?2directx?2@ 006030bc     dsoundd:dscommon.obj
 0005:0002e720       ??_C@_0BN@OLFDGMMG@pSource?9?$DOnBlockAlign?5?$DM?$DN?50xFF?$AA@ 00603100     dsoundd:dscommon.obj
 0005:0002e744       ??_C@_0CA@PIODLKGG@pSource?9?$DOwBitsPerSample?5?$DM?$DN?50xFF?$AA@ 00603124     dsoundd:dscommon.obj
 0005:0002e76c       ??_C@_0BL@KKKKMHLO@pSource?9?$DOnChannels?5?$DM?$DN?50xFF?$AA@ 0060314c     dsoundd:dscommon.obj
 0005:0002e78c       ??_C@_07HPANBCJA@pSource?$AA@ 0060316c     dsoundd:dscommon.obj
 0005:0002e798       ??_C@_05PJHAMANO@pDest?$AA@ 00603178     dsoundd:dscommon.obj
 0005:0002e7a0       ??_C@_0BE@CNMNFPGH@Bad?5block?5alignment?$AA@ 00603180     dsoundd:dscommon.obj
 0005:0002e7b8       ??_C@_0BG@JMHMKDN@Invalid?5sampling?5rate?$AA@ 00603198     dsoundd:dscommon.obj
 0005:0002e7d4       ??_C@_0BO@PGNHDJHJ@Invalid?5sample?5bit?5resolution?$AA@ 006031b4     dsoundd:dscommon.obj
 0005:0002e7f8       ??_C@_0BG@LMINNPNJ@Invalid?5channel?5count?$AA@ 006031d8     dsoundd:dscommon.obj
 0005:0002e814       ??_C@_0BD@MNFLEIKF@Format?5tag?5not?5PCM?$AA@ 006031f4     dsoundd:dscommon.obj
 0005:0002e82c       ??_C@_0BN@IFFDBLPG@WaveFormat?3?3IsValidPcmFormat?$AA@ 0060320c     dsoundd:dscommon.obj
 0005:0002e850       ??_C@_0CB@OIKDEMKO@pSource?9?$DOwfx?4nBlockAlign?5?$DM?$DN?50xFF@ 00603230     dsoundd:dscommon.obj
 0005:0002e878       ??_C@_0CE@JGBOPGED@pSource?9?$DOwfx?4wBitsPerSample?5?$DM?$DN?50@ 00603258     dsoundd:dscommon.obj
 0005:0002e8a4       ??_C@_0BP@BHADMBB@pSource?9?$DOwfx?4nChannels?5?$DM?$DN?50xFF?$AA@ 00603284     dsoundd:dscommon.obj
 0005:0002e8cc       ??_C@_0BE@OGFJBCGA@Bad?5block?9alignment?$AA@ 006032ac     dsoundd:dscommon.obj
 0005:0002e8e4       ??_C@_0BK@COGBELGK@Invalid?5samples?5per?5block?$AA@ 006032c4     dsoundd:dscommon.obj
 0005:0002e904       ??_C@_0P@NDFBNMGN@cbSize?5not?5?$CFlu?$AA@ 006032e4     dsoundd:dscommon.obj
 0005:0002e918       ??_C@_0BK@IAKEEFCK@Format?5tag?5not?5XBOX_ADPCM?$AA@ 006032f8     dsoundd:dscommon.obj
 0005:0002e938       ??_C@_0BP@DHOFLMLF@WaveFormat?3?3IsValidAdpcmFormat?$AA@ 00603318     dsoundd:dscommon.obj
 0005:0002e960       ??_C@_0BF@GEHOBCDM@Unexpected?5subformat?$AA@ 00603340     dsoundd:dscommon.obj
 0005:0002e97c       ??_C@_0BF@JKCBDHDB@Invalid?5channel?5mask?$AA@ 0060335c     dsoundd:dscommon.obj
 0005:0002e998       ??_C@_0BO@BCDFCNJM@Invalid?5sub?9format?5identifier?$AA@ 00603378     dsoundd:dscommon.obj
 0005:0002e9bc       ??_C@_0CL@COHEJKAA@wReserved?5must?5be?50?5for?5SUBTYPE_@ 0060339c     dsoundd:dscommon.obj
 0005:0002e9f0       ??_C@_0CE@OINPDAHG@wReserved?5must?5be?50?5for?5SUBTYPE_@ 006033d0     dsoundd:dscommon.obj
 0005:0002ea1c       ??_C@_0BK@FCNDIHOL@Format?5tag?5not?5EXTENSIBLE?$AA@ 006033fc     dsoundd:dscommon.obj
 0005:0002ea3c       ??_C@_0CE@BDDCNENN@WaveFormat?3?3IsValidExtensibleFor@ 0060341c     dsoundd:dscommon.obj
 0005:0002ea68       ??_C@_0CF@CEKMADFG@Error?5?$CFlu?5occurred?5trying?5to?5ope@ 00603448     dsoundd:dscommon.obj
 0005:0002ea94       ??_C@_0BF@IINNEHHF@CStdFileStream?3?3Open?$AA@ 00603474     dsoundd:dscommon.obj
 0005:0002eab0       ??_C@_0CA@KOCFKEKK@?$CBIS_VALID_HANDLE_VALUE?$CIm_hFile?$CJ?$AA@ 00603490     dsoundd:dscommon.obj
 0005:0002ead8       ??_C@_0DK@HHLPHDFH@d?3?2xbox?2private?2windows?2directx?2@ 006034b8     dsoundd:dscommon.obj
 0005:0002eb20       ??_C@_0CH@JEFGPKIM@Not?5enough?5data?5was?5read?5from?5th@ 00603500     dsoundd:dscommon.obj
 0005:0002eb50       ??_C@_0M@LENIOPMB@pOverlapped?$AA@ 00603530     dsoundd:dscommon.obj
 0005:0002eb60       ??_C@_0CJ@EBECGKOP@Error?5?$CFlu?5occurred?5reading?5from?5@ 00603540     dsoundd:dscommon.obj
 0005:0002eb94       ??_C@_0BF@IKIMPDLN@CStdFileStream?3?3Read?$AA@ 00603574     dsoundd:dscommon.obj
 0005:0002ebb0       ??_C@_0BP@BFEOIFMP@IS_VALID_HANDLE_VALUE?$CIm_hFile?$CJ?$AA@ 00603590     dsoundd:dscommon.obj
 0005:0002ebd8       ??_C@_0CK@PPGKDJFB@Not?5enough?5data?5was?5written?5from@ 006035b8     dsoundd:dscommon.obj
 0005:0002ec0c       ??_C@_0CH@HNBEJLKA@Error?5?$CFlu?5occurred?5writing?5to?5th@ 006035ec     dsoundd:dscommon.obj
 0005:0002ec3c       ??_C@_0BG@PGEPINJO@CStdFileStream?3?3Write?$AA@ 0060361c     dsoundd:dscommon.obj
 0005:0002ec58       ??_C@_0CE@IKNCKFMB@Error?5?$CFlu?5occurred?5seeking?5the?5f@ 00603638     dsoundd:dscommon.obj
 0005:0002ec84       ??_C@_0BF@DHHNGOBO@CStdFileStream?3?3Seek?$AA@ 00603664     dsoundd:dscommon.obj
 0005:0002eca0       ??_C@_0HJ@BBFDBDGN@?$CIdwOrigin?5?$CB?$DN?5FILE_END?$CJ?5?$CG?$CG?5?$CCIf?5ca@ 00603680     dsoundd:dscommon.obj
 0005:0002ed34       ??_C@_0CK@HKLDFKFN@Error?5?$CFlu?5attempting?5to?5get?5the?5@ 00603714     dsoundd:dscommon.obj
 0005:0002ed68       ??_C@_0BK@HKFPFMIN@CStdFileStream?3?3GetLength?$AA@ 00603748     dsoundd:dscommon.obj
 0005:0002ed88       ??_C@_0CA@CGFPCDPE@Error?5?$CFlu?5attempting?5to?5set?5EOF?$AA@ 00603768     dsoundd:dscommon.obj
 0005:0002edb0       ??_C@_0BH@LOMDAALM@CStdFileStream?3?3SetEOF?$AA@ 00603790     dsoundd:dscommon.obj
 0005:0002edcc       ??_C@_0BF@CDBIJMLD@Found?5chunk?5?$CFc?$CFc?$CFc?$CFc?$AA@ 006037ac     dsoundd:dscommon.obj
 0005:0002ede8       ??_C@_0BL@LPHCJFKC@Looking?5for?5chunk?5?$CFc?$CFc?$CFc?$CFc?$AA@ 006037c8     dsoundd:dscommon.obj
 0005:0002ee08       ??_C@_0BB@JANGAKOO@CRiffChunk?3?3Open?$AA@ 006037e8     dsoundd:dscommon.obj
 0005:0002ee1c       ??_C@_0CM@BMKKIDJB@Attempted?5to?5read?5past?5the?5end?5o@ 006037fc     dsoundd:dscommon.obj
 0005:0002ee50       ??_C@_0BB@JCIHLOCG@CRiffChunk?3?3Read?$AA@ 00603830     dsoundd:dscommon.obj
 0005:0002ee64       ??_C@_0N@NLKBAEGB@m_pwfxFormat?$AA@ 00603844     dsoundd:dscommon.obj
 0005:0002ee74       ??_C@_0CG@JOBMGAMO@WAVELDR_FILETYPE_WAVE?5?$DN?$DN?5m_dwFil@ 00603854     dsoundd:dscommon.obj
 0005:0002eea4       ??_C@_0CC@NCAIELLP@Unsupported?5AIFF?5compression?5typ@ 00603884     dsoundd:dscommon.obj
 0005:0002eecc       ??_C@_0BJ@EIPMIGEK@CWaveFile?3?3GetAiffFormat?$AA@ 006038ac     dsoundd:dscommon.obj
 0005:0002eeec       ??_C@_0CG@EHNKEHDO@WAVELDR_FILETYPE_AIFF?5?$DN?$DN?5m_dwFil@ 006038cc     dsoundd:dscommon.obj
 0005:0002ef1c       ??_C@_0DE@NNGIJGCK@Only?5the?5first?5FORWARD?5or?5RELEAS@ 006038fc     dsoundd:dscommon.obj
 0005:0002ef5c       ??_C@_0BO@GLLFAJJE@No?5FORWARD?5loop?5regions?5found?$AA@ 0060393c     dsoundd:dscommon.obj
 0005:0002ef80       ??_C@_0CF@GLJCFMNE@CStdFileStream?3?3GetWaveDLSLoopRe@ 00603960     dsoundd:dscommon.obj
 0005:0002efac       ??_C@_0CJ@LNLNMGAM@Only?5the?5first?5FORWARD?5loop?5will@ 0060398c     dsoundd:dscommon.obj
 0005:0002efe0       ??_C@_0CG@LFGMNMCI@CStdFileStream?3?3GetWaveMIDILoopR@ 006039c0     dsoundd:dscommon.obj
 0005:0002f010       ??_C@_0BA@NOEFBMFE@8?5?$DN?$DN?5dwBitDepth?$AA@ 006039f0     dsoundd:dscommon.obj
 0005:0002f024       ??_C@_0N@NJJEDOHG@?$CBm_dwWritten?$AA@ 00603a04     dsoundd:dscommon.obj
 0005:0002f034       ??_C@_0BA@LFINGLGJ@?$CBm_dwFormatSize?$AA@ 00603a14     dsoundd:dscommon.obj
 0005:0002f048       ??_C@_0O@FFAFKCIK@?$CBm_pwfxFormat?$AA@ 00603a28     dsoundd:dscommon.obj
 0005:0002f06c       ??_C@_06OFIAKHFO@cbSize?$AA@ 00603a4c     dsoundd:dscommon.obj
 0005:0002f074       ??_C@_0O@EMFGKDKI@pvBaseAddress?$AA@ 00603a54     dsoundd:dscommon.obj
 0005:0002f084       ??_C@_09EIGPELLM@pTracking?$AA@ 00603a64     dsoundd:dscommon.obj
 0005:0002f090       ??_C@_0L@KMPLALNN@plstAllocs?$AA@ 00603a70     dsoundd:dscommon.obj
 0005:0002f0a0       ??_C@_0BI@DPIOIIKP@Tracking?5data?5not?5found?$AA@ 00603a80     dsoundd:dscommon.obj
 0005:0002f0bc       ??_C@_0DH@NPFHALH@m_lstPhysicalAllocs?4Flink?5?$CG?$CG?5m_l@ 00603a9c     dsoundd:dscommon.obj
 0005:0002f100       ??_C@_0BI@JPIKIBNC@?$CFx?5?$CI?$CFlu?5bytes?0?5type?5?$CFs?$CJ?$AA@ 00603ae0     dsoundd:dscommon.obj
 0005:0002f11c       ??_C@_0CB@CGNIILCG@CMemoryManager?3?3DumpTrackingList@ 00603afc     dsoundd:dscommon.obj
 0005:0002f144       ??_C@_0BG@EABPBKPE@Unexpected?5format?5tag?$AA@ 00603b24     dsoundd:dscommon.obj
 0005:0002f160       ??_C@_0BH@NEGDFCOA@Unsupported?5format?5tag?$AA@ 00603b40     dsoundd:dscommon.obj
 0005:0002f17c       ??_C@_0BK@OPJEJGND@WaveFormat?3?3IsValidFormat?$AA@ 00603b5c     dsoundd:dscommon.obj
 0005:0002f19c       ??_C@_0DB@DJLMJNIE@loop?5end?5point?5less?9than?9or?9equa@ 00603b7c     dsoundd:dscommon.obj
 0005:0002f1d8       ??_C@_0BL@NJFKBAAP@Can?8t?5find?5loop?5end?5marker?$AA@ 00603bb8     dsoundd:dscommon.obj
 0005:0002f1f8       ??_C@_0DD@LMHJPJKK@?$CIDWORD?$CJpEndMarker?5?$DM?5?$CIDWORD?$CJpMark@ 00603bd8     dsoundd:dscommon.obj
 0005:0002f238       ??_C@_0BN@NNMJOLHM@Can?8t?5find?5loop?5start?5marker?$AA@ 00603c18     dsoundd:dscommon.obj
 0005:0002f25c       ??_C@_0DF@NNLKMLKP@?$CIDWORD?$CJpStartMarker?5?$DM?5?$CIDWORD?$CJpMa@ 00603c3c     dsoundd:dscommon.obj
 0005:0002f29c       ??_C@_0BI@FNJEOFIE@Neither?5loop?5is?5FORWARD?$AA@ 00603c7c     dsoundd:dscommon.obj
 0005:0002f2b8       ??_C@_0CC@BDOJPMPF@CStdFileStream?3?3GetAiffLoopRegio@ 00603c98     dsoundd:dscommon.obj
 0005:0002f2e0       ??_C@_0CM@HBKMMLMK@WAVE_FORMAT_PCM?5?$DN?$DN?5m_pwfxFormat?9@ 00603cc0     dsoundd:dscommon.obj
 0005:0002f318       ??_C@_0FB@PLEHCMGK@m_lstSlopAllocs?4Flink?5?$CG?$CG?5m_lstSl@ 00603cf8     dsoundd:dscommon.obj
 0005:0002f380       ??_C@_0FB@HAHHOPEJ@m_lstPoolAllocs?4Flink?5?$CG?$CG?5m_lstPo@ 00603d60     dsoundd:dscommon.obj
 0005:0002f3e8       ??_C@_0FN@MHMLJHDB@m_lstPhysicalAllocs?4Flink?5?$CG?$CG?5m_l@ 00603dc8     dsoundd:dscommon.obj
 0005:0002f458       ??_C@_0BO@DMHLABJA@IsListEmpty?$CI?$CGm_lstSlopAllocs?$CJ?$AA@ 00603e38     dsoundd:dscommon.obj
 0005:0002f47c       ??_C@_0BO@JIPDAEAE@IsListEmpty?$CI?$CGm_lstPoolAllocs?$CJ?$AA@ 00603e5c     dsoundd:dscommon.obj
 0005:0002f4a0       ??_C@_0CC@MLMOJAFJ@IsListEmpty?$CI?$CGm_lstPhysicalAllocs@ 00603e80     dsoundd:dscommon.obj
 0005:0002f4c8       ??_C@_0BG@DICBIGIJ@End?5memory?5usage?5dump?$AA@ 00603ea8     dsoundd:dscommon.obj
 0005:0002f4e4       ??_C@_0CA@HBBPMJBE@Physical?5memory?5recovered?3?5?5?$CFlu?$AA@ 00603ec4     dsoundd:dscommon.obj
 0005:0002f50c       ??_C@_0CN@EIKGFANE@Physical?5memory?5available?5for?5re@ 00603eec     dsoundd:dscommon.obj
 0005:0002f544       ??_C@_0BH@OHKIAENG@Pool?5memory?5used?3?5?5?$CFlu?$AA@ 00603f24     dsoundd:dscommon.obj
 0005:0002f560       ??_C@_0BL@OGBIDBPB@Physical?5memory?5used?3?5?5?$CFlu?$AA@ 00603f40     dsoundd:dscommon.obj
 0005:0002f580       ??_C@_0BI@MIBDOIDJ@Begin?5memory?5usage?5dump?$AA@ 00603f60     dsoundd:dscommon.obj
 0005:0002f5a0       ??_C@_0EP@IIFDJHMP@?9?9?9?9?9?9?9?9?9?9?9?9?9?9?9?9?9?9?9?9?9?9?9?9?9?9?9?9?9?9?9?9@ 00603f80     dsoundd:dscommon.obj
 0005:0002f600       ??_C@_0CA@HAOLFHG@CMemoryManager?3?3DumpMemoryUsage?$AA@ 00603fe0     dsoundd:dscommon.obj
 0005:0002f628       ??_C@_0CL@IIKFACCB@The?5file?8s?5AIFF?9C?5version?5is?5not@ 00604008     dsoundd:dscommon.obj
 0005:0002f65c       ??_C@_0CB@CAIFKCHB@The?5file?5type?5is?5not?5AIFF?1AIFF?9C@ 0060403c     dsoundd:dscommon.obj
 0005:0002f684       ??_C@_0BK@OHEGKMMD@The?5file?5type?5is?5not?5WAVE?$AA@ 00604064     dsoundd:dscommon.obj
 0005:0002f6a4       ??_C@_0DB@IJKADIOG@The?5file?5is?5not?5a?5valid?5WAVE?5or?5@ 00604084     dsoundd:dscommon.obj
 0005:0002f6e0       ??_C@_0BA@CGAHBFNM@CWaveFile?3?3Open?$AA@ 006040c0     dsoundd:dscommon.obj
 0005:0002f6f4       ??_C@_0DC@IFKBAFN@?$CIpszFileName?5?$HM?$HM?5hFile?$CJ?5?$CG?$CG?5?$CB?$CIpszF@ 006040d4     dsoundd:dscommon.obj
 0005:0002f730       ??_C@_0EB@CGMCCBGO@?$CIDS3DMODE_NORMAL?5?$DN?$DN?5dwMode?$CJ?5?$HM?$HM?5?$CI@ 00604110     dsoundd:hrtf.obj
 0005:0002f780       ??_C@_0DH@OGLOCFOO@d?3?2xbox?2private?2windows?2directx?2@ 00604160     dsoundd:hrtf.obj
 0005:0002f7c4       ??_C@_0BB@KEDLBNOD@absPdotR?5?$CB?$DN?50?40f?$AA@ 006041a4     dsoundd:hrtf.obj
 0005:0002f7d8       ??_C@_0BB@IKHODMHB@absPdotF?5?$CB?$DN?50?40f?$AA@ 006041b8     dsoundd:hrtf.obj
 0005:0002f7ec       ??_C@_0BB@KJCFGNKE@absPdotT?5?$CB?$DN?50?40f?$AA@ 006041cc     dsoundd:hrtf.obj
 0005:0002f800       ??_C@_0BC@KPOLFBME@magnitude?5?$CB?$DN?50?40f?$AA@ 006041e0     dsoundd:hrtf.obj
 0005:0002f828       ??_C@_09OAPEOEAM@absCplusP?$AA@ 00604208     dsoundd:hrtf.obj
 0005:0002f834       ??_C@_0L@ONHJIINA@absCminusP?$AA@ 00604214     dsoundd:hrtf.obj
 0005:0002f844       ??_C@_0DP@BNGLJLKJ@vConeOrientation?4x?5?$HM?$HM?5vConeOrien@ 00604224     dsoundd:hrtf.obj
 0005:0002f890       ??_C@_0CD@PIIBABKG@dwRolloffPointCount?5?$DN?$DN?5dwNextPoi@ 00604270     dsoundd:hrtf.obj
 0005:0002f8bc       ??_C@_0CI@JLMHHFPG@dwInsideConeAngle?5?$DM?$DN?5dwOutsideCo@ 0060429c     dsoundd:hrtf.obj
 0005:000447f4       ??_C@_0BP@MEAJKBPN@nIndex?5?$DM?5NUMELMS?$CIaFilters?$CJ?5?9?51?$AA@ 006191d4     dsoundd:hrtf.obj
 0005:000459dc       ??_C@_0BH@KGBNEJI@Elevation?5out?5of?5range?$AA@ 0061a3bc     dsoundd:hrtf.obj
 0005:000459f8       ??_C@_0BF@JFFKBGCB@Azimuth?5out?5of?5range?$AA@ 0061a3d8     dsoundd:hrtf.obj
 0005:00045a14       ??_C@_0DA@HCFEIHGE@?$CIflElevation?5?$DO?$DN?5?990?4f?$CJ?5?$CG?$CG?5?$CIflEle@ 0061a3f4     dsoundd:hrtf.obj
 0005:00045a50       ??_C@_0CO@PKKAMPKL@?$CIflAzimuth?5?$DO?$DN?5?9180?4f?$CJ?5?$CG?$CG?5?$CIflAzim@ 0061a430     dsoundd:hrtf.obj
 0005:00046e94       ??_C@_0M@JNJGCGKK@nIndex?5?$DO?$DN?50?$AA@ 0061b874     dsoundd:hrtf.obj
 0005:00046ea4       ??_C@_0N@OHJEPLMN@?$CBflElevation?$AA@ 0061b884     dsoundd:hrtf.obj
 0005:00046eb4       _KSDATAFORMAT_SUBTYPE_XBOX_ADPCM 0061b894     dsoundd:globals.obj
 0005:00046ec8       _KSDATAFORMAT_SUBTYPE_PCM  0061b8a8     dsoundd:globals.obj
 0005:00046edc       _DirectSoundI3DL2ListenerPreset_NoReverb 0061b8bc     dsoundd:globals.obj
 0005:00046f18       _DirectSoundI3DL2ListenerPreset_Underwater 0061b8f8     dsoundd:globals.obj
 0005:00046f54       _DirectSoundI3DL2ListenerPreset_SewerPipe 0061b934     dsoundd:globals.obj
 0005:00046f90       _DirectSoundI3DL2ListenerPreset_ParkingLot 0061b970     dsoundd:globals.obj
 0005:00046fcc       _DirectSoundI3DL2ListenerPreset_Plain 0061b9ac     dsoundd:globals.obj
 0005:00047008       _DirectSoundI3DL2ListenerPreset_Quarry 0061b9e8     dsoundd:globals.obj
 0005:00047044       _DirectSoundI3DL2ListenerPreset_Mountains 0061ba24     dsoundd:globals.obj
 0005:00047080       _DirectSoundI3DL2ListenerPreset_City 0061ba60     dsoundd:globals.obj
 0005:000470bc       _DirectSoundI3DL2ListenerPreset_Forest 0061ba9c     dsoundd:globals.obj
 0005:000470f8       _DirectSoundI3DL2ListenerPreset_Alley 0061bad8     dsoundd:globals.obj
 0005:00047134       _DirectSoundI3DL2ListenerPreset_StoneCorridor 0061bb14     dsoundd:globals.obj
 0005:00047170       _DirectSoundI3DL2ListenerPreset_Hallway 0061bb50     dsoundd:globals.obj
 0005:000471ac       _DirectSoundI3DL2ListenerPreset_CarpetedHallway 0061bb8c     dsoundd:globals.obj
 0005:000471e8       _DirectSoundI3DL2ListenerPreset_Hangar 0061bbc8     dsoundd:globals.obj
 0005:00047224       _DirectSoundI3DL2ListenerPreset_Arena 0061bc04     dsoundd:globals.obj
 0005:00047260       _DirectSoundI3DL2ListenerPreset_Cave 0061bc40     dsoundd:globals.obj
 0005:0004729c       _DirectSoundI3DL2ListenerPreset_ConcertHall 0061bc7c     dsoundd:globals.obj
 0005:000472d8       _DirectSoundI3DL2ListenerPreset_Auditorium 0061bcb8     dsoundd:globals.obj
 0005:00047314       _DirectSoundI3DL2ListenerPreset_StoneRoom 0061bcf4     dsoundd:globals.obj
 0005:00047350       _DirectSoundI3DL2ListenerPreset_LivingRoom 0061bd30     dsoundd:globals.obj
 0005:0004738c       _DirectSoundI3DL2ListenerPreset_Bathroom 0061bd6c     dsoundd:globals.obj
 0005:000473c8       _DirectSoundI3DL2ListenerPreset_Room 0061bda8     dsoundd:globals.obj
 0005:00047404       _DirectSoundI3DL2ListenerPreset_PaddedCell 0061bde4     dsoundd:globals.obj
 0005:00047440       _DirectSoundI3DL2ListenerPreset_Generic 0061be20     dsoundd:globals.obj
 0005:0004747c       _DirectSoundI3DL2ListenerPreset_Default2 0061be5c     dsoundd:globals.obj
 0005:000474b8       _DirectSoundI3DL2ListenerPreset_Default 0061be98     dsoundd:globals.obj
 0005:000474f8       _DirectSoundDefault3DListener 0061bed8     dsoundd:globals.obj
 0005:00047544       _DirectSoundDefaultI3DL2Buffer 0061bf24     dsoundd:globals.obj
 0005:00047570       _DirectSoundDefault3DBuffer 0061bf50     dsoundd:globals.obj
 0005:000475cc       _DirectSoundDefaulMixBins_5Channel3D_PlusLFE 0061bfac     dsoundd:globals.obj
 0005:000475d8       _DirectSoundDefaultMixBins_5Channel3D 0061bfb8     dsoundd:globals.obj
 0005:000475e4       _DirectSoundRequiredMixBins_5Channel3D 0061bfc4     dsoundd:globals.obj
 0005:000475f0       _DirectSoundDefaultMixBins_3D 0061bfd0     dsoundd:globals.obj
 0005:000475fc       _DirectSoundRequiredMixBins_3D 0061bfdc     dsoundd:globals.obj
 0005:00047608       _DirectSoundDefaultMixBins_6Channel 0061bfe8     dsoundd:globals.obj
 0005:00047614       _DirectSoundDefaultMixBins_4Channel 0061bff4     dsoundd:globals.obj
 0005:00047620       _DirectSoundDefaultMixBins_Stereo 0061c000     dsoundd:globals.obj
 0005:0004762c       _DirectSoundDefaultMixBins_Mono 0061c00c     dsoundd:globals.obj
 0005:00047638       _DirectSoundDefaulMixBinVolumePairs_5Channel3D_PlusLFE 0061c018     dsoundd:globals.obj
 0005:0004767c       _DirectSoundDefaultMixBinVolumePairs_5Channel3D 0061c05c     dsoundd:globals.obj
 0005:000476b8       _DirectSoundRequiredMixBinVolumePairs_5Channel3D 0061c098     dsoundd:globals.obj
 0005:000476e8       _DirectSoundDefaultMixBinVolumePairs_3D 0061c0c8     dsoundd:globals.obj
 0005:00047718       _DirectSoundRequiredMixBinVolumePairs_3D 0061c0f8     dsoundd:globals.obj
 0005:00047740       _DirectSoundDefaultMixBinVolumePairs_6Channel 0061c120     dsoundd:globals.obj
 0005:0004777c       _DirectSoundDefaultMixBinVolumePairs_4Channel 0061c15c     dsoundd:globals.obj
 0005:000477a4       _DirectSoundDefaultMixBinVolumePairs_Stereo 0061c184     dsoundd:globals.obj
 0005:000477b8       _DirectSoundDefaultMixBinVolumePairs_Mono 0061c198     dsoundd:globals.obj
 0005:000477cc       ??_C@_0DO@FGGLJBIG@m_pDspImage?9?$DOGetLoaderSize?$CI?$CJ?5?$DM?5D@ 0061c1ac     dsoundd:gpdsp.obj
 0005:00047818       ??_C@_0FH@IHCLHFLG@FALSE?5?$CG?$CG?5?$CCCMcpxDspManager?3?3Initi@ 0061c1f8     dsoundd:gpdsp.obj
 0005:00047880       ??_C@_0O@BBNBCNGF@m_pScratchDma?$AA@ 0061c260     dsoundd:gpdsp.obj
 0005:00047890       ??_C@_0BJ@MCMIBGDC@CMcpxDspScratchDma?$CITRUE?$CJ?$AA@ 0061c270     dsoundd:gpdsp.obj
 0005:000478b0       ??_C@_0M@PNGMNGCG@m_pDspImage?$AA@ 0061c290     dsoundd:gpdsp.obj
 0005:000478c0       ??_C@_0DI@CKIAPEOL@d?3?2xbox?2private?2windows?2directx?2@ 0061c2a0     dsoundd:gpdsp.obj
 0005:00047904       ??_C@_0BA@ILKMEFEP@CMcpxDspImage?$CI?$CJ?$AA@ 0061c2e4     dsoundd:gpdsp.obj
 0005:00047918       ??_C@_0CG@KLLIOBPM@code?5block?5decode?5failed?5with?5hr@ 0061c2f8     dsoundd:gpdsp.obj
 0005:00047948       ??_C@_0CE@DNFDBHCJ@Keyblock?5decode?5failed?5with?5hr?5?$DN@ 0061c328     dsoundd:gpdsp.obj
 0005:00047974       ??_C@_0DF@ODNCFFDG@DirectSound?3?3CMcpxGPDspManager?3?3@ 0061c354     dsoundd:gpdsp.obj
 0005:000479b4       ??_C@_0BH@HIAHEHDN@BYTE?$FLdwDescriptorSize?$FN?$AA@ 0061c394     dsoundd:gpdsp.obj
 0005:000479d0       ??_C@_0FL@HIMIHCOK@Zero?9based?5Effect?5Index?5?$CI?$CFd?$CJ?5is?5@ 0061c3b0     dsoundd:gpdsp.obj
 0005:00047a40       ??_C@_0CN@PCJNDBGD@DirectSound?3?3CMcpxGPDspManager?3?3@ 0061c420     dsoundd:gpdsp.obj
 0005:00047a78       ??_C@_0M@ELMEHHNJ@ppEffectMap?$AA@ 0061c458     dsoundd:gpdsp.obj
 0005:00047a88       ??_C@_0M@HBHEJKII@pDescriptor?$AA@ 0061c468     dsoundd:gpdsp.obj
 0005:00047a98       ??_C@_0EB@ONOCOGPO@CommitEffectData?5was?5called?5but?5@ 0061c478     dsoundd:gpdsp.obj
 0005:00047ae8       ??_C@_0CO@PKJJCBMO@DirectSound?3?3CMcpxGPDspManager?3?3@ 0061c4c8     dsoundd:gpdsp.obj
 0005:00047b20       ??_C@_0CN@HNLHAKKM@dwImageSize?5?$DM?$DN?5MCPX_GLOBAL_PROC_@ 0061c500     dsoundd:gpdsp.obj
 0005:00047b58       ??_C@_0DO@MOADBLC@pCmdBlock?9?$DOdwCommandFlags?5?$CG?5BIT_@ 0061c538     dsoundd:gpdsp.obj
 0005:00047ba4       ??_C@_0DI@MMJFHDOJ@pCmdBlock?9?$DOdwCommandFlags?5?$CG?5BIT_@ 0061c584     dsoundd:gpdsp.obj
 0005:00047be8       ??_C@_0FC@FHPIIHBL@dwImageSize?5?$DO?5?$CIDSP_COMMANDBLOCK_@ 0061c5c8     dsoundd:gpdsp.obj
 0005:00047c4c       ??_C@_0CO@MNCIICOJ@pFxDesc?9?$DOdwStateSize?5?$DO?$DN?5?$CIdwOffse@ 0061c62c     dsoundd:gpdsp.obj
 0005:00047c84       ??_C@_0BJ@OOBBFLIM@?$CB?$CIdwOffset?5?$CG?50x00000003?$CJ?$AA@ 0061c664     dsoundd:gpdsp.obj
 0005:00047ca4       ??_C@_0BL@FOBFECOE@?$CB?$CIdwDataSize?5?$CG?50x00000003?$CJ?$AA@ 0061c684     dsoundd:gpdsp.obj
 0005:00047cc4       ??_C@_0BM@EFLFCOPP@dwDataSize?5?$DO?$DN?5sizeof?$CIDWORD?$CJ?$AA@ 0061c6a4     dsoundd:gpdsp.obj
 0005:00047ce8       ??_C@_0BI@IECLLDN@m_dwVoiceMapLock?5?$DM?5?$HO0UL?$AA@ 0061c6c8     dsoundd:mcpapu.obj
 0005:00047d04       ??_C@_0CF@FGGNHBE@KeGetCurrentIrql?$CI?$CJ?5?$DO?$DN?5DISPATCH_L@ 0061c6e4     dsoundd:mcpapu.obj
 0005:00047d30       ??_C@_0BG@FFOHIBNC@m_dwVoiceMapLock?5?$DO?$DN?51?$AA@ 0061c710     dsoundd:mcpapu.obj
 0005:00047d4c       ??_C@_0CA@JAONEOME@Not?5enough?5free?5hardware?5voices?$AA@ 0061c72c     dsoundd:mcpapu.obj
 0005:00047d74       ??_C@_0CM@GGKNANOG@Voice?5client?5?$CFx?5allocated?5hardwa@ 0061c754     dsoundd:mcpapu.obj
 0005:00047da8       ??_C@_0BJ@PEENENCH@CMcpxAPU?3?3AllocateVoices?$AA@ 0061c788     dsoundd:mcpapu.obj
 0005:00047dc8       ??_C@_0BF@HIHKABCJ@nVoice?5?$DM?$DN?5nLastVoice?$AA@ 0061c7a8     dsoundd:mcpapu.obj
 0005:00047de4       ??_C@_0DN@HIAGCDHF@MCPX_VOICE_HANDLE_INVALID?5?$DN?$DN?5pVo@ 0061c7c4     dsoundd:mcpapu.obj
 0005:00047e30       ??_C@_0DF@BOLDMOGN@pVoice?9?$DOm_bVoiceCount?5?$DM?$DN?5NUMELMS@ 0061c810     dsoundd:mcpapu.obj
 0005:00047e70       ??_C@_0BG@HHBHIAJK@pVoice?9?$DOm_bVoiceCount?$AA@ 0061c850     dsoundd:mcpapu.obj
 0005:00047e8c       ??_C@_0DJ@HNMPBJAL@d?3?2xbox?2private?2windows?2directx?2@ 0061c86c     dsoundd:mcpapu.obj
 0005:00047ed0       ??_C@_0DD@JBACMFJI@MCPX_VOICE_HANDLE_INVALID?5?$DN?$DN?5pVo@ 0061c8b0     dsoundd:mcpapu.obj
 0005:00047f10       ??_C@_0CF@HCECNGCF@m_apVoiceMap?$FLdwVoiceIndex?$FN?5?$DN?$DN?5pV@ 0061c8f0     dsoundd:mcpapu.obj
 0005:00047f3c       ??_C@_0CC@LGMBAGNB@dwVoiceIndex?5?$DM?5MCPX_HW_MAX_VOICE@ 0061c91c     dsoundd:mcpapu.obj
 0005:00047f64       ??_C@_0BM@JFAIFJHC@Magic?5write?5not?5completing?$CB?$AA@ 0061c944     dsoundd:mcpapu.obj
 0005:00047f88       ??_C@_0BM@IKCMHJAD@CMcpxAPU?3?3WaitForMagicWrite?$AA@ 0061c968     dsoundd:mcpapu.obj
 0005:00047fac       ??_C@_0CC@NMDAKMOM@Voice?5not?5in?5software?5active?5lis@ 0061c98c     dsoundd:mcpapu.obj
 0005:00047fd4       ??_C@_0BD@FFPGBNNK@?$CBpCmd?9?$DOrtTimestamp?$AA@ 0061c9b4     dsoundd:mcpapu.obj
 0005:00047fec       ??_C@_0CO@DNFHHLKL@pCmd?9?$DOdwFlags?5?$CG?5MCPX_DEFERREDCMD@ 0061c9cc     dsoundd:mcpapu.obj
 0005:00048024       ??_C@_0CM@IJOFEJKE@pCmd?9?$DOdwFlags?5?$CG?5MCPX_DEFERREDCMD@ 0061ca04     dsoundd:mcpapu.obj
 0005:00048058       ??_C@_0DB@DKGCGKPN@?$CB?$CIpCmd?9?$DOdwFlags?5?$CG?5MCPX_DEFERREDC@ 0061ca38     dsoundd:mcpapu.obj
 0005:00048094       ??_C@_0CN@IJPABDMJ@?$CB?$CIpCmd?9?$DOdwFlags?5?$CG?5MCPX_DEFERREDC@ 0061ca74     dsoundd:mcpapu.obj
 0005:000480cc       ??_C@_0BK@NIALBJMK@IsListEmpty?$CI?$CGlstCommands?$CJ?$AA@ 0061caac     dsoundd:mcpapu.obj
 0005:000480ec       ??_C@_0BO@GPPNHMML@?$CI1?$CJ?5?$DM?$DN?5PIO_METHOD_QUEUE_CLEAR?$AA@ 0061cacc     dsoundd:mcpapu.obj
 0005:00048110       ??_C@_0DM@EECEGCNK@Can?8t?5synchronize?5playback?5of?5mo@ 0061caf0     dsoundd:mcpapu.obj
 0005:00048158       ??_C@_0BI@NGBHKNNK@CMcpxAPU?3?3AddSynchVoice?$AA@ 0061cb38     dsoundd:mcpapu.obj
 0005:00048178       ??_C@_0HD@LHLMAPPO@?$CIpVoice?9?$DOm_dwStatus?5?$CG?5?$CIMCPX_VOIC@ 0061cb58     dsoundd:mcpapu.obj
 0005:00048208       ??_C@_0JG@CNJKLBE@?$CIpVoice?9?$DOm_dwStatus?5?$CG?5?$CIMCPX_VOIC@ 0061cbe8     dsoundd:mcpapu.obj
 0005:000482bc       ??_C@_0CJ@HDIHDJCE@m_dwSynchVoices?5?$DO?$DN?5pVoice?9?$DOm_bVo@ 0061cc9c     dsoundd:mcpapu.obj
 0005:000482f0       ??_C@_0CN@BMJCCKA@?$CIdwVoiceCount?5?$CL?53?$CJ?5?$DM?$DN?5PIO_METHOD@ 0061ccd0     dsoundd:mcpapu.obj
 0005:00048328       ??_C@_0BP@JMHNIBJJ@dwVoiceCount?5?$DM?5m_dwSynchVoices?$AA@ 0061cd08     dsoundd:mcpapu.obj
 0005:00048350       ??_C@_0BC@LIAANGEE@MCPX_VOICE_HANDLE?$AA@ 0061cd30     dsoundd:mcpapu.obj
 0005:00048368       ??_C@_0CF@IABJFKEF@Unable?5to?5retrieve?5I3DL2?5effect?5@ 0061cd48     dsoundd:mcpapu.obj
 0005:00048394       ??_C@_0BO@ILCNECCE@CMcpxAPU?3?3CommitI3DL2Listener?$AA@ 0061cd74     dsoundd:mcpapu.obj
 0005:000483b8       ??_C@_0BC@DENHND@APU?5going?5away?4?4?4?$AA@ 0061cd98     dsoundd:mcpapu.obj
 0005:000483d0       ??_C@_0BE@OMKADFKC@CMcpxAPU?3?3?$HOCMcpxAPU?$AA@ 0061cdb0     dsoundd:mcpapu.obj
 0005:000483e8       ??_C@_0CD@IOFPJGFP@Unexpected?5software?5method?3?5?5?$CFx?5@ 0061cdc8     dsoundd:mcpapu.obj
 0005:00048414       ??_C@_0BP@KOPCCDJ@CMcpxAPU?3?3HandleSoftwareMethod?$AA@ 0061cdf4     dsoundd:mcpapu.obj
 0005:0004843c       ??_C@_0CD@IGHLKIE@BAD_DATA_TYPE?3?5method?5?$CFx?0?5param?5@ 0061ce1c     dsoundd:mcpapu.obj
 0005:00048468       ??_C@_0CG@EIPAMMBG@BAD_LIST_POINTER?3?5method?5?$CFx?0?5par@ 0061ce48     dsoundd:mcpapu.obj
 0005:00048498       ??_C@_0CK@MBJNHLID@CURRENT_VOICE_NOT_3d?3?5method?5?$CFx?0@ 0061ce78     dsoundd:mcpapu.obj
 0005:000484cc       ??_C@_0CD@PKBOBKDJ@CTXPA_INVALID?3?5method?5?$CFx?0?5param?5@ 0061ceac     dsoundd:mcpapu.obj
 0005:000484f8       ??_C@_0CC@IJCNIOM@?$CIunknown?$CJ?5?$CFx?3?5method?5?$CFx?0?5param?5?$CF@ 0061ced8     dsoundd:mcpapu.obj
 0005:00048520       ??_C@_0CI@PHCAILKG@ANTECEDENT_NOT_SET?3?5method?5?$CFx?0?5p@ 0061cf00     dsoundd:mcpapu.obj
 0005:00048550       ??_C@_0BK@HGJIPKOI@NONE?3?5method?5?$CFx?0?5param?5?$CFx?$AA@ 0061cf30     dsoundd:mcpapu.obj
 0005:00048570       ??_C@_0CF@DMPDBLEI@NOT_IMPLEMENTED?3?5method?5?$CFx?0?5para@ 0061cf50     dsoundd:mcpapu.obj
 0005:0004859c       ??_C@_0CE@LFLJHLAB@METHOD_UNKNOWN?3?5method?5?$CFx?0?5param@ 0061cf7c     dsoundd:mcpapu.obj
 0005:000485c8       ??_C@_0CC@EGGEFCEM@BAD_ARGUMENT?3?5method?5?$CFx?0?5param?5?$CF@ 0061cfa8     dsoundd:mcpapu.obj
 0005:000485f0       ??_C@_0CF@CAHAHIPM@CURRENT_NOT_SET?3?5method?5?$CFx?0?5para@ 0061cfd0     dsoundd:mcpapu.obj
 0005:0004861c       ??_C@_0BH@KBKFMMPJ@CMcpxAPU?3?3HandleFETrap?$AA@ 0061cffc     dsoundd:mcpapu.obj
 0005:00048638       ??_C@_0BK@EBFOGEEA@KeConnectInterrupt?5failed?$AA@ 0061d018     dsoundd:mcpapu.obj
 0005:00048658       ??_C@_0BF@GDNDBHHM@CMcpxAPU?3?3Initialize?$AA@ 0061d038     dsoundd:mcpapu.obj
 0005:00048674       ??_C@_0BL@MEDKFNKN@Unexpected?5notifier?5status?$AA@ 0061d054     dsoundd:mcpstrm.obj
 0005:00048694       ??_C@_0CE@ELEAODJN@dwNotifierIndex?5?$DM?5m_dwNotifierCo@ 0061d074     dsoundd:mcpstrm.obj
 0005:000486c0       ??_C@_0N@BMLCBDGO@m_paNotifier?$AA@ 0061d0a0     dsoundd:mcpstrm.obj
 0005:000486d0       ??_C@_0DJ@NGPBHCFA@d?3?2xbox?2private?2windows?2directx?2@ 0061d0b0     dsoundd:mcpstrm.obj
 0005:00048718       ??_C@_0GH@OLFFMEOO@MAKEBOOL?$CIm_paNotifier?$FLdwNotifier@ 0061d0f8     dsoundd:mcpstrm.obj
 0005:00048794       ??_C@_0DB@IBOGJEGG@WAVE_FORMAT_PCM?5?$DN?$DN?5m_pSettings?9?$DO@ 0061d174     dsoundd:mcpstrm.obj
 0005:000487d0       ??_C@_0DJ@IPACFHDJ@d?3?2xbox?2private?2windows?2directx?2@ 0061d1b0     dsoundd:mcpstrm.obj
 0005:00048814       ??_C@_0DK@BAEICJKP@d?3?2xbox?2private?2windows?2directx?2@ 0061d1f4     dsoundd:mcpstrm.obj
 0005:0004885c       ??_C@_0BE@LHPHBELB@MCPX_PACKET_CONTEXT?$AA@ 0061d23c     dsoundd:mcpstrm.obj
 0005:00048874       ??_C@_0CA@ILPJECNE@dwFlags?5?$CG?5DSSTREAMFLUSHEX_ASYNC?$AA@ 0061d254     dsoundd:mcpstrm.obj
 0005:0004889c       ??_C@_0BE@DBGAONNG@?$CBm_dwMappedSslCount?$AA@ 0061d27c     dsoundd:mcpstrm.obj
 0005:000488b4       ??_C@_0BL@NHLICKD@IsListEmpty?$CI?$CGm_lstPending?$CJ?$AA@ 0061d294     dsoundd:mcpstrm.obj
 0005:000488d4       ??_C@_0CH@DJKIMAIJ@IsListEmpty?$CI?$CGm_aSslDesc?$FLi?$FN?4lstPa@ 0061d2b4     dsoundd:mcpstrm.obj
 0005:00048908       ??_C@_0EK@JKDGJIFE@?$CIm_dwStatus?5?$CG?5MCPX_VOICESTATUS_A@ 0061d2e8     dsoundd:mcpstrm.obj
 0005:00048960       ??_C@_0FJ@JHNNOMDP@Unable?5to?5map?5the?5next?5packet?5be@ 0061d340     dsoundd:mcpstrm.obj
 0005:000489cc       ??_C@_0CO@EMIKKNJD@?$CI3?5?$CK?5m_bVoiceCount?$CJ?5?$DM?$DN?5PIO_METHO@ 0061d3ac     dsoundd:mcpstrm.obj
 0005:00048a04       ??_C@_0BL@EKGEFKKB@?$CB?$CIdwSampleCount?5?$CG?5?$HO0xFFFF?$CJ?$AA@ 0061d3e4     dsoundd:mcpstrm.obj
 0005:00048a24       ??_C@_0BD@LEMGLMLF@Mapping?5new?5packet?$AA@ 0061d404     dsoundd:mcpstrm.obj
 0005:00048a3c       ??_C@_0BK@HBDNLGDO@Working?5packet?5offset?5?$CFlu?$AA@ 0061d41c     dsoundd:mcpstrm.obj
 0005:00048a5c       ??_C@_0BH@BHFIBNEP@CMcpxStream?3?3MapPacket?$AA@ 0061d43c     dsoundd:mcpstrm.obj
 0005:00048a78       ??_C@_0CP@JGEINGIE@pPacketContext?9?$DOdwCompletedSize?5@ 0061d458     dsoundd:mcpstrm.obj
 0005:00048ab0       ??_C@_0CB@CPGNAGKM@dwSslIndex?5?$DM?5NUMELMS?$CIm_aSslDesc?$CJ@ 0061d490     dsoundd:mcpstrm.obj
 0005:00048ad8       ??_C@_0CJ@GDKAOANB@m_dwMappedSslCount?5?$DM?5NUMELMS?$CIm_a@ 0061d4b8     dsoundd:mcpstrm.obj
 0005:00048b0c       ??_C@_0CO@OPBMIFNP@?$CI2?5?$CK?5m_bVoiceCount?$CJ?5?$DM?$DN?5PIO_METHO@ 0061d4ec     dsoundd:mcpstrm.obj
 0005:00048b44       ??_C@_0BA@HDEBDDHM@Commiting?5SSL?$CFc?$AA@ 0061d524     dsoundd:mcpstrm.obj
 0005:00048b58       ??_C@_0BH@HOOFEICM@CMcpxStream?3?3CommitSsl?$AA@ 0061d538     dsoundd:mcpstrm.obj
 0005:00048b74       ??_C@_0CF@BMJKKMLO@Completing?5packet?5?$CFx?5with?5status@ 0061d554     dsoundd:mcpstrm.obj
 0005:00048ba0       ??_C@_0BM@KIFNFCNL@CMcpxStream?3?3CompletePacket?$AA@ 0061d580     dsoundd:mcpstrm.obj
 0005:00048bc4       ??_C@_0CI@MBGNENCE@XMEDIAPACKET_STATUS_PENDING?5?$CB?$DN?5d@ 0061d5a4     dsoundd:mcpstrm.obj
 0005:00048bf4       ??_C@_0CE@PCBBDIIB@Voice?5?$CFx?5?$CI?$CFx?$CJ?5scheduled?5command?5@ 0061d5d4     dsoundd:mcpstrm.obj
 0005:00048c20       ??_C@_0CF@NMIKPKBI@CMcpxStream?3?3ScheduleDeferredCom@ 0061d600     dsoundd:mcpstrm.obj
 0005:00048c4c       ??_C@_0CJ@GEJHLKKB@dwCommand?5?$DM?5NUMELMS?$CIm_aDeferredC@ 0061d62c     dsoundd:mcpstrm.obj
 0005:00048c80       ??_C@_0CH@NOPPBJEG@Voice?5?$CFx?5?$CI?$CFx?$CJ?5unscheduling?5comma@ 0061d660     dsoundd:mcpstrm.obj
 0005:00048cb0       ??_C@_0CD@PANJGBEE@CMcpxStream?3?3RemoveDeferredComma@ 0061d690     dsoundd:mcpstrm.obj
 0005:00048cdc       ??_C@_0CI@NMFNIODD@Mapped?5?$CFlu?5bytes?5into?5SSL?$CFc?5?$CI?$CFlu@ 0061d6bc     dsoundd:mcpstrm.obj
 0005:00048d0c       ??_C@_0BI@OCGGCOCJ@CMcpxStream?3?3MapPackets?$AA@ 0061d6ec     dsoundd:mcpstrm.obj
 0005:00048d28       ??_C@_0DM@GONPEOIP@Packet?5?$CFx?5scheduled?5for?5deferred@ 0061d708     dsoundd:mcpstrm.obj
 0005:00048d70       ??_C@_0BN@BFLLHMDL@CMcpxStream?3?3CompletePackets?$AA@ 0061d750     dsoundd:mcpstrm.obj
 0005:00048d94       ??_C@_0DA@ILKBEBPP@IsListEmpty?$CI?$CGm_aSslDesc?$FLdwSslInd@ 0061d774     dsoundd:mcpstrm.obj
 0005:00048dd0       ??_C@_0BD@JLCGNEHJ@m_dwMappedSslCount?$AA@ 0061d7b0     dsoundd:mcpstrm.obj
 0005:00048de8       ??_C@_0BB@EJIGHGPD@Completing?5SSL?$CFc?$AA@ 0061d7c8     dsoundd:mcpstrm.obj
 0005:00048dfc       ??_C@_0BJ@FHEOKNCI@CMcpxStream?3?3CompleteSsl?$AA@ 0061d7dc     dsoundd:mcpstrm.obj
 0005:00048e1c       ??_C@_0BO@HJDCEMOA@Voice?5?$CFx?5?$CI?$CFx?$CJ?5not?5stopped?5yet?$AA@ 0061d7fc     dsoundd:mcpstrm.obj
 0005:00048e40       ??_C@_0BN@GIMEOBHP@CMcpxStream?3?3OnDeferredFlush?$AA@ 0061d820     dsoundd:mcpstrm.obj
 0005:00048e64       ??_C@_0CI@FIKOPIML@m_dwStatus?5?$CG?5MCPX_VOICESTATUS_AL@ 0061d844     dsoundd:mcpstrm.obj
 0005:00048e94       ??_C@_0CM@EFDIJPJ@Completed?5?$CFlu?0?5mapped?5?$CFlu?0?5total@ 0061d874     dsoundd:mcpstrm.obj
 0005:00048ec8       ??_C@_0BC@FKANOLII@Envelope?5complete?$AA@ 0061d8a8     dsoundd:mcpstrm.obj
 0005:00048ee0       ??_C@_0BF@PPBCFNCP@CMcpxStream?3?3Process?$AA@ 0061d8c0     dsoundd:mcpstrm.obj
 0005:00048efc       ??_C@_0BH@FALLNBNJ@The?5stream?5is?5starving?$AA@ 0061d8dc     dsoundd:mcpstrm.obj
 0005:00048f18       ??_C@_0BG@OPHGPAHK@End?9of?9stream?5reached?$AA@ 0061d8f8     dsoundd:mcpstrm.obj
 0005:00048f34       ??_C@_0BL@GNLINAPG@Stream?5completed?5naturally?$AA@ 0061d914     dsoundd:mcpstrm.obj
 0005:00048f54       ??_C@_0CD@PBFGKABP@CMcpxStream?3?3ServiceVoiceInterru@ 0061d934     dsoundd:mcpstrm.obj
 0005:00048f80       ??_C@_0CB@HIGHGFIM@Unexpected?5sample?5container?5size@ 0061d960     dsoundd:mcpstrm.obj
 0005:00048fa8       ??_C@_0IN@MMPNGGMM@ADPCM?5and?5multi?9channel?5stream?5p@ 0061d988     dsoundd:mcpstrm.obj
 0005:00049054       ??_C@_0DJ@NBMOFNIK@dwContiguousLength?5?$DM?5pPacketCont@ 0061da34     dsoundd:mcpstrm.obj
 0005:00049098       ??_C@_0CI@GPDDKKDL@Received?5packet?5?$CFx?0?5buffer?5?$CFx?0?5s@ 0061da78     dsoundd:mcpstrm.obj
 0005:000490c8       ??_C@_0BK@MIJNAGG@CMcpxStream?3?3SubmitPacket?$AA@ 0061daa8     dsoundd:mcpstrm.obj
 0005:000490e8       ??_C@_0BO@HKDHLHAP@?$CBIsListEmpty?$CI?$CGm_lstAvailable?$CJ?$AA@ 0061dac8     dsoundd:mcpstrm.obj
 0005:0004910c       ??_C@_0BE@PAMEOFF@Invalid?5pause?5state?$AA@ 0061daec     dsoundd:mcpstrm.obj
 0005:00049124       ??_C@_0CH@NJCJDNBM@Unexpected?5deferred?5command?5iden@ 0061db04     dsoundd:mcpstrm.obj
 0005:00049154       ??_C@_0BL@IGDEHEFJ@floating?5point?5error?3?5PINF?$AA@ 0061db34     dsoundd:dsmath.obj
 0005:00049174       ??_C@_0BL@FJOEFNLK@floating?5point?5error?3?5NINF?$AA@ 0061db54     dsoundd:dsmath.obj
 0005:00049194       ??_C@_0BK@MGMMBIGB@floating?5point?5error?3?5NAN?$AA@ 0061db74     dsoundd:dsmath.obj
 0005:000491b4       ??_C@_0DJ@DHKEDGBG@d?3?2xbox?2private?2windows?2directx?2@ 0061db94     dsoundd:dsmath.obj
 0005:000491f8       ??_C@_0CD@FOCFADOL@DirectSound?3?3Math?3?3NormalizeDoub@ 0061dbd8     dsoundd:dsmath.obj
 0005:00049224       ??_C@_0CC@HDLDDKIP@DirectSound?3?3Math?3?3NormalizeFloa@ 0061dc04     dsoundd:dsmath.obj
 0005:0004924c       ??_C@_0BB@EBDKHCCA@magnitude?5?$DO?50?40f?$AA@ 0061dc2c     dsoundd:dsmath.obj
 0005:00049260       ??_C@_07GEGFOIDG@flRatio?$AA@ 0061dc40     dsoundd:dsmath.obj
 0005:0004926c       ??_C@_0BP@CFGPHFE@Matrix?5must?5be?516?9byte?5aligned?$AA@ 0061dc4c     dsoundd:dsmath.obj
 0005:00049294       ??_C@_0CB@POJJMHNL@DirectSound?3?3Math?3?3Vec3Transform@ 0061dc74     dsoundd:dsmath.obj
 0005:000492bc       ??_C@_0BC@NHNIONPC@m_dwNotifierCount?$AA@ 0061dc9c     dsoundd:mcpvoice.obj
 0005:000492d8       ??_C@_0EJ@DJPLDOLH@m_pSettings?9?$DOm_pMixinBuffer?9?$DOm_p@ 0061dcb8     dsoundd:mcpvoice.obj
 0005:00049330       ??_C@_0CP@IDFLDLJM@?$CB?$CIm_pSettings?9?$DOm_dwFlags?5?$CG?5DSBCA@ 0061dd10     dsoundd:mcpvoice.obj
 0005:00049368       ??_C@_0CC@HGMFBOAN@1?5?$DN?$DN?5m_pSettings?9?$DOm_fmt?4nChannel@ 0061dd48     dsoundd:mcpvoice.obj
 0005:00049390       ??_C@_0BE@DKIEPBCI@?$CBm_RegCache?4CfgMISC?$AA@ 0061dd70     dsoundd:mcpvoice.obj
 0005:000493a8       ??_C@_0BD@EBDMEPFB@?$CBm_RegCache?4CfgFMT?$AA@ 0061dd88     dsoundd:mcpvoice.obj
 0005:000493c0       ??_C@_0DL@FHEEFAEI@d?3?2xbox?2private?2windows?2directx?2@ 0061dda0     dsoundd:mcpvoice.obj
 0005:00049408       ??_C@_0CE@NMPGLFKL@?$CB?$CIm_pSettings?9?$DOm_fmt?4nChannels?5?$CF@ 0061dde8     dsoundd:mcpvoice.obj
 0005:00049434       ??_C@_0BH@NGDLDOCD@Unexpected?5sample?5size?$AA@ 0061de14     dsoundd:mcpvoice.obj
 0005:00049450       ??_C@_0BH@CONOHMHI@Unexpected?5format?5type?$AA@ 0061de30     dsoundd:mcpvoice.obj
 0005:00049470       ??_C@_0EG@IKOKNEFB@Can?8t?5change?5the?5number?5of?5hardw@ 0061de50     dsoundd:mcpvoice.obj
 0005:000494c4       ??_C@_0BM@ELHILHON@CMcpxVoiceClient?3?3SetFormat?$AA@ 0061dea4     dsoundd:mcpvoice.obj
 0005:000494e8       ??_C@_0CK@IAAIJABI@?$CB?$CIm_pSettings?9?$DOm_dwFlags?5?$CG?5DSBCA@ 0061dec8     dsoundd:mcpvoice.obj
 0005:0004951c       ??_C@_0CA@CEPMNOIA@Voice?5?$CFx?5?$CI?$CFx?$CJ?5freeing?5resources?$AA@ 0061defc     dsoundd:mcpvoice.obj
 0005:00049544       ??_C@_0CI@NNPNAPIO@CMcpxVoiceClient?3?3ReleaseVoiceRe@ 0061df24     dsoundd:mcpvoice.obj
 0005:00049578       ??_C@_0EN@KOAPLHPD@?$CB?$CIm_dwStatus?5?$CG?5?$HO?$CIMCPX_VOICESTATU@ 0061df58     dsoundd:mcpvoice.obj
 0005:000495d4       ??_C@_0CO@ECEDJPHJ@Voice?5?$CFx?5?$CI?$CFx?$CJ?5assigned?5to?5mixbin@ 0061dfb4     dsoundd:mcpvoice.obj
 0005:0004960c       ??_C@_0CF@GFBAKIMB@Voice?5?$CFx?5?$CI?$CFx?$CJ?5assigned?5to?5mixbin@ 0061dfec     dsoundd:mcpvoice.obj
 0005:00049638       ??_C@_0CG@OKAMGNFN@CMcpxVoiceClient?3?3ConvertMixBinV@ 0061e018     dsoundd:mcpvoice.obj
 0005:00049668       ??_C@_0BD@HMCBNOED@a?5?$DM?$DN?5DSMIXBIN_LAST?$AA@ 0061e048     dsoundd:mcpvoice.obj
 0005:00049680       ??_C@_0CL@LONCEFGP@Voice?5?$CFx?5?$CI?$CFx?$CJ?5mixbin?5?$CFlu?5?$CI?$CFlu?$CJ?5v@ 0061e060     dsoundd:mcpvoice.obj
 0005:000496b4       ??_C@_0CG@MCHJLCJG@CMcpxVoiceClient?3?3ConvertVolumeV@ 0061e094     dsoundd:mcpvoice.obj
 0005:000496e8       ??_C@_0EB@OHNAHBLA@m_pSettings?9?$DOm_alMixBinVolumes?$FLm@ 0061e0c8     dsoundd:mcpvoice.obj
 0005:00049738       ??_C@_0BM@FKDFBPHH@m_pSettings?9?$DOm_lVolume?5?$DM?$DN?50?$AA@ 0061e118     dsoundd:mcpvoice.obj
 0005:0004975c       ??_C@_0DA@HDLHEC@?$CB?$CIm_pSettings?9?$DOm_dwMixBinCount?5?$CF@ 0061e13c     dsoundd:mcpvoice.obj
 0005:00049798       ??_C@_0CO@GLKABCFF@m_pSettings?9?$DOm_p3dVoiceData?9?$DOlRe@ 0061e178     dsoundd:mcpvoice.obj
 0005:000497d0       ??_C@_0CP@CHILKGJP@m_pSettings?9?$DOm_p3dVoiceData?9?$DOlFr@ 0061e1b0     dsoundd:mcpvoice.obj
 0005:00049808       ??_C@_0CO@NLAANEDI@m_pSettings?9?$DOm_p3dVoiceData?9?$DOlCo@ 0061e1e8     dsoundd:mcpvoice.obj
 0005:00049840       ??_C@_0DC@HIALGIHG@m_pSettings?9?$DOm_p3dVoiceData?9?$DOlDi@ 0061e220     dsoundd:mcpvoice.obj
 0005:000498a8       ??_C@_0BI@BKJMGHBP@Releasing?5voice?5?$CFx?5?$CI?$CFx?$CJ?$AA@ 0061e288     dsoundd:mcpvoice.obj
 0005:000498c4       ??_C@_0BP@BEFEJAOO@CMcpxVoiceClient?3?3ReleaseVoice?$AA@ 0061e2a4     dsoundd:mcpvoice.obj
 0005:000498ec       ??_C@_0DO@MHMKIJEI@Voice?5?$CFx?5?$CI?$CFx?$CJ?5appears?5to?5be?5stuc@ 0061e2cc     dsoundd:mcpvoice.obj
 0005:00049938       ??_C@_0CC@NBHAPEBK@CMcpxVoiceClient?3?3CheckStuckVoic@ 0061e318     dsoundd:mcpvoice.obj
 0005:00049960       ??_C@_0BO@LMDDGLKA@?$CBm_pMcpxApu?9?$DOm_dwVoiceMapLock?$AA@ 0061e340     dsoundd:mcpvoice.obj
 0005:00049984       ??_C@_0BB@EILNFPMP@m_rtVoiceOff?5?$DO?50?$AA@ 0061e364     dsoundd:mcpvoice.obj
 0005:00049998       ??_C@_0CO@EBEJKDNP@Voice?5?$CFx?5?$CI?$CFx?$CJ?5pause?5state?5going?5@ 0061e378     dsoundd:mcpvoice.obj
 0005:000499d0       ??_C@_0BN@BCHFCAKF@CMcpxVoiceClient?3?3PauseVoice?$AA@ 0061e3b0     dsoundd:mcpvoice.obj
 0005:000499f4       ??_C@_0CO@NANHPLEK@?$CI1?5?$CK?5m_bVoiceCount?$CJ?5?$DM?$DN?5PIO_METHO@ 0061e3d4     dsoundd:mcpvoice.obj
 0005:00049a2c       ??_C@_0BM@NDPCHOOB@?$CIitd?5?$DO?$DN?5?942?$CJ?5?$CG?$CG?5?$CIitd?5?$DM?$DN?542?$CJ?$AA@ 0061e40c     dsoundd:mcpvoice.obj
 0005:00049a50       ??_C@_0IH@EPCBBGDP@?$CI1?5?$CL?5?$CI?$CIsizeof?$CIFilterPair?4pLeftFi@ 0061e430     dsoundd:mcpvoice.obj
 0005:00049af4       ??_C@_0DD@GMNIGPNO@m_bAvailable3dFilter?5?$DM?5MCPX_HW_3@ 0061e4d4     dsoundd:mcpvoice.obj
 0005:00049b5c       ??_C@_0CO@KPEBAGGA@?$CI7?5?$CK?5m_bVoiceCount?$CJ?5?$DM?$DN?5PIO_METHO@ 0061e53c     dsoundd:mcpvoice.obj
 0005:00049b94       ??_C@_0BH@CNNMEKOD@Invalid?5LFO?5identifier?$AA@ 0061e574     dsoundd:mcpvoice.obj
 0005:00049bb0       ??_C@_0CO@MMDBKKON@?$CI9?5?$CK?5m_bVoiceCount?$CJ?5?$DM?$DN?5PIO_METHO@ 0061e590     dsoundd:mcpvoice.obj
 0005:00049be8       ??_C@_0BG@PBAOCHCM@Invalid?5EG?5identifier?$AA@ 0061e5c8     dsoundd:mcpvoice.obj
 0005:00049c04       ??_C@_0CO@MNHCOCM@?$CI6?5?$CK?5m_bVoiceCount?$CJ?5?$DM?$DN?5PIO_METHO@ 0061e5e4     dsoundd:mcpvoice.obj
 0005:00049c3c       ??_C@_0BO@KJPCMOID@?$CI3?$CJ?5?$DM?$DN?5PIO_METHOD_QUEUE_CLEAR?$AA@ 0061e61c     dsoundd:mcpvoice.obj
 0005:00049c60       ??_C@_0BN@JMJJAKHK@Hardware?5voice?5not?5allocated?$AA@ 0061e640     dsoundd:mcpvoice.obj
 0005:00049c84       ??_C@_0CF@BFFAIBDM@CMcpxVoiceClient?3?3GetVoiceProper@ 0061e664     dsoundd:mcpvoice.obj
 0005:00049cb0       ??_C@_0BD@JLKNBNJM@?$CBm_dwNotifierCount?$AA@ 0061e690     dsoundd:mcpvoice.obj
 0005:00049cc8       ??_C@_0O@JCBGLFIF@?$CBm_paNotifier?$AA@ 0061e6a8     dsoundd:mcpvoice.obj
 0005:00049cd8       ??_C@_0BP@MPGCGJKK@?$CI18?$CJ?5?$DM?$DN?5PIO_METHOD_QUEUE_CLEAR?$AA@ 0061e6b8     dsoundd:mcpvoice.obj
 0005:00049d00       ??_C@_0DB@CNKNCEDN@?$CB?$CIm_dwStatus?5?$CG?5?$HOMCPX_VOICESTATUS@ 0061e6e0     dsoundd:mcpvoice.obj
 0005:00049d3c       ??_C@_0CO@GPKHICKB@?$CI8?5?$CK?5m_bVoiceCount?$CJ?5?$DM?$DN?5PIO_METHO@ 0061e71c     dsoundd:mcpvoice.obj
 0005:00049d74       ??_C@_0DJ@DHOOJBPK@variable?5?$CCg_fDirectSoundDisableB@ 0061e754     dsoundd:mcpvoice.obj
 0005:00049db8       ??_C@_0EH@GEIEDGIP@the?5object?5you?5wish?5to?5check?4?5?5T@ 0061e798     dsoundd:mcpvoice.obj
 0005:00049e10       ??_C@_0EN@EEEIHDP@query?5the?5playing?5status?5of?5a?5bu@ 0061e7f0     dsoundd:mcpvoice.obj
 0005:00049e70       ??_C@_0EK@KLDALOHL@that?5can?5potentially?5block?5in?5th@ 0061e850     dsoundd:mcpvoice.obj
 0005:00049ec8       ??_C@_0EM@KMADEABL@are?0?5you?8ll?5see?5that?5DSBSTATUS_P@ 0061e8a8     dsoundd:mcpvoice.obj
 0005:00049f28       ??_C@_0EN@JANHIGAO@immediately?5follow?5it?5with?5a?5cal@ 0061e908     dsoundd:mcpvoice.obj
 0005:00049f88       ??_C@_0EL@JCEFBPFB@until?5it?5is?4?5?5To?5see?5an?5example?5@ 0061e968     dsoundd:mcpvoice.obj
 0005:00049fe8       ??_C@_0EM@OOPIPDLA@operation?0?5so?5any?5function?5that?5@ 0061e9c8     dsoundd:mcpvoice.obj
 0005:0004a048       ??_C@_0EF@OJCILPFM@a?5hardware?5voice?5to?5be?5stopped?4?5@ 0061ea28     dsoundd:mcpvoice.obj
 0005:0004a0a0       ??_C@_0EN@NPBPONNE@This?5warning?5is?5being?5generated?5@ 0061ea80     dsoundd:mcpvoice.obj
 0005:0004a0fc       ??_C@_0CH@GELHBDFO@Busy?9waiting?5for?5the?5voice?5to?5tu@ 0061eadc     dsoundd:mcpvoice.obj
 0005:0004a12c       ??_C@_0CC@BCJBIGDM@CMcpxVoiceClient?3?3WaitForVoiceOf@ 0061eb0c     dsoundd:mcpvoice.obj
 0005:0004a154       ??_C@_0CI@EADPALEL@?$CB?$CIm_dwStatus?5?$CG?5MCPX_VOICESTATUS_@ 0061eb34     dsoundd:mcpvoice.obj
 0005:0004a184       ??_C@_0BM@JJAEBHGG@m_pSettings?9?$DOm_p3dVoiceData?$AA@ 0061eb64     dsoundd:mcpvoice.obj
 0005:0004a1a8       ??_C@_0CH@MEDANPGD@MCPX_VOICELIST_INVALID?5?$DN?$DN?5m_bVoi@ 0061eb88     dsoundd:mcpvoice.obj
 0005:0004a1d8       ??_C@_0CE@FDMGCEKB@m_bVoiceList?5?$DM?5MCPX_VOICELIST_CO@ 0061ebb8     dsoundd:mcpvoice.obj
 0005:0004a204       ??_C@_0BL@ODBPPJFA@Deactivating?5voice?5?$CFx?5?$CI?$CFx?$CJ?$AA@ 0061ebe4     dsoundd:mcpvoice.obj
 0005:0004a224       ??_C@_0CC@KOPKBAEC@CMcpxVoiceClient?3?3DeactivateVoic@ 0061ec04     dsoundd:mcpvoice.obj
 0005:0004a24c       ??_C@_0BJ@ECCFODNO@m_pSettings?9?$DOm_p3dParams?$AA@ 0061ec2c     dsoundd:mcpvoice.obj
 0005:0004a26c       ??_C@_0CI@IMCHFDDO@m_pSettings?9?$DOm_dwFlags?5?$CG?5DSBCAPS@ 0061ec4c     dsoundd:mcpvoice.obj
 0005:0004a29c       ??_C@_0DE@PACLBLCI@Voice?5?$CFx?5?$CI?$CFx?$CJ?5is?5still?5active?4?5?5@ 0061ec7c     dsoundd:mcpvoice.obj
 0005:0004a2dc       ??_C@_0DH@JFFAPBKC@Voice?5?$CFx?5?$CI?$CFx?$CJ?5using?5?$CFx?5?$CI?$CFx?$CJ?5as?5i@ 0061ecbc     dsoundd:mcpvoice.obj
 0005:0004a320       ??_C@_0BP@NHIALCLL@CMcpxVoiceClient?3?3ConnectVoice?$AA@ 0061ed00     dsoundd:mcpvoice.obj
 0005:0004a348       ??_C@_0BD@HODIEEIE@pSubMixDestination?$AA@ 0061ed28     dsoundd:mcpvoice.obj
 0005:0004a360       ??_C@_0CP@GGCJJFAI@Voice?5?$CFx?5?$CI?$CFx?$CJ?5disconnected?5submi@ 0061ed40     dsoundd:mcpvoice.obj
 0005:0004a398       ??_C@_0CC@OGCACCEO@CMcpxVoiceClient?3?3DisconnectVoic@ 0061ed78     dsoundd:mcpvoice.obj
 0005:0004a3c0       ??_C@_0CO@LEKHIOCF@?$CB?$CIm_dwStatus?5?$CG?5?$HOMCPX_VOICESTATUS@ 0061eda0     dsoundd:mcpvoice.obj
 0005:0004a3f8       ??_C@_0CE@MJKHDBNC@Voice?5?$CFx?5?$CI?$CFx?$CJ?5now?5active?5in?5list@ 0061edd8     dsoundd:mcpvoice.obj
 0005:0004a424       ??_C@_0DA@FDGCOIDJ@Voice?5?$CFx?5?$CI?$CFx?$CJ?5now?5active?5in?5list@ 0061ee04     dsoundd:mcpvoice.obj
 0005:0004a460       ??_C@_0DF@FOPNANFG@bVoiceList?5?$DM?5NUMELMS?$CIm_pMcpxApu?9@ 0061ee40     dsoundd:mcpvoice.obj
 0005:0004a4a0       ??_C@_0EA@KJIGOGLG@Voice?5?$CFx?5?$CI?$CFx?$CJ?5inheriting?5voice?5l@ 0061ee80     dsoundd:mcpvoice.obj
 0005:0004a4ec       ??_C@_0CG@DLHMNLCO@hAntecedentVoice?5?$DM?5MCPX_HW_MAX_V@ 0061eecc     dsoundd:mcpvoice.obj
 0005:0004a51c       ??_C@_0CB@PEOFJJDI@?$CI0x20?$CJ?5?$DM?$DN?5PIO_METHOD_QUEUE_CLEAR@ 0061eefc     dsoundd:mcpvoice.obj
 0005:0004a544       ??_C@_0DM@DAJJLAJC@pSubMixDestination?9?$DOm_dwStatus?5?$CG@ 0061ef24     dsoundd:mcpvoice.obj
 0005:0004a590       ??_C@_0HJ@PFFMBHKD@Crosstalk?5is?5not?5in?5the?5current?5@ 0061ef70     dsoundd:mcpvoice.obj
 0005:0004a628       ??_C@_0HA@EBIAGJBN@No?5effects?5image?5has?5been?5downlo@ 0061f008     dsoundd:mcpvoice.obj
 0005:0004a6b0       ??_C@_0CA@EMMPIKKN@CMcpxVoiceClient?3?3ActivateVoice?$AA@ 0061f090     dsoundd:mcpvoice.obj
 0005:0004a6d8       ?m_flScale23@CI3DL2Listener@DirectSound@@2MB 0061f0b8     dsoundd:i3dl2.obj
 0005:0004a6dc       ?m_flScale16@CI3DL2Listener@DirectSound@@2MB 0061f0bc     dsoundd:i3dl2.obj
 0005:0004a6e0       ?m_aflReflectionData@CI3DL2Listener@DirectSound@@2QAY04$$CBMA 0061f0c0     dsoundd:i3dl2.obj
 0005:0004a730       ?m_aflShortReverbInputFactor@CI3DL2Listener@DirectSound@@2QAY01$$CBMA 0061f110     dsoundd:i3dl2.obj
 0005:0004a750       ?m_aflShortReverbFeedbackDelay@CI3DL2Listener@DirectSound@@2QBMB 0061f130     dsoundd:i3dl2.obj
 0005:0004a760       ?m_aflLongReverbInputDelay@CI3DL2Listener@DirectSound@@2QAY03$$CBMA 0061f140     dsoundd:i3dl2.obj
 0005:0004a780       ?m_dwSamplesPerSec@CI3DL2Listener@DirectSound@@2KB 0061f160     dsoundd:i3dl2.obj
 0005:0004a7a8       ??_C@_0CJ@EDMIKOMG@Long?5reverb?5feedback?5delays?5?$CID50@ 0061f188     dsoundd:i3dl2.obj
 0005:0004a7dc       ??_C@_0BO@HFACFBPP@Reverb?5input?5delay?5?$CID4?$CFlx?$CJ?3?$CFd?$AA@ 0061f1bc     dsoundd:i3dl2.obj
 0005:0004a800       ??_C@_0DI@FALMNK@d?3?2xbox?2private?2windows?2directx?2@ 0061f1e0     dsoundd:i3dl2.obj
 0005:0004a844       ??_C@_0BI@OPBOGGPM@CI3DL2Listener?3?3SetSize?$AA@ 0061f224     dsoundd:i3dl2.obj
 0005:0004a860       ??_C@_0CF@LHJIKJAH@Reflection?$FL?$CFd?$FN?5output?5gain?$CIG6?$CFlx@ 0061f240     dsoundd:i3dl2.obj
 0005:0004a88c       ??_C@_0CD@LNPNBBCL@CI3DL2Listener?3?3SetReflectionsGa@ 0061f26c     dsoundd:i3dl2.obj
 0005:0004a8b8       ??_C@_0BK@NMMOHOH@Reflections?5delay?$CID00?$CJ?3?$CFd?$AA@ 0061f298     dsoundd:i3dl2.obj
 0005:0004a8d8       ??_C@_0CE@BNGKKFIP@CI3DL2Listener?3?3SetReflectionsDe@ 0061f2b8     dsoundd:i3dl2.obj
 0005:0004a904       ??_C@_0BO@KLJNCCDL@Reverb?5output?5gain?$CIG70?975?$CJ?3?$CFd?$AA@ 0061f2e4     dsoundd:i3dl2.obj
 0005:0004a928       ??_C@_0BO@LACGONAO@CI3DL2Listener?3?3SetReverbGain?$AA@ 0061f308     dsoundd:i3dl2.obj
 0005:0004a94c       ??_C@_0BA@OBJIDEPD@Reverb?5delay?3?$CFd?$AA@ 0061f32c     dsoundd:i3dl2.obj
 0005:0004a960       ??_C@_0CI@FHCBGCKN@Reflection?$FL?$CFd?$FN?5feedback?5delay?$CID0@ 0061f340     dsoundd:i3dl2.obj
 0005:0004a990       ??_C@_0CF@CJNGAPJK@Reflection?$FL?$CFd?$FN?5input?5delay?$CID0?$CFlx@ 0061f370     dsoundd:i3dl2.obj
 0005:0004a9bc       ??_C@_0BP@FGGDKKDE@CI3DL2Listener?3?3SetReverbDelay?$AA@ 0061f39c     dsoundd:i3dl2.obj
 0005:0004a9e4       ??_C@_0CD@CHFPFBO@Long?5reverb?5input?5gains?$CIG52?953?$CJ?3@ 0061f3c4     dsoundd:i3dl2.obj
 0005:0004aa10       ??_C@_0CH@GHMOBMOM@Long?5reverb?5crossfeed?5gains?$CIG50?9@ 0061f3f0     dsoundd:i3dl2.obj
 0005:0004aa40       ??_C@_0CK@FIJFMCPB@Short?5reverb?$FL?$CFd?$FN?5input?5gain?$FL?$CFd?$FN?$CI@ 0061f420     dsoundd:i3dl2.obj
 0005:0004aa74       ??_C@_0BN@JIBPKEGC@CI3DL2Listener?3?3SetDiffusion?$AA@ 0061f454     dsoundd:i3dl2.obj
 0005:0004aa98       ??_C@_0L@BNPKJGGO@fW?5?$DM?$DN?52?$CKpi?$AA@ 0061f478     dsoundd:i3dl2.obj
 0005:0004aaa8       ??_C@_0N@FDKECBBG@lGainHF?5?$DM?$DN?50?$AA@ 0061f488     dsoundd:i3dl2.obj
 0005:0004aab8       ??_C@_0M@MFCHHPFI@pfB?5?$CB?$DN?5NULL?$AA@ 0061f498     dsoundd:i3dl2.obj
 0005:0004aac8       ??_C@_0M@COBAMEFL@pfA?5?$CB?$DN?5NULL?$AA@ 0061f4a8     dsoundd:i3dl2.obj
 0005:0004aad8       ??_C@_0N@DHPIDGKH@fW?5?$DM?$DN?52?5?$CK?5pi?$AA@ 0061f4b8     dsoundd:i3dl2.obj
 0005:0004aae8       ??_C@_0DK@OBGGFCBB@Input?5IIR?$CIF00?$CJ?3dwCoefficients?$FL0?$FN@ 0061f4c8     dsoundd:i3dl2.obj
 0005:0004ab30       ??_C@_0BP@JDPJDIEC@CI3DL2Listener?3?3SetInputFilter?$AA@ 0061f510     dsoundd:i3dl2.obj
 0005:0004ab58       ??_C@_0N@HJPJPJFK@pIir?5?$CB?$DN?5NULL?$AA@ 0061f538     dsoundd:i3dl2.obj
 0005:0004ab68       ??_C@_0BL@IBALMDDO@flRelativeDistance?5?$DO?$DN?50?40f?$AA@ 0061f548     dsoundd:i3dl2.obj
 0005:0004ab88       ??_C@_0FA@JCDHLEAC@Short?5reverb?$FL?$CFd?$FN?5feedback?5IIR?$CIF3@ 0061f568     dsoundd:i3dl2.obj
 0005:0004abe8       ??_C@_0EN@FHHFKDLN@Long?5reverb?5feedback?5IIR?$CIF50?9F51@ 0061f5c8     dsoundd:i3dl2.obj
 0005:0004ac44       ??_C@_0DP@LIPLOKCE@Reverb?5IIR?$CIF40?9F42?$CJ?3dwCoefficien@ 0061f624     dsoundd:i3dl2.obj
 0005:0004ac90       ??_C@_0BO@IGANOBKN@CI3DL2Listener?3?3SetDecayTimes?$AA@ 0061f670     dsoundd:i3dl2.obj
 0005:0004acb4       ??_C@_0CG@COBNABOO@Clipped?5reflections?5feedback?5del@ 0061f694     dsoundd:i3dl2.obj
 0005:0004ace4       ??_C@_0CL@OLIHGHGF@Clipped?5long?5reverb?5input?5delay?5@ 0061f6c4     dsoundd:i3dl2.obj
 0005:0004ad18       ??_C@_0BM@BOKANICH@Before?5clipping?5?5?$CFi?5?9?5?$CFi?5?$CFi?$AA@ 0061f6f8     dsoundd:i3dl2.obj
 0005:0004ad3c       ??_C@_0BP@OHCIOLEK@CI3DL2Listener?3?3CalculateI3DL2?$AA@ 0061f71c     dsoundd:i3dl2.obj
 0005:0004ad64       ??_C@_0BE@CKJOFCDP@pxmbDest?9?$DOdwMaxSize?$AA@ 0061f744     dsoundd:wavexmo.obj
 0005:0004ad7c       ??_C@_0BD@EGMOEPLH@pxmbDest?9?$DOpvBuffer?$AA@ 0061f75c     dsoundd:wavexmo.obj
 0005:0004ad94       ??_C@_08IFNCLCJG@pxmbDest?$AA@ 0061f774     dsoundd:wavexmo.obj
 0005:0004ada0       ??_C@_0M@GKGAFLDL@?$CBpxmbSource?$AA@ 0061f780     dsoundd:wavexmo.obj
 0005:0004adb0       ??_C@_0DK@PHDOIGCM@d?3?2xbox?2private?2windows?2directx?2@ 0061f790     dsoundd:wavexmo.obj
 0005:0004adf8       ??_C@_0BJ@IHOFDIIG@FILE_XMO_REQUEST_CONTEXT?$AA@ 0061f7d8     dsoundd:wavexmo.obj
 0005:0004ae18       ??_C@_05GFDKCJGP@pInfo?$AA@ 0061f7f8     dsoundd:wavexmo.obj
 0005:0004ae20       ??_C@_0FC@EFMBLHPK@Number?5of?5bytes?5returned?5by?5asyn@ 0061f800     dsoundd:wavexmo.obj
 0005:0004ae84       ??_C@_0BN@MNDHLONC@CWaveFileMediaObject?3?3DoWork?$AA@ 0061f864     dsoundd:wavexmo.obj
 0005:0004aea8       ??_C@_08LAGCGHJJ@m_fAsync?$AA@ 0061f888     dsoundd:wavexmo.obj
 0005:0004aeb8       ??_C@_0FF@DPOGPELI@XMO?5is?5busy?0?5cant?5accept?5any?5mor@ 0061f898     dsoundd:wavexmo.obj
 0005:0004af20       ??_C@_0CC@ODMMMABJ@Async?5Io?5request?5failed?5with?50x?$CF@ 0061f900     dsoundd:wavexmo.obj
 0005:0004af48       ??_C@_0BK@IHFGAPOK@CFileMediaObject?3?3Process?$AA@ 0061f928     dsoundd:wavexmo.obj
 0005:0004af68       ??_C@_0BG@KEPNCPPF@pxmbSource?9?$DOdwMaxSize?$AA@ 0061f948     dsoundd:wavexmo.obj
 0005:0004af84       ??_C@_0BF@JLFMHMCK@pxmbSource?9?$DOpvBuffer?$AA@ 0061f964     dsoundd:wavexmo.obj
 0005:0004afa0       ??_C@_0BK@HCJGPKLD@?$CB?$CIpxmbSource?5?$CG?$CG?5pxmbDest?$CJ?$AA@ 0061f980     dsoundd:wavexmo.obj
 0005:0004afc0       ??_C@_0BH@DNGDKPLK@pxmbSource?5?$HM?$HM?5pxmbDest?$AA@ 0061f9a0     dsoundd:wavexmo.obj
 0005:0004afdc       ??_C@_0BJ@DINKHGHB@?$CBIsListEmpty?$CI?$CGm_lstFree?$CJ?$AA@ 0061f9bc     dsoundd:ac97xmo.obj
 0005:0004affc       ??_C@_0BF@JFOADINC@Completing?5packet?5?$CFx?$AA@ 0061f9dc     dsoundd:ac97xmo.obj
 0005:0004b018       ??_C@_0DK@HPGCECCM@d?3?2xbox?2private?2windows?2directx?2@ 0061f9f8     dsoundd:ac97xmo.obj
 0005:0004b060       ??_C@_0CB@DFBLBMLH@CAc97MediaObject?3?3CompletePacket@ 0061fa40     dsoundd:ac97xmo.obj
 0005:0004b088       ??_C@_0BN@KFMMHEBM@XMO?5info?5buffer?5not?5supplied?$AA@ 0061fa68     dsoundd:ac97xmo.obj
 0005:0004b0ac       ??_C@_0BK@INLCJDIG@CAc97MediaObject?3?3GetInfo?$AA@ 0061fa8c     dsoundd:ac97xmo.obj
 0005:0004b0cc       ??_C@_0BI@OLMCMPIH@CAc97MediaObject?3?3Flush?$AA@ 0061faac     dsoundd:ac97xmo.obj
 0005:0004b0e8       ??_C@_0BM@GCMBOPM@CAc97MediaObject?3?3GetStatus?$AA@ 0061fac8     dsoundd:ac97xmo.obj
 0005:0004b10c       ??_C@_0CM@IJBFJHGE@XMO_STATUSF_ACCEPT_INPUT_DATA?5?$DN?$DN@ 0061faec     dsoundd:ac97xmo.obj
 0005:0004b140       ??_C@_0FJ@GFMILJKF@Packet?5data?5submitted?5to?5the?5AC9@ 0061fb20     dsoundd:ac97xmo.obj
 0005:0004b1ac       ??_C@_0CH@LIAEJNAM@?$CB?$CIdwPhysicalAddress?5?$CG?5?$CIPAGE_SIZE@ 0061fb8c     dsoundd:ac97xmo.obj
 0005:0004b1dc       ??_C@_0BD@NNABOLMD@Accepted?5packet?5?$CFx?$AA@ 0061fbbc     dsoundd:ac97xmo.obj
 0005:0004b1f4       ??_C@_0BA@IOLACHLJ@No?5free?5packets?$AA@ 0061fbd4     dsoundd:ac97xmo.obj
 0005:0004b208       ??_C@_0BM@KBHECPDM@AC97?5streams?5are?5input?5only?$AA@ 0061fbe8     dsoundd:ac97xmo.obj
 0005:0004b22c       ??_C@_0DF@CELPIAIP@Input?5buffers?5are?5restricted?5to?5@ 0061fc0c     dsoundd:ac97xmo.obj
 0005:0004b26c       ??_C@_0BK@JAEOHHMO@CAc97MediaObject?3?3Process?$AA@ 0061fc4c     dsoundd:ac97xmo.obj
 0005:0004b28c       ??_C@_0BL@JDGBLHGP@Encoded?5output?5not?5enabled?$AA@ 0061fc6c     dsoundd:ac97xmo.obj
 0005:0004b2ac       ??_C@_0CM@IDLDEKPC@The?5analog?5channel?5can?5only?5outp@ 0061fc8c     dsoundd:ac97xmo.obj
 0005:0004b2e0       ??_C@_0BF@PNBENIHJ@Invalid?5channel?5mode?$AA@ 0061fcc0     dsoundd:ac97xmo.obj
 0005:0004b2fc       ??_C@_0BK@MBBEFBBG@CAc97MediaObject?3?3SetMode?$AA@ 0061fcdc     dsoundd:ac97xmo.obj
 0005:0004b31c       ??_C@_0CD@BBIHEMKC@Failed?5to?5supply?5a?5position?5buff@ 0061fcfc     dsoundd:ac97xmo.obj
 0005:0004b348       ??_C@_0CF@MPOOJCFL@CAc97MediaObject?3?3GetCurrentPosi@ 0061fd28     dsoundd:ac97xmo.obj
 0005:0004b374       ??_C@_0BJ@CELCEBLE@CAc97MediaObject?3?3AddRef?$AA@ 0061fd54     dsoundd:ac97xmo.obj
 0005:0004b394       ??_C@_0DI@JBFLMJMK@d?3?2xbox?2private?2windows?2directx?2@ 0061fd74     dsoundd:ac97xmo.obj
 0005:0004b3d8       ??_C@_0CG@JLEEGCGB@DirectSound?3?3CAc97MediaObject?3?3A@ 0061fdb8     dsoundd:ac97xmo.obj
 0005:0004b408       ??_C@_0BK@OKDMHHHN@CAc97MediaObject?3?3Release?$AA@ 0061fde8     dsoundd:ac97xmo.obj
 0005:0004b428       ??_C@_0CH@BMDKKHAF@DirectSound?3?3CAc97MediaObject?3?3R@ 0061fe08     dsoundd:ac97xmo.obj
 0005:0004b458       ??_C@_0BD@JCFGJJGP@m_dwGlobalRefCount?$AA@ 0061fe38     dsoundd:ac97xmo.obj
 0005:0004b470       ??_C@_0L@OHLIACNC@AC97PACKET?$AA@ 0061fe50     dsoundd:ac97xmo.obj
 0005:0004b480       ??_C@_0BF@LBECNKHM@Channel?5already?5open?$AA@ 0061fe60     dsoundd:ac97xmo.obj
 0005:0004b49c       ??_C@_0BN@OLKKOBLG@CAc97MediaObject?3?3Initialize?$AA@ 0061fe7c     dsoundd:ac97xmo.obj
 0005:0004b4c0       ??_C@_0BF@POLJCOGF@Invalid?5channel?5type?$AA@ 0061fea0     dsoundd:ac97xmo.obj
 0005:0004b4dc       ??_C@_09LDANIPIA@m_pDevice?$AA@ 0061febc     dsoundd:ac97xmo.obj
 0005:0004b4e8       ??_C@_0M@GJIBIBNP@CAc97Device?$AA@ 0061fec8     dsoundd:ac97xmo.obj
 0005:0004b4f8       ??_C@_0L@HMBCAGAN@?$CBm_pDevice?$AA@ 0061fed8     dsoundd:ac97xmo.obj
 0005:0004b508       ?m_aCounters@CPerfMon@DirectSound@@0QBUDSPERFCOUNTER@@B 0061fee8     dsoundd:dsperf.obj
 0005:0004b56c       ??_C@_0CD@HMHAIPIP@DirectSound?5percent?5free?5EP?5cycl@ 0061ff4c     dsoundd:dsperf.obj
 0005:0004b598       ??_C@_0CD@HIIFFPLC@DirectSound?5percent?5free?5GP?5cycl@ 0061ff78     dsoundd:dsperf.obj
 0005:0004b5c4       ??_C@_0CB@LLJLFFAI@DirectSound?5physical?5memory?5used@ 0061ffa4     dsoundd:dsperf.obj
 0005:0004b5ec       ??_C@_0BN@LOHPFADN@DirectSound?5pool?5memory?5used?$AA@ 0061ffcc     dsoundd:dsperf.obj
 0005:0004b610       ??_C@_0BN@NIHAINCD@DirectSound?5free?5buffer?5SGEs?$AA@ 0061fff0     dsoundd:dsperf.obj
 0005:0004b634       ??_C@_0BL@OEKHNKFD@DirectSound?5free?53D?5voices?$AA@ 00620014     dsoundd:dsperf.obj
 0005:0004b654       ??_C@_0BL@LGFLBGN@DirectSound?5free?52D?5voices?$AA@ 00620034     dsoundd:dsperf.obj
 0005:0004b674       ?m_dwUsageThreshold@CMcpxSlopMemoryHeap@DirectSound@@2KB 00620054     dsoundd:heap.obj
 0005:0004b678       ??_C@_0BO@MLMBNMPN@nLength?5?$DO?5sizeof?$CI?$CKpRunMarker?$CJ?$AA@ 00620058     dsoundd:heap.obj
 0005:0004b69c       ??_C@_0DF@EMDAMHK@d?3?2xbox?2private?2windows?2directx?2@ 0062007c     dsoundd:heap.obj
 0005:0004b6dc       ??_C@_0DH@HAKJEPDD@d?3?2xbox?2private?2windows?2directx?2@ 006200bc     dsoundd:heap.obj
 0005:0004b720       ??_C@_0BB@KMKNPDHL@SGEHEAPRUNMARKER?$AA@ 00620100     dsoundd:heap.obj
 0005:0004b734       ??_C@_0CL@FOCIIPBL@m_nFreeElementCount?5?$DO?$DN?5pRunMarke@ 00620114     dsoundd:heap.obj
 0005:0004b768       ??_C@_0BM@GDHANFCL@Allocating?5SGE?5run?5?$CFx?5?$CI?$CFlu?$CJ?$AA@ 00620148     dsoundd:heap.obj
 0005:0004b78c       ??_C@_0CJ@PALLACNB@Split?5SGE?5run?5into?5?$CFx?5?$CI?$CFlu?$CJ?5and?5@ 0062016c     dsoundd:heap.obj
 0005:0004b7c0       ??_C@_0BN@HAFCFLMA@CMcpxBufferSgeHeap?3?3AllocRun?$AA@ 006201a0     dsoundd:heap.obj
 0005:0004b7e4       ??_C@_0BM@OMIGBIHN@?$CBIsListEmpty?$CI?$CGm_lstMarkers?$CJ?$AA@ 006201c4     dsoundd:heap.obj
 0005:0004b808       ??_C@_0CJ@OLPJCOOI@Coalescing?5SGE?5run?5?$CFx?5?$CI?$CFlu?$CJ?5and?5@ 006201e8     dsoundd:heap.obj
 0005:0004b83c       ??_C@_0CB@IJCLLCGN@CMcpxBufferSgeHeap?3?3CoalesceRuns@ 0062021c     dsoundd:heap.obj
 0005:0004b868       ??_C@_0EH@MGPIEIAF@pRunMarker?9?$DOnElement?5?$CL?5pRunMarke@ 00620248     dsoundd:heap.obj
 0005:0004b8c0       ??_C@_0BO@MKPFBHKH@?$CI2?$CJ?5?$DM?$DN?5PIO_METHOD_QUEUE_CLEAR?$AA@ 006202a0     dsoundd:heap.obj
 0005:0004b8e4       ??_C@_0BP@FIHLJGA@?$CB?$CIdwAddress?5?$CG?5?$CIPAGE_SIZE?5?9?51?$CJ?$CJ?$AA@ 006202c4     dsoundd:heap.obj
 0005:0004b90c       ??_C@_08HIKFCPCB@dnLength?$AA@ 006202ec     dsoundd:heap.obj
 0005:0004b918       ??_C@_0CK@JMKAKNMM@?$CB?$CI?$CIDWORD?$CJpvBaseAddress?5?$CG?5?$CIPAGE_S@ 006202f8     dsoundd:heap.obj
 0005:0004b94c       ??_C@_0CF@MKDGEMOO@dwSgeIndex?5?$DM?5MCPX_HW_MAX_BUFFER_@ 0062032c     dsoundd:heap.obj
 0005:0004b978       ??_C@_0BD@HMHJLLJJ@?$CBm_pSlopMemoryHeap?$AA@ 00620358     dsoundd:heap.obj
 0005:0004b990       ??_C@_09DCOKMFNA@?$CBm_dwUsed?$AA@ 00620370     dsoundd:heap.obj
 0005:0004b99c       ??_C@_0P@BDCAGIHP@?$CBm_dwAvailable?$AA@ 0062037c     dsoundd:heap.obj
 0005:0004b9b0       ??_C@_0BK@HJCNDBJC@this?5?$DN?$DN?5m_pSlopMemoryHeap?$AA@ 00620390     dsoundd:heap.obj
 0005:0004b9d0       ??_C@_0BJ@ENDNGINI@?$CBpMarkerNode?9?$DOfAllocated?$AA@ 006203b0     dsoundd:heap.obj
 0005:0004b9f0       ??_C@_0HM@DHDLHGJJ@Added?5?$CFx?5to?5the?5slop?5heap?5?$CIentry@ 006203d0     dsoundd:heap.obj
 0005:0004ba84       ??_C@_0BM@NKOGOBDE@CMcpxSlopMemoryHeap?3?3AddRun?$AA@ 00620464     dsoundd:heap.obj
 0005:0004baa8       ??_C@_0BB@IJHIFFPC@nLength?5?$DO?$DN?5nUsed?$AA@ 00620488     dsoundd:heap.obj
 0005:0004babc       ??_C@_0BP@IKOBCBBA@Allocating?5memory?5run?5?$CFx?5?$CI?$CFlu?$CJ?$AA@ 0062049c     dsoundd:heap.obj
 0005:0004bae4       ??_C@_0CM@HIFFJDIO@Split?5memory?5run?5into?5?$CFx?5?$CI?$CFlu?$CJ?5a@ 006204c4     dsoundd:heap.obj
 0005:0004bb18       ??_C@_0BL@OJLMAIAO@CMcpxSlopMemoryHeap?3?3Alloc?$AA@ 006204f8     dsoundd:heap.obj
 0005:0004bb38       ??_C@_0CM@MKMMHKFA@Coalescing?5memory?5run?5?$CFx?5?$CI?$CFlu?$CJ?5a@ 00620518     dsoundd:heap.obj
 0005:0004bb6c       ??_C@_0CC@BOIGKEFK@CMcpxSlopMemoryHeap?3?3CoalesceRun@ 0062054c     dsoundd:heap.obj
 0005:0004bb94       ??_C@_0BM@IEHJELCG@?$CBpNextRunMarker?9?$DOfAllocated?$AA@ 00620574     dsoundd:heap.obj
 0005:0004bbb8       ??_C@_0BI@CBCHBLME@?$CBpRunMarker?9?$DOfAllocated?$AA@ 00620598     dsoundd:heap.obj
 0005:0004bbd8       ??_C@_0ED@KLOEHPFP@?$CILPBYTE?$CJpRunMarker?5?$CL?5pRunMarker?9@ 006205b8     dsoundd:heap.obj
 0005:0004bc28       ??_C@_0CD@JOGDFDFB@Sharing?5SGE?5run?5?$CFx?5?$CIref?5count?5?$CFl@ 00620608     dsoundd:heap.obj
 0005:0004bc54       ??_C@_0BK@PJEGKKM@CMcpxBufferSgeHeap?3?3Alloc?$AA@ 00620634     dsoundd:heap.obj
 0005:0004bc74       ??_C@_0BO@BGGMCEOH@pRunMarker?9?$DOdwRefCount?5?$DM?5?$HO0UL?$AA@ 00620654     dsoundd:heap.obj
 0005:0004bc98       ??_C@_0BJ@JGFNOCPN@Freeing?5SGE?5run?5?$CFx?5?$CI?$CFlu?$CJ?$AA@ 00620678     dsoundd:heap.obj
 0005:0004bcb8       ??_C@_0BM@BOJNKAIC@CMcpxBufferSgeHeap?3?3FreeRun?$AA@ 00620698     dsoundd:heap.obj
 0005:0004bcdc       ??_C@_0CA@OGPDEANK@m_dwUsed?5?$DO?$DN?5pRunMarker?9?$DOnLength?$AA@ 006206bc     dsoundd:heap.obj
 0005:0004bd04       ??_C@_0BM@NGDNJECG@Freeing?5memory?5run?5?$CFx?5?$CI?$CFlu?$CJ?$AA@ 006206e4     dsoundd:heap.obj
 0005:0004bd28       ??_C@_0BK@PMMOCEFN@CMcpxSlopMemoryHeap?3?3Free?$AA@ 00620708     dsoundd:heap.obj
 0005:0004bd48       ??_C@_0DB@NIHOPDML@DSOUND_ALLOCATOR_SLOP?5?$DN?$DN?5pRunMar@ 00620728     dsoundd:heap.obj
 0005:0004bd84       ??_C@_0BF@EPINDCIM@dwOffset?5?$DM?5PAGE_SIZE?$AA@ 00620764     dsoundd:mcpbuf.obj
 0005:0004bda0       ??_C@_0FA@EBICGIKN@dwSgeIndex?5?$DM?5?$CIDWORD?$CJm_pSgeHeapEn@ 00620780     dsoundd:mcpbuf.obj
 0005:0004be00       ??_C@_0BA@IFMKODNE@m_pSgeHeapEntry?$AA@ 006207e0     dsoundd:mcpbuf.obj
 0005:0004be14       ??_C@_09BNKJGGDH@?$CBdwOffset?$AA@ 006207f4     dsoundd:mcpbuf.obj
 0005:0004be20       ??_C@_0BB@JJLKAIF@?$CBm_pSgeHeapEntry?$AA@ 00620800     dsoundd:mcpbuf.obj
 0005:0004be34       ??_C@_0BM@PDAHIJCP@m_pSettings?9?$DOm_pvBufferData?$AA@ 00620814     dsoundd:mcpbuf.obj
 0005:0004be58       ??_C@_0EB@OMECILEI@?$CB?$CI?$CI?$CIDWORD?$CJm_pSettings?9?$DOm_pvBuffe@ 00620838     dsoundd:mcpbuf.obj
 0005:0004bea8       ??_C@_0BE@EPMLOCIM@?$CCUnexpected?5format?$CC?$AA@ 00620888     dsoundd:mcpbuf.obj
 0005:0004bec0       ??_C@_0DJ@CEDKEBHK@d?3?2xbox?2private?2windows?2directx?2@ 006208a0     dsoundd:mcpbuf.obj
 0005:0004bf04       ??_C@_0CM@KFIKMGCB@?$CB?$CIm_dwStatus?5?$CG?5?$HOMCPX_VOICESTATUS@ 006208e4     dsoundd:mcpbuf.obj
 0005:0004bf38       ??_C@_0BH@LEAJOPNF@dwEndBufferOffset?5?$DO?$DN?51?$AA@ 00620918     dsoundd:mcpbuf.obj
 0005:0004bf54       ??_C@_0CP@IMLMJOKF@?$CI10?5?$CK?5m_bVoiceCount?$CJ?5?$DM?$DN?5PIO_METH@ 00620934     dsoundd:mcpbuf.obj
 0005:0004bf8c       ??_C@_0L@BLILGGLP@dwPosition?$AA@ 0062096c     dsoundd:mcpbuf.obj
 0005:0004bf9c       ??_C@_0BP@INCMHKLI@?$CB?$CIdwFlags?5?$CG?5DSBPLAY_FROMSTART?$CJ?$AA@ 0062097c     dsoundd:mcpbuf.obj
 0005:0004bfc8       ??_C@_0EJ@PCBCKLFL@?$CIm_dwStatus?5?$CG?5MCPX_VOICESTATUS_A@ 006209a8     dsoundd:mcpbuf.obj
 0005:0004c020       ??_C@_0BK@OKPGDKCI@m_pSettings?9?$DOm_paNotifies?$AA@ 00620a00     dsoundd:mcpbuf.obj
 0005:0004c040       ??_C@_0BN@GKBFFOIC@m_pSettings?9?$DOm_dwNotifyCount?$AA@ 00620a20     dsoundd:mcpbuf.obj
 0005:0004c064       ??_C@_0CF@FCHNGNOJ@CMcpxBuffer?3?3ScheduleDeferredCom@ 00620a44     dsoundd:mcpbuf.obj
 0005:0004c090       ??_C@_0CD@OBJGLBKC@CMcpxBuffer?3?3RemoveDeferredComma@ 00620a70     dsoundd:mcpbuf.obj
 0005:0004c0bc       ??_C@_0BM@IEGAJIJC@CMcpxBuffer?3?3MapInputBuffer?$AA@ 00620a9c     dsoundd:mcpbuf.obj
 0005:0004c0e0       ??_C@_0CJ@NNBHJPBC@m_dwStatus?5?$DN?$DN?5MCPX_VOICESTATUS_A@ 00620ac0     dsoundd:mcpbuf.obj
 0005:0004c114       ??_C@_0BM@GFJKICHP@m_pSettings?9?$DOm_dwBufferSize?$AA@ 00620af4     dsoundd:mcpbuf.obj
 0005:0004c138       ??_C@_0DK@OCJDFLHJ@Voice?5?$CFx?5?$CI?$CFx?$CJ?5using?5mixbin?5?$CFlu?5?$CI@ 00620b18     dsoundd:mcpbuf.obj
 0005:0004c180       ??_C@_0BO@KLMOFGEK@CMcpxBuffer?3?3MapEffectsBuffer?$AA@ 00620b60     dsoundd:mcpbuf.obj
 0005:0004c1a4       ??_C@_0BN@FLFJPFNP@?$CBm_pSettings?9?$DOm_dwBufferSize?$AA@ 00620b84     dsoundd:mcpbuf.obj
 0005:0004c1c8       ??_C@_0BN@MNMEPOIP@?$CBm_pSettings?9?$DOm_pvBufferData?$AA@ 00620ba8     dsoundd:mcpbuf.obj
 0005:0004c1ec       ??_C@_0O@LGHHDKBB@SUCCEEDED?$CIhr?$CJ?$AA@ 00620bcc     dsoundd:mcpbuf.obj
 0005:0004c1fc       ??_C@_08LOMBCJJO@?$CBdwFlags?$AA@ 00620bdc     dsoundd:mcpbuf.obj
 0005:0004c208       ??_C@_0CO@JAIKHIPF@?$CI4?5?$CK?5m_bVoiceCount?$CJ?5?$DM?$DN?5PIO_METHO@ 00620be8     dsoundd:mcpbuf.obj
 0005:0004c240       ??_C@_0DD@CCAPGDDI@Voice?5?$CFx?5?$CI?$CFx?$CJ?5setting?5current?5bu@ 00620c20     dsoundd:mcpbuf.obj
 0005:0004c280       ??_C@_0CA@EPMNGKBE@CMcpxBuffer?3?3SetCurrentPosition?$AA@ 00620c60     dsoundd:mcpbuf.obj
 0005:0004c2a8       ??_C@_0CM@IAEIMMLB@dwPlayCursor?5?$DM?$DN?5m_pSettings?9?$DOm_d@ 00620c88     dsoundd:mcpbuf.obj
 0005:0004c2dc       ??_C@_0BN@LFHMKIKD@dwCount?5?$DM?$DN?5m_dwReservedPages?$AA@ 00620cbc     dsoundd:dspdma.obj
 0005:0004c300       ??_C@_0DJ@PHICBFIB@d?3?2xbox?2private?2windows?2directx?2@ 00620ce0     dsoundd:dspdma.obj
 0005:0004c344       ??_C@_0DI@FGMABEIG@Effects?5Image?5scratch?5space?5usag@ 00620d24     dsoundd:dspdma.obj
 0005:0004c388       ??_C@_0DB@LPOANNID@DirectSound?3?3CMcpxDspScratchDma?3@ 00620d68     dsoundd:dspdma.obj
 0005:0004c3c4       ??_C@_06GGPOMPNM@?$CInone?$CJ?$AA@ 00620da4     dsoundd:cipher.obj
 0005:0004c3cc       ??_C@_09GPGAJHPD@?$CIunknown?$CJ?$AA@ 00620dac     dsoundd:cipher.obj
 0005:0004c3d8       ?m_adwGPOutputBufferSizes@CMcpxCore@DirectSound@@2QBKB 00620db8     dsoundd:mcpxcore.obj
 0005:0004c3dc       ?m_adwEPOutputBufferSizes@CMcpxCore@DirectSound@@2QBKB 00620dbc     dsoundd:mcpxcore.obj
 0005:0004c3e8       ??_C@_0BO@KCCGGAEN@?$CI8?$CJ?5?$DM?$DN?5PIO_METHOD_QUEUE_CLEAR?$AA@ 00620dc8     dsoundd:mcpxcore.obj
 0005:0004c40c       ??_C@_0DL@KIHPANBC@d?3?2xbox?2private?2windows?2directx?2@ 00620dec     dsoundd:mcpxcore.obj
 0005:0004c454       ??_C@_0BC@MDCMDCJP@CMcpxGPDspManager?$AA@ 00620e34     dsoundd:mcpxcore.obj
 0005:0004c46c       ??_C@_0CA@HJHFIAGH@?$CB?$CIdwTotalSgeCount?5?$CG?50xFFFF0000?$CJ?$AA@ 00620e4c     dsoundd:mcpxcore.obj
 0005:0004c494       ??_C@_0DD@NPIDPDEA@?$CB?$CIm_ctxMemory?$FLMCPX_MEM_GPOUTPUT?$FN@ 00620e74     dsoundd:mcpxcore.obj
 0005:0004c4d4       ??_C@_0DO@JKHGMFJD@?$CB?$CIm_ctxMemory?$FLMCPX_MEM_GPOUTPUT?$FN@ 00620eb4     dsoundd:mcpxcore.obj
 0005:0004c520       ??_C@_0BC@KDHAIHNE@CMcpxEPDspManager?$AA@ 00620f00     dsoundd:mcpxcore.obj
 0005:0004c538       ??_C@_0BB@OCPBFOOA@Invalid?5FE?5state?$AA@ 00620f18     dsoundd:mcpxcore.obj
 0005:0004c54c       ??_C@_0BB@EKGFJNO@Invalid?5SE?5state?$AA@ 00620f2c     dsoundd:mcpxcore.obj
 0005:0004c560       ??_C@_0DB@DPMEBCA@?$CB?$CIpContext?9?$DOPhysicalAddress?5?$CG?5?$CId@ 00620f40     dsoundd:mcpxcore.obj
 0005:0004c59c       ??_C@_0M@GEEDHOHN@dwAlignment?$AA@ 00620f7c     dsoundd:mcpxcore.obj
 0005:0004c5ac       ??_C@_0P@JHHBFHG@pContext?9?$DOSize?$AA@ 00620f8c     dsoundd:mcpxcore.obj
 0005:0004c5c0       ??_C@_0BL@OPIFOBLC@?$CBpContext?9?$DOPhysicalAddress?$AA@ 00620fa0     dsoundd:mcpxcore.obj
 0005:0004c5e0       ??_C@_0BK@CBDMAJHB@?$CBpContext?9?$DOVirtualAddress?$AA@ 00620fc0     dsoundd:mcpxcore.obj
 0005:0004c604       ??_C@_0BE@DKKPACBF@CMcpxSlopMemoryHeap?$AA@ 00620fe4     dsoundd:mcpxcore.obj
 0005:0004c61c       ??_C@_0CL@FALOOAAF@?$CB?$CIm_adwEPOutputBufferSizes?$FLi?$FN?5?$CF?5@ 00620ffc     dsoundd:mcpxcore.obj
 0005:0004c650       ??_C@_0CL@KBCOEPGO@?$CB?$CIm_adwGPOutputBufferSizes?$FLi?$FN?5?$CF?5@ 00621030     dsoundd:mcpxcore.obj
 0005:0004c684       ?m_dwAc97RegisterBase@CAc97Device@DirectSound@@2KB 00621064     dsoundd:ac97.obj
 0005:0004c688       ?m_dwAciRegisterBase@CAc97Device@DirectSound@@2KB 00621068     dsoundd:ac97.obj
 0005:0004c68c       ?m_wfxFormat@CAc97Device@DirectSound@@2UtWAVEFORMATEX@@B 0062106c     dsoundd:ac97.obj
 0005:0004c6a0       ?m_adwRegisterOffsets@CAc97Channel@DirectSound@@2QBKB 00621080     dsoundd:ac97.obj
 0005:0004c6a8       ?m_dwSilenceSize@CAc97Channel@DirectSound@@2KB 00621088     dsoundd:ac97.obj
 0005:0004c6b4       ??_C@_0CK@JJOOJCMG@The?5AC97?5device?5driver?5is?5alread@ 00621094     dsoundd:ac97.obj
 0005:0004c6e8       ??_C@_0DF@KLKLCKGB@d?3?2xbox?2private?2windows?2directx?2@ 006210c8     dsoundd:ac97.obj
 0005:0004c728       ??_C@_0BJ@EHADIMFA@CAc97Device?3?3CAc97Device?$AA@ 00621108     dsoundd:ac97.obj
 0005:0004c748       ??_C@_06PECPDLD@DSAC97?$AA@ 00621128     dsoundd:ac97.obj
 0005:0004c750       ??_C@_0BO@PEFIIICE@Failed?5to?5get?5CODEC?5semaphore?$AA@ 00621130     dsoundd:ac97.obj
 0005:0004c774       ??_C@_0CD@OAIDILGI@CAc97Device?3?3AcquireCodecSemapho@ 00621154     dsoundd:ac97.obj
 0005:0004c7a0       ??_C@_0CA@EBHBCGLE@Timed?5out?5waiting?5for?5ready?5bit?$AA@ 00621180     dsoundd:ac97.obj
 0005:0004c7c8       ??_C@_0BI@MMMJCIJG@CAc97Device?3?3CodecReady?$AA@ 006211a8     dsoundd:ac97.obj
 0005:0004c7e4       ??_C@_0BM@ELGJIPAJ@AC?5?897?5register?5peek?5failed?$AA@ 006211c4     dsoundd:ac97.obj
 0005:0004c808       ??_C@_0BO@OPIJJKBJ@CAc97Device?3?3PeekAc97Register?$AA@ 006211e8     dsoundd:ac97.obj
 0005:0004c82c       ??_C@_0BK@PNLPHEF@Failed?5to?5set?5power?5state?$AA@ 0062120c     dsoundd:ac97.obj
 0005:0004c84c       ??_C@_0BF@HKCIBLPB@CAc97Device?3?3PowerUp?$AA@ 0062122c     dsoundd:ac97.obj
 0005:0004c868       ??_C@_0CB@JMNBEPBG@bPrdCount?5?$DM?$DN?5ACIPRDL_ENTRY_COUNT@ 00621248     dsoundd:ac97.obj
 0005:0004c890       ??_C@_0CP@DOECGKNM@Improperly?5looping?5on?5the?5discon@ 00621270     dsoundd:ac97.obj
 0005:0004c8c8       ??_C@_0BE@OIJNCBGH@dwPosition?5?$DM?50xFFFF?$AA@ 006212a8     dsoundd:ac97.obj
 0005:0004c8e0       ??_C@_0BH@ICDCGPHP@dwPosition?5?$DM?$DN?5dwLength?$AA@ 006212c0     dsoundd:ac97.obj
 0005:0004c8fc       ??_C@_0BK@POAMABGN@?$CBPeekAciRegister8?$CIX_CTRL?$CJ?$AA@ 006212dc     dsoundd:ac97.obj
 0005:0004c91c       ??_C@_0CB@EBLNFACL@CAc97Channel?$CIthis?0?5nChannelType?$CJ@ 006212fc     dsoundd:ac97.obj
 0005:0004c944       ??_C@_0BM@LBDLLBEL@?$CBm_apChannels?$FLnChannelType?$FN?$AA@ 00621324     dsoundd:ac97.obj
 0005:0004c968       ??_C@_0M@CIAIIEJM@m_bPrdCount?$AA@ 00621348     dsoundd:ac97.obj
 0005:0004c978       ??_C@_0CH@NBJNCKCO@m_dwFlags?5?$CG?5AC97CHANNEL_OBJECTF_@ 00621358     dsoundd:ac97.obj
 0005:0004c9a8       ??_C@_0P@NNIHOMBL@?$CBm_bCurrentPrd?$AA@ 00621388     dsoundd:ac97.obj
 0005:0004c9bc       ??_C@_0DF@GAHFEOCL@?$CB?$CIdwBufferSize?5?$CF?5m_pDevice?9?$DOm_wf@ 0062139c     dsoundd:ac97.obj
 0005:0004ca00       ??_C@_0EH@NFHOMJAA@?$CIdwBufferSize?5?1?5?$CIm_pDevice?9?$DOm_wf@ 006213e0     dsoundd:ac97.obj
 0005:0004ca58       ??_C@_0CC@GIEFHAAL@m_bPrdCount?5?$DM?5ACIPRDL_ENTRY_COUN@ 00621438     dsoundd:ac97.obj
 0005:0004ca80       ??_C@_0CA@ODFENEBH@?$CB?$CIdwBufferSize?5?$CF?5dwPacketCount?$CJ?$AA@ 00621460     dsoundd:ac97.obj
 0005:0004caa8       ??_C@_06GMOAGDML@ACIPRD?$AA@ 00621488     dsoundd:ac97.obj
 0005:0004cab0       ??_C@_0BG@HOPFFPKD@AC?897?5stream?5starving?$AA@ 00621490     dsoundd:ac97.obj
 0005:0004cacc       ??_C@_0BP@DKHIOCCO@CAc97Channel?3?3ServiceInterrupt?$AA@ 006214ac     dsoundd:ac97.obj
 0005:0004caf4       ??_C@_0BL@HDJNMBLD@Channel?5?$CFlu?5not?5allocated?$CB?$AA@ 006214d4     dsoundd:ac97.obj
 0005:0004cb14       ??_C@_0CB@DMKKGDEM@CAc97Device?3?3ServiceAciInterrupt@ 006214f4     dsoundd:ac97.obj
 0005:0004cb48       ??_C@_0BN@BOHODCI@Unable?5to?5set?5PCM?5out?5volume?$AA@ 00621528     dsoundd:ac97.obj
 0005:0004cb6c       ??_C@_0BL@NAGMAMBI@Unable?5to?5set?5front?5volume?$AA@ 0062154c     dsoundd:ac97.obj
 0005:0004cb8c       ??_C@_0BM@GIKFABDJ@Failed?5to?5connect?5interrupt?$AA@ 0062156c     dsoundd:ac97.obj
 0005:0004cbb0       ??_C@_0BA@DNIFEHFF@CODEC?5not?5ready?$AA@ 00621590     dsoundd:ac97.obj
 0005:0004cbc4       ??_C@_0BI@JOAPHODK@CAc97Device?3?3Initialize?$AA@ 006215a4     dsoundd:ac97.obj
 0005:0004cbe0       ??_C@_0O@JMOGIAAO@m_pGlobalProc?$AA@ 006215c0     dsoundd:epdsp.obj
 0005:0004cbf0       ??_C@_0DI@COHFCENG@d?3?2xbox?2private?2windows?2directx?2@ 006215d0     dsoundd:epdsp.obj
 0005:0004cc34       ??_C@_0BK@KABPDEFL@CMcpxDspScratchDma?$CIFALSE?$CJ?$AA@ 00621614     dsoundd:epdsp.obj
 0005:0004cc54       ??_C@_0DD@HGIHOHGM@CMcpxCore?3?3m_ctxMemory?$FLMCPX_MEM_@ 00621634     dsoundd:epdsp.obj
 0005:0004cc94       ??_C@_0DO@DDBAMAJF@CMcpxCore?3?3m_ctxMemory?$FLMCPX_MEM_@ 00621674     dsoundd:epdsp.obj
 0005:0004cce0       ??_C@_0DN@GCBAOBFP@CMcpxCore?3?3m_ctxMemory?$FLMCPX_MEM_@ 006216c0     dsoundd:epdsp.obj
 0005:0004cd2c       ??_C@_0DA@GMHOJOMM@CMcpxCore?3?3m_ctxMemory?$FLMCPX_MEM_@ 0062170c     dsoundd:epdsp.obj
 0005:0004cd68       ??_C@_0DL@BPBPIMKN@CMcpxCore?3?3m_ctxMemory?$FLMCPX_MEM_@ 00621748     dsoundd:epdsp.obj
 0005:0004cdb0       ??_C@_0DK@LEMCFCOB@CMcpxCore?3?3m_ctxMemory?$FLMCPX_MEM_@ 00621790     dsoundd:epdsp.obj
 0005:0004f9b8       ?m_aContext@CDebug@DirectSound@@1PAUDPFCONTEXT@@A 00624398     dsoundd:dscommon.obj
 0005:0004fcb8       ?m_lstPhysicalAllocs@CMemoryManager@DirectSound@@1U_LIST_ENTRY@@A 00624698     dsoundd:dscommon.obj
 0005:0004fcc0       ?m_lstPoolAllocs@CMemoryManager@DirectSound@@1U_LIST_ENTRY@@A 006246a0     dsoundd:dscommon.obj
 0005:0004fcc8       ?m_lstSlopAllocs@CMemoryManager@DirectSound@@1U_LIST_ENTRY@@A 006246a8     dsoundd:dscommon.obj
 0005:0004fcd0       ?m_dwRefCount@CFpState@DirectSound@@0KA 006246b0     dsoundd:dscommon.obj
 0005:0004fd74       _g_dwDirectSoundDebugLevel 00624754     dsoundd:globals.obj
 0005:0004fd78       _g_dwDirectSoundDebugBreakLevel 00624758     dsoundd:globals.obj
 0005:0004fd7c       _g_dwDirectSoundDebugFlags 0062475c     dsoundd:globals.obj
 0005:0004fd80       _g_pfnDirectSoundDebugCallback 00624760     dsoundd:globals.obj
 0005:0004fd84       _g_dwDirectSoundPoolMemoryUsage 00624764     dsoundd:globals.obj
 0005:0004fd88       _g_dwDirectSoundPhysicalMemoryUsage 00624768     dsoundd:globals.obj
 0005:0004fd8c       _g_dwDirectSoundPhysicalMemorySlop 0062476c     dsoundd:globals.obj
 0005:0004fd90       _g_dwDirectSoundPhysicalMemoryRecovered 00624770     dsoundd:globals.obj
 0005:0004fd94       _g_dwDirectSoundFree2dVoices 00624774     dsoundd:globals.obj
 0005:0004fd98       _g_dwDirectSoundFree3dVoices 00624778     dsoundd:globals.obj
 0005:0004fd9c       _g_dwDirectSoundFreeBufferSGEs 0062477c     dsoundd:globals.obj
 0005:0004fda0       _g_dwDirectSoundDeltaPanicCount 00624780     dsoundd:globals.obj
 0005:0004fda4       _g_dwDirectSoundDeltaWarningCount 00624784     dsoundd:globals.obj
 0005:0004fda8       _g_dwDirectSoundSpeakerConfig 00624788     dsoundd:globals.obj
 0005:0004fdac       _g_dwDirectSoundOverrideSpeakerConfig 0062478c     dsoundd:globals.obj
 0005:0004fdb0       _g_fDirectSoundInFinalRelease 00624790     dsoundd:globals.obj
 0005:0004fdb4       _g_fDirectSoundDisableBusyWaitWarning 00624794     dsoundd:globals.obj
 0005:0004fdb8       _g_fDirectSoundI3DL2Overdelay 00624798     dsoundd:globals.obj
 0005:0004fdbc       _g_DirectSoundCriticalSection 0062479c     dsoundd:globals.obj
 0005:000504e4       ?m_fSimulateDeltaPanic@CMcpxAPU@DirectSound@@0HA 00624ec4     dsoundd:mcpapu.obj
 0005:000504e8       ?m_fSimulateDeltaWarning@CMcpxAPU@DirectSound@@0HA 00624ec8     dsoundd:mcpapu.obj
 0005:000504f4       ?m_dwStuckVoiceCount@CMcpxVoiceClient@DirectSound@@2KA 00624ed4     dsoundd:mcpvoice.obj
 0005:000504fc       ?m_dwGlobalRefCount@CAc97MediaObject@DirectSound@@1KA 00624edc     dsoundd:ac97xmo.obj
 0005:00050500       ?m_pDevice@CAc97MediaObject@DirectSound@@1PAVCAc97Device@2@A 00624ee0     dsoundd:ac97xmo.obj
 0005:00050508       ?m_pSlopMemoryHeap@CMcpxSlopMemoryHeap@DirectSound@@2PAV12@A 00624ee8     dsoundd:heap.obj
 0005:00050510       ?m_pDevice@CAc97Device@DirectSound@@2PAV12@A 00624ef0     dsoundd:ac97.obj
 0005:00050518       ?m_Interrupt@CAc97Device@DirectSound@@1U_KINTERRUPT@@A 00624ef8     dsoundd:ac97.obj
 0005:00051630       ?m_pvEncoderImageData@CDirectSound@DirectSound@@2PAXA 00626010     dsoundd:dsapi.obj
 0005:00051634       ?m_dwEncoderImageSize@CDirectSound@DirectSound@@2KA 00626014     dsoundd:dsapi.obj
 0005:00051638       ?m_pDirectSound@CDirectSound@DirectSound@@2PAV12@A 00626018     dsoundd:dsapi.obj
 0005:00051644       ?m_fps@CFpState@DirectSound@@0U_KFLOATING_SAVE@@A 00626024     dsoundd:dscommon.obj
 0005:00051664       ?m_dwPhysicalMemoryUsage@CMemoryManager@DirectSound@@2AAKA 00626044     dsoundd:dscommon.obj
 0005:00051668       ?m_dwDpfBreakLevel@CDebug@DirectSound@@2AAKA 00626048     dsoundd:dscommon.obj
 0005:0005166c       ?m_dwFlags@CDebug@DirectSound@@2AAKA 0062604c     dsoundd:dscommon.obj
 0005:00051670       ?m_pfnCallback@CDebug@DirectSound@@2AAP6GHKPBD@ZA 00626050     dsoundd:dscommon.obj
 0005:00051674       ?m_dwDpfLevel@CDebug@DirectSound@@2AAKA 00626054     dsoundd:dscommon.obj
 0005:00051678       ?m_dwPoolMemoryUsage@CMemoryManager@DirectSound@@2AAKA 00626058     dsoundd:dscommon.obj
 0005:00051688       ?m_vtable@CHRTFSource@DirectSound@@0UHRTFSOURCEVECTORTABLE@@A 00626068     dsoundd:hrtf.obj
 0005:000516b0       ?m_nAlgorithm@CHRTFSource@DirectSound@@0IA 00626090     dsoundd:hrtf.obj
 0005:000516c0       ?m_Interrupt@CMcpxAPU@DirectSound@@1U_KINTERRUPT@@A 006260a0     dsoundd:mcpapu.obj
 0005:0005174c       ?m_dwUsed@CMcpxSlopMemoryHeap@DirectSound@@2AAKA 0062612c     dsoundd:heap.obj
 0005:00051750       ?m_dwAvailable@CMcpxSlopMemoryHeap@DirectSound@@2AAKA 00626130     dsoundd:heap.obj
 0005:00051768       ?m_ctxMemory@CMcpxCore@DirectSound@@2PAUMCPX_ALLOC_CONTEXT@@A 00626148     dsoundd:mcpxcore.obj
 0006:00000000       ?XID_BeginTypeDescriptionTable@@3KA 006272c0     xapilibd:typeinfo.obj
 0006:00001008       _GamepadTypeInfoENTRY      006282c8     xapilibd:typeinfo.obj
 0006:00002010       _IrRemoteTypeInfoENTRY     006292d0     xapilibd:typeinfo.obj
 0006:00003018       _KeyboardTypeInfoENTRY     0062a2d8     libSDLx:keyboard.obj
 0006:00004020       _MouseTypeInfoENTRY        0062b2e0     xapilibd:mouse.obj
 0006:00005028       ?XID_EndTypeDescriptionTable@@3KA 0062c2e8     xapilibd:typeinfo.obj
 0006:00006030       _USBD_BeginClassDescriptionTable 0062d2f0     xapilibd:usbd.obj
 0006:00007038       _XID_DescriptionPointer    0062e2f8     xapilibd:xid.obj
 0006:0000703c       _XID_1DescriptionPointer   0062e2fc     xapilibd:xid.obj
 0006:00008044       _USBHUB_DescriptionPointer 0062f304     xapilibd:hub.obj
 0006:0000904c       _USBD_EndClassDescriptionTable 0063030c     xapilibd:usbd.obj
 0006:0000a051       ?sm_2ndLevelHub@IUsbInit@@0EA 00631311     xapilibd:usbinit.obj
 0006:0000b058       _XDEVICE_TYPE_DEBUG_KEYBOARD_TABLE 00632318     libSDLx:keyboard.obj
 0006:0000b064       ?KeyboardDefaults@@3U_XINPUT_KEYBOARD@@A 00632324     libSDLx:keyboard.obj
 0006:0000b06c       ?KeyboardReportInfoList@@3PAU_XID_REPORT_TYPE_INFO@@A 0063232c     libSDLx:keyboard.obj
 0006:0000b071       ?KeyboardLEDDefaults@@3U_XINPUT_KEYBOARD_LEDS@@A 00632331     libSDLx:keyboard.obj
 0006:0000b074       ?KeyboardLEDReportInfoList@@3PAU_XID_REPORT_TYPE_INFO@@A 00632334     libSDLx:keyboard.obj
 0006:0000b07c       ?KeyboardDefaultPolling@@3U_XINPUT_POLLING_PARAMETERS@@A 0063233c     libSDLx:keyboard.obj
 0006:0000b080       ?KeyboardTypeInfo@@3U_XID_TYPE_INFORMATION@@A 00632340     libSDLx:keyboard.obj
 0006:0000b0c4       ?XID_KeyboardState@@3U_XID_KEYBOARD_STATE@@A 00632384     libSDLx:queue.obj
 0006:0000b0f8       ?HidToVK_Table@@3PAEA      006323b8     libSDLx:queue.obj
 0006:0000b16c       ?HidModifierToVK_Table@@3PAEA 0063242c     libSDLx:queue.obj
 0006:0000b174       ?HidSymToAscii_Table@@3PAEA 00632434     libSDLx:queue.obj
 0006:0000b188       ?HidSymToAsciiShift_Table@@3PAEA 00632448     libSDLx:queue.obj
 0006:0000b1a4       ?HidNumPadToAscii@@3PAEA   00632464     libSDLx:queue.obj
 0006:0000b1b4       ?HidNumPadShiftToAscii@@3PAEA 00632474     libSDLx:queue.obj
 0006:0000b1f8       ?XID_OpenDeviceList@@3PAU_XID_OPEN_DEVICE@@A 006324b8     xapilibd:xidinp.obj
 0006:0000b1fc       _XPP_XInitDevicesHasBeenCalled 006324bc     xapilibd:xpp.obj
 0006:0000b200       _XDEVICE_TYPE_GAMEPAD_TABLE 006324c0     xapilibd:typeinfo.obj
 0006:0000b20c       ?GamepadDefaults@@3U_XINPUT_GAMEPAD@@A 006324cc     xapilibd:typeinfo.obj
 0006:0000b220       ?GameInputReportInfoList@@3PAU_XID_REPORT_TYPE_INFO@@A 006324e0     xapilibd:typeinfo.obj
 0006:0000b228       ?RumbleDefaults@@3U_XINPUT_RUMBLE@@A 006324e8     xapilibd:typeinfo.obj
 0006:0000b22c       ?GameOutputReportInfoList@@3PAU_XID_REPORT_TYPE_INFO@@A 006324ec     xapilibd:typeinfo.obj
 0006:0000b234       ?GameDefaultPolling@@3U_XINPUT_POLLING_PARAMETERS@@A 006324f4     xapilibd:typeinfo.obj
 0006:0000b238       ?GamepadTypeInfo@@3U_XID_TYPE_INFORMATION@@A 006324f8     xapilibd:typeinfo.obj
 0006:0000b264       _XDEVICE_TYPE_IR_REMOTE_TABLE 00632524     xapilibd:typeinfo.obj
 0006:0000b270       ?IrRemoteDefaults@@3U_XINPUT_IR_REMOTE@@A 00632530     xapilibd:typeinfo.obj
 0006:0000b274       ?IrRemoteReportInfoList@@3PAU_XID_REPORT_TYPE_INFO@@A 00632534     xapilibd:typeinfo.obj
 0006:0000b27c       ?IrRemoteDefaultPolling@@3U_XINPUT_POLLING_PARAMETERS@@A 0063253c     xapilibd:typeinfo.obj
 0006:0000b280       ?IrRemoteTypeInfo@@3U_XID_TYPE_INFORMATION@@A 00632540     xapilibd:typeinfo.obj
 0006:0000b2d0       _XDEVICE_TYPE_DEBUG_MOUSE_TABLE 00632590     xapilibd:mouse.obj
 0006:0000b2dc       ?MouseDefaults@@3U_XINPUT_MOUSE@@A 0063259c     xapilibd:mouse.obj
 0006:0000b2e0       ?MouseReportInfoList@@3PAU_XID_REPORT_TYPE_INFO@@A 006325a0     xapilibd:mouse.obj
 0006:0000b2e8       ?MouseDefaultPolling@@3U_XINPUT_POLLING_PARAMETERS@@A 006325a8     xapilibd:mouse.obj
 0006:0000b2ec       ?MouseTypeInfo@@3U_XID_TYPE_INFORMATION@@A 006325ac     xapilibd:mouse.obj
 0006:0000b328       _XID_Description           006325e8     xapilibd:xid.obj
 0006:0000b340       _XID_1Description          00632600     xapilibd:xid.obj
 0006:0000b358       ?XID_gResourceRequirements@@3U_USB_RESOURCE_REQUIREMENTS@@A 00632618     xapilibd:xid.obj
 0006:0000b374       ?USBD_PageZeroBytesRemaining@@3KA 00632634     xapilibd:usbmem.obj
 0006:0000b378       _USBHUB_Types              00632638     xapilibd:hub.obj
 0006:0000b37c       _USBHUB_Description        0063263c     xapilibd:hub.obj
 0006:0000c3c4       ?GetMaxDeviceTypeCount@IUsbInit@@QAEKPAU_XPP_DEVICE_TYPE@@@Z 00633684 f   xapilibd:usbinit.obj
 0006:0000c42d       ?UseDefaultCount@IUsbInit@@QAEHXZ 006336ed f   xapilibd:usbinit.obj
 0006:0000c443       ?RegisterResources@IUsbInit@@QAEXPAU_USB_RESOURCE_REQUIREMENTS@@@Z 00633703 f   xapilibd:usbinit.obj
 0006:0000c6df       ?Process@IUsbInit@@QAEXXZ  0063399f f   xapilibd:usbinit.obj
 0006:0000c87a       _XID_Init@4                00633b3a f   xapilibd:xid.obj
 0006:0000cb5e       _USBD_Init@8               00633e1e f   xapilibd:usbd.obj
 0006:0000cbfa       _USBD_NewHostController@8  00633eba f   xapilibd:usbd.obj
 0006:0000ccbf       ??_H@YGXPAXIHP6EPAX0@Z@Z   00633f7f f i xapilibd:tree.obj
 0006:0000cce9       ?Init@CDeviceTree@@QAEXKK@Z 00633fa9 f   xapilibd:tree.obj
 0006:0000cdb4       _HCD_DriverEntry@4         00634074 f   xapilibd:ohcd.obj
 0006:0000cdc6       _HCD_EnumHardware@0        00634086 f   xapilibd:ohcd.obj
 0006:0000ce18       @OHCD_fSetResources@8      006340d8 f   xapilibd:ohcd.obj
 0006:0000ce81       _HCD_NewHostController@12  00634141 f   xapilibd:ohcd.obj
 0006:0000d071       _USBHUB_Init@4             00634331 f   xapilibd:hub.obj
 0006:0000d0f8       @OHCD_RootHubInitialize@4  006343b8 f   xapilibd:roothub.obj
 0006:0000d1d4       @OHCD_fPoolInit@4          00634494 f   xapilibd:pool.obj
 0006:0000d51c       @OHCD_ScheduleInitialize@4 006347dc f   xapilibd:schedule.obj
 0006:0000d595       _OHCD_DevSysCheckHardware@4 00634855 f   xapilibd:devsys.obj
 0006:0000d5c3       _OHCD_DevSysTakeControl@4  00634883 f   xapilibd:devsys.obj
 0006:0000e644       ?Enable2ndLevelHub@IUsbInit@@SGXXZ 00635904 f i libSDLx:queue.obj
 0006:0000e64e       _XInputDebugGetKeystroke@4 0063590e f   libSDLx:queue.obj
 0006:0000e77d       ?XID_KeyboardInit@@YIHXZ   00635a3d f   libSDLx:queue.obj
 0006:0000e788       ?XID_KeyboardClose@@YIXPAU_XID_OPEN_DEVICE@@@Z 00635a48 f   libSDLx:queue.obj
 0006:0000e7a7       ?XID_KeyboardRemove@@YIXPAU_XID_OPEN_DEVICE@@@Z 00635a67 f   libSDLx:queue.obj
 0006:0000e7b9       ?XID_KeyboardInitQueue@@YGHHK@Z 00635a79 f   libSDLx:queue.obj
 0006:0000e80a       ?XID_KeyboardReset@@YGXH@Z 00635aca f   libSDLx:queue.obj
 0006:0000e832       ?XID_KeyboardQueueGetWritePos@@YGPAU_XINPUT_DEBUG_KEYSTROKE@@H@Z 00635af2 f   libSDLx:queue.obj
 0006:0000e855       ?XID_KeyboardQueueIncrementWritePos@@YGPAU_XINPUT_DEBUG_KEYSTROKE@@H@Z 00635b15 f   libSDLx:queue.obj
 0006:0000e89e       ?XID_KeyboardQueueHidKeystroke@@YGXEEPAU_XINPUT_DEBUG_KEYSTROKE@@@Z 00635b5e f   libSDLx:queue.obj
 0006:0000e9bc       _XInputDebugInitKeyboardQueue@4 00635c7c f   libSDLx:queue.obj
 0006:0000ea32       ?XID_KeyboardOpen@@YIHPAU_XID_OPEN_DEVICE@@@Z 00635cf2 f   libSDLx:queue.obj
 0006:0000ea5c       ?XID_KeyboardUpdate@@YGXHPAU_XINPUT_KEYBOARD@@@Z 00635d1c f   libSDLx:queue.obj
 0006:0000ecf3       ?XID_KeyboardNewData@@YIXPAU_XID_OPEN_DEVICE@@@Z 00635fb3 f   libSDLx:queue.obj
 0006:0000ed2b       ?XidInsertHandle@@YGXPAU_XID_OPEN_DEVICE@@@Z 00635feb f   xapilibd:xidinp.obj
 0006:0000ed5f       ?XidRemoveHandle@@YGXPAU_XID_OPEN_DEVICE@@@Z 0063601f f   xapilibd:xidinp.obj
 0006:0000eddd       ?XidCheckHandle@@YGXPADPAU_XID_OPEN_DEVICE@@@Z 0063609d f   xapilibd:xidinp.obj
 0006:0000ee6a       _XInputOpen@16             0063612a f   xapilibd:xidinp.obj
 0006:0000ef8d       _XInputClose@4             0063624d f   xapilibd:xidinp.obj
 0006:0000efea       _XInputGetCapabilities@8   006362aa f   xapilibd:xidinp.obj
 0006:0000f297       _XInputGetState@8          00636557 f   xapilibd:xidinp.obj
 0006:0000f355       _XInputSetState@8          00636615 f   xapilibd:xidinp.obj
 0006:0000f3be       _XInputPoll@4              0063667e f   xapilibd:xidinp.obj
 0006:0000f441       _XdReportDeviceInsertionRemoval@12 00636701 f   xapilibd:xpp.obj
 0006:0000f46c       _XPeekDevices@12           0063672c f   xapilibd:xpp.obj
 0006:0000f4d8       _XInitDevices@8            00636798 f   xapilibd:xpp.obj
 0006:0000f50d       _XGetDevices@4             006367cd f   xapilibd:xpp.obj
 0006:0000f55b       _XGetDeviceChanges@12      0063681b f   xapilibd:xpp.obj
 0006:0000f603       ?GetTypeInformation@@YIPAU_XID_TYPE_INFORMATION@@EPAE@Z 006368c3 f   xapilibd:typeinfo.obj
 0006:0000f64a       ?GetTypeInformation@@YIPAU_XID_TYPE_INFORMATION@@PAU_XPP_DEVICE_TYPE@@@Z 0063690a f   xapilibd:typeinfo.obj
 0006:0000f682       ?XID_MouseOpen@@YIHPAU_XID_OPEN_DEVICE@@@Z 00636942 f   xapilibd:mouse.obj
 0006:0000f803       ?AddSignedByteWithSaturation@@YGDDD@Z 00636ac3 f i xapilibd:mouse.obj
 0006:0000f82c       ?XID_MouseNewData@@YIXPAU_XID_OPEN_DEVICE@@@Z 00636aec f   xapilibd:mouse.obj
 0006:0000f8b5       ?Is2ndLevelHubEnabled@IUsbInit@@SGEXZ 00636b75 f i xapilibd:usbinit.obj
 0006:0000f8bb       ?XID_AllocateHandle@@YGPAU_XID_OPEN_DEVICE@@XZ 00636b7b f i xapilibd:xid.obj
 0006:0000f8f7       ?XID_FreeHandle@@YGXPAU_XID_OPEN_DEVICE@@@Z 00636bb7 f i xapilibd:xid.obj
 0006:0000f918       ?XID_SetEnumWatchdog@@YGXXZ 00636bd8 f i xapilibd:xid.obj
 0006:0000f939       ?XID_ClearEnumWatchdog@@YGXXZ 00636bf9 f i xapilibd:xid.obj
 0006:0000f948       ?XID_WatchdogTimerProc@@YGXPAU_KDPC@@PAX11@Z 00636c08 f   xapilibd:xid.obj
 0006:0000f970       ?XID_fRemoveDeviceComplete@@YIXPAU_XID_DEVICE_NODE@@@Z 00636c30 f   xapilibd:xid.obj
 0006:0000f9ff       ?XID_fFindNode@@YIPAU_XID_DEVICE_NODE@@PAU_XID_TYPE_INFORMATION@@K@Z 00636cbf f   xapilibd:xid.obj
 0006:0000fa87       ?XID_fOpenEndpoints@@YIJPAU_XID_OPEN_DEVICE@@PAU_XINPUT_POLLING_PARAMETERS@@@Z 00636d47 f   xapilibd:xid.obj
 0006:0000fbb3       ?XID_CloseEndpointStateMachine@@YGXPAU_URB_CLOSE_ENDPOINT@@PAU_XID_OPEN_DEVICE@@@Z 00636e73 f   xapilibd:xid.obj
 0006:0000fcdf       ?XID_NewInterruptData@@YGXPAT_URB@@PAU_XID_OPEN_DEVICE@@@Z 00636f9f f   xapilibd:xid.obj
 0006:0000fe71       ?XID_ClearInputStallComplete@@YGXPAT_URB@@PAU_XID_OPEN_DEVICE@@@Z 00637131 f   xapilibd:xid.obj
 0006:0000ff70       ?XID_ProcessGamepadData@@YIXPAU_XID_OPEN_DEVICE@@@Z 00637230 f   xapilibd:xid.obj
 0006:0000ffd6       ?XID_ProcessIRRemoteData@@YIXPAU_XID_OPEN_DEVICE@@@Z 00637296 f   xapilibd:xid.obj
 0006:00010003       ?XID_fOutputComplete1@@YIXPAT_URB@@PAU_XINPUT_FEEDBACK_INTERNAL@@@Z 006372c3 f   xapilibd:xid.obj
 0006:0001003b       ?XID_ClearOutputStallComplete@@YGXPAT_URB@@PAU_XINPUT_FEEDBACK_INTERNAL@@@Z 006372fb f   xapilibd:xid.obj
 0006:000100cc       ?XID_SyncComplete@@YGXPAT_URB@@PAU_KEVENT@@@Z 0063738c f   xapilibd:xid.obj
 0006:000100e5       ?XID_fWaitForUrb@@YIXPAVIUsbDevice@@PAT_URB@@PAU_KEVENT@@@Z 006373a5 f   xapilibd:xid.obj
 0006:00010186       ?XID_EnumKeyboardComplete@@YGXPAT_URB@@PAU_XID_DEVICE_NODE@@@Z 00637446 f   xapilibd:xid.obj
 0006:0001024c       ?XID_EnumMouseComplete@@YGXPAT_URB@@PAU_XID_DEVICE_NODE@@@Z 0063750c f   xapilibd:xid.obj
 0006:00010329       ?XID_fCloseEndpoints@@YIXPAU_XID_OPEN_DEVICE@@@Z 006375e9 f   xapilibd:xid.obj
 0006:00010394       ?XID_OutputComplete@@YGXPAT_URB@@PAU_XINPUT_FEEDBACK_INTERNAL@@@Z 00637654 f   xapilibd:xid.obj
 0006:00010498       ?XID_EnumKeyboard@@YGXPAT_URB@@PAU_XID_DEVICE_NODE@@@Z 00637758 f   xapilibd:xid.obj
 0006:00010549       ?XID_EnumMouse@@YGXPAT_URB@@PAU_XID_DEVICE_NODE@@@Z 00637809 f   xapilibd:xid.obj
 0006:000105fa       _XID_RemoveDevice@4        006378ba f   xapilibd:xid.obj
 0006:000106a7       ?XID_fCloseDevice@@YIXPAU_XID_OPEN_DEVICE@@@Z 00637967 f   xapilibd:xid.obj
 0006:000107a1       ?XID_fSendDeviceReport@@YIKPAU_XID_OPEN_DEVICE@@PAU_XINPUT_FEEDBACK_INTERNAL@@@Z 00637a61 f   xapilibd:xid.obj
 0006:0001092d       ?XID_EnumLegacy1@@YGXPAT_URB@@PAU_XID_DEVICE_NODE@@@Z 00637bed f   xapilibd:xid.obj
 0006:00010a45       ?XID_EnumStage1@@YGXPAT_URB@@PAU_XID_DEVICE_NODE@@@Z 00637d05 f   xapilibd:xid.obj
 0006:00010b85       ?XID_fOpenDevice@@YIKPAU_XID_TYPE_INFORMATION@@KPAPAU_XID_OPEN_DEVICE@@PAU_XINPUT_POLLING_PARAMETERS@@@Z 00637e45 f   xapilibd:xid.obj
 0006:00010e7a       _XID_AddDevice@4           0063813a f   xapilibd:xid.obj
 0006:00011050       ?GetLowSpeed@IUsbDevice@@QBEEXZ 00638310 f i xapilibd:usbdev.obj
 0006:0001105a       ?GetHubPort@IUsbDevice@@QBEEXZ 0063831a f i xapilibd:usbdev.obj
 0006:00011060       ?GetParent@IUsbDevice@@QBEPAV1@XZ 00638320 f i xapilibd:usbdev.obj
 0006:0001107c       ?GetFirstChild@IUsbDevice@@QBEPAV1@XZ 0063833c f i xapilibd:usbdev.obj
 0006:00011098       ?GetSibling@IUsbDevice@@QBEPAV1@XZ 00638358 f i xapilibd:usbdev.obj
 0006:000110b4       ?USBD_SubmitSynchronousRequestComplete@@YGXPAT_URB@@PAU_KEVENT@@@Z 00638374 f   xapilibd:usbdev.obj
 0006:000110cd       ?CancelRequest@IUsbDevice@@QAEJPAT_URB@@@Z 0063838d f   xapilibd:usbdev.obj
 0006:000110e8       ?GetExtension@IUsbDevice@@QBEPAXXZ 006383a8 f   xapilibd:usbdev.obj
 0006:000110ec       ?SetExtension@IUsbDevice@@QAEPAXPAX@Z 006383ac f   xapilibd:usbdev.obj
 0006:00011100       ?IsHardwareConnected@IUsbDevice@@QBEEXZ 006383c0 f   xapilibd:usbdev.obj
 0006:0001111e       ?GetInterfaceNumber@IUsbDevice@@QBEEXZ 006383de f   xapilibd:usbdev.obj
 0006:00011151       ?SetClassSpecificType@IUsbDevice@@QAEXE@Z 00638411 f   xapilibd:usbdev.obj
 0006:00011161       ?Win32FromUsbdStatus@IUsbDevice@@SGKJ@Z 00638421 f   xapilibd:usbdev.obj
 0006:000111f7       ?NtStatusFromUsbdStatus@IUsbDevice@@SGJJ@Z 006384b7 f   xapilibd:usbdev.obj
 0006:0001128a       ?GetPort@IUsbDevice@@QBEKXZ 0063854a f   xapilibd:usbdev.obj
 0006:0001128e       ?OpenDefaultEndpoint@IUsbDevice@@AAEJPAT_URB@@@Z 0063854e f   xapilibd:usbdev.obj
 0006:000113c6       ?CloseDefaultEndpoint@IUsbDevice@@AAEJPAT_URB@@@Z 00638686 f   xapilibd:usbdev.obj
 0006:0001144f       ?FindChild@IUsbDevice@@QBEPAV1@E@Z 0063870f f   xapilibd:usbdev.obj
 0006:000114c3       ?InsertChild@IUsbDevice@@QAEXPAV1@@Z 00638783 f   xapilibd:usbdev.obj
 0006:000115cf       ?RemoveChild@IUsbDevice@@QAEEPAV1@@Z 0063888f f   xapilibd:usbdev.obj
 0006:0001169d       ?GetClassId@IUsbDevice@@QBE?AT_PNP_CLASS_ID@@XZ 0063895d f   xapilibd:usbdev.obj
 0006:000116cd       ?IsEnumTime@IUsbDevice@@QBEEXZ 0063898d f   xapilibd:usbdev.obj
 0006:0001177d       ?SetExternalPortWithoutHub@IUsbDevice@@QAEXPAPAV1@I@Z 00638a3d f   xapilibd:usbdev.obj
 0006:00011811       ?SubmitRequest@IUsbDevice@@QAEJPAT_URB@@@Z 00638ad1 f   xapilibd:usbdev.obj
 0006:000119a4       ?GetDeviceDescriptor@IUsbDevice@@QBEPBU_USB_DEVICE_DESCRIPTOR8@@XZ 00638c64 f   xapilibd:usbdev.obj
 0006:000119d3       ?GetConfigurationDescriptor@IUsbDevice@@QBEPBU_USB_CONFIGURATION_DESCRIPTOR@@XZ 00638c93 f   xapilibd:usbdev.obj
 0006:00011a32       ?GetInterfaceDescriptor@IUsbDevice@@QBEPBU_USB_INTERFACE_DESCRIPTOR@@XZ 00638cf2 f   xapilibd:usbdev.obj
 0006:00011a91       ?GetEndpointDescriptor@IUsbDevice@@QBEPBU_USB_ENDPOINT_DESCRIPTOR@@EEE@Z 00638d51 f   xapilibd:usbdev.obj
 0006:00011b72       ?SetExternalPortWithHub@IUsbDevice@@QAEXPAPAV1@I@Z 00638e32 f   xapilibd:usbdev.obj
 0006:00011bc7       ?SetExternalPort@IUsbDevice@@QAEXXZ 00638e87 f   xapilibd:usbdev.obj
 0006:00011c46       ??0IUsbInit@@QAE@KPAU_XDEVICE_PREALLOC_TYPE@@@Z 00638f06 f i xapilibd:usbd.obj
 0006:00011cb9       ?GetNodeCount@IUsbInit@@QAEEXZ 00638f79 f i xapilibd:usbd.obj
 0006:00011cc0       ?GetMaxCompositeInterfaces@IUsbInit@@QAEEXZ 00638f80 f i xapilibd:usbd.obj
 0006:00011cc7       ?GetHcdResourcePtr@IUsbInit@@QAEPAU_HCD_RESOURCE_REQUIREMENTS@@XZ 00638f87 f i xapilibd:usbd.obj
 0006:00011cce       ?AllocDevice@CDeviceTree@@QAEPAVIUsbDevice@@XZ 00638f8e f i xapilibd:usbd.obj
 0006:00011d5c       _USBD_CompleteRequest@4    0063901c f   xapilibd:usbd.obj
 0006:00011d78       _USBD_CalculateUsbBandwidth@12 00639038 f   xapilibd:usbd.obj
 0006:00011df7       ?USBD_FindClassDriver@@YGPAU_USB_CLASS_DRIVER_DESCRIPTION@@T_PNP_CLASS_ID@@@Z 006390b7 f   xapilibd:usbd.obj
 0006:00011e3d       _USBD_AllocateMemory@8     006390fd f   xapilibd:usbmem.obj
 0006:00011ec1       _USBD_FreeMemory@4         00639181 f   xapilibd:usbmem.obj
 0006:00011ee5       ??0IUsbDevice@@QAE@XZ      006391a5 f i xapilibd:tree.obj
 0006:00011efb       ?FreeDevice@CDeviceTree@@QAEXPAVIUsbDevice@@@Z 006391bb f i xapilibd:tree.obj
 0006:00011fc0       ?DeviceConnected@IUsbDevice@@QAEXEE@Z 00639280 f   xapilibd:tree.obj
 0006:0001212b       ?USBD_SetEnumWatchDog@@YGXXZ 006393eb f i xapilibd:tree.obj
 0006:00012155       ?USBD_ClearEnumWatchDog@@YGXXZ 00639415 f i xapilibd:tree.obj
 0006:00012164       ?USBD_DeviceEnumStagePre1@@YGXJPAX@Z 00639424 f   xapilibd:tree.obj
 0006:00012202       ?USBD_DeviceEnumStagePre4@@YGXPAT_URB@@PAVIUsbDevice@@@Z 006394c2 f   xapilibd:tree.obj
 0006:00012237       ?USBD_AllocateUsbAddress@@YIEPAU_USBD_HOST_CONTROLLER@@@Z 006394f7 f   xapilibd:tree.obj
 0006:00012274       ?USBD_FreeUsbAddress@@YIXPAU_USBD_HOST_CONTROLLER@@E@Z 00639534 f   xapilibd:tree.obj
 0006:000122ed       ?IncrementBusyHubCount@IUsbDevice@@SGXXZ 006395ad f   xapilibd:tree.obj
 0006:00012336       ?DecrementBusyHubCount@IUsbDevice@@SGXXZ 006395f6 f   xapilibd:tree.obj
 0006:0001237f       _XGetDeviceEnumerationStatus@0 0063963f f   xapilibd:tree.obj
 0006:000123b2       _USBD_DeviceConnected@8    00639672 f   xapilibd:tree.obj
 0006:000123ce       ?USBD_DeviceEnumStage0@@YGXXZ 0063968e f   xapilibd:tree.obj
 0006:00012448       ?ResetComplete@IUsbDevice@@QAEXJPAX@Z 00639708 f   xapilibd:tree.obj
 0006:00012453       ?RemoveComplete@IUsbDevice@@QAEXXZ 00639713 f   xapilibd:tree.obj
 0006:00012527       ?USBD_CompleteDeviceDisconnected@@YGXPAVIUsbDevice@@@Z 006397e7 f   xapilibd:tree.obj
 0006:00012591       ?USBD_DeviceEnumNextPending@@YGXPAT_URB@@PAVIUsbDevice@@@Z 00639851 f   xapilibd:tree.obj
 0006:000126ac       ?DeviceDisconnected@IUsbDevice@@QAEXE@Z 0063996c f   xapilibd:tree.obj
 0006:000127cc       ?DeviceNotResponding@IUsbDevice@@QAEXXZ 00639a8c f   xapilibd:tree.obj
 0006:00012880       ?USBD_fDeviceAbortEnum2@@YIXPAVIUsbDevice@@@Z 00639b40 f   xapilibd:tree.obj
 0006:00012941       _USBD_DeviceDisconnected@8 00639c01 f   xapilibd:tree.obj
 0006:0001295b       ?DisableComplete@IUsbDevice@@QAEXJPAX@Z 00639c1b f   xapilibd:tree.obj
 0006:000129bb       ?USBD_DeviceAbortEnum@@YGXPAT_URB@@PAVIUsbDevice@@@Z 00639c7b f   xapilibd:tree.obj
 0006:00012a53       ?USBD_DeviceEnumStage3@@YGXPAT_URB@@PAVIUsbDevice@@@Z 00639d13 f   xapilibd:tree.obj
 0006:00012b14       ?AddComplete@IUsbDevice@@QAEXJ@Z 00639dd4 f   xapilibd:tree.obj
 0006:00012d7b       ?USBD_LoadClassDriver@@YIXPAVIUsbDevice@@T_PNP_CLASS_ID@@@Z 0063a03b f   xapilibd:tree.obj
 0006:00012dbf       ?USBD_DeviceEnumStage2@@YGXPAT_URB@@PAVIUsbDevice@@@Z 0063a07f f   xapilibd:tree.obj
 0006:00012f75       ?USBD_DeviceEnumStage6@@YGXPAT_URB@@PAVIUsbDevice@@@Z 0063a235 f   xapilibd:tree.obj
 0006:00013174       ?USBD_fDeviceEnumStage1@@YIXPAVIUsbDevice@@@Z 0063a434 f   xapilibd:tree.obj
 0006:00013324       ?USBD_DeviceEnumStage5@@YGXPAT_URB@@PAVIUsbDevice@@@Z 0063a5e4 f   xapilibd:tree.obj
 0006:0001346c       ?USBD_fDeviceEnumStage4@@YIXPAT_URB@@PAVIUsbDevice@@@Z 0063a72c f   xapilibd:tree.obj
 0006:0001366b       ?USBD_DeviceEnumTimerProc@@YGXPAU_KDPC@@PAX11@Z 0063a92b f   xapilibd:tree.obj
 0006:00013702       _OHCD_PoolGetHcca@4        0063a9c2 f i xapilibd:ohcd.obj
 0006:0001373c       _OHCD_PoolAllocateEndpoint@0 0063a9fc f i xapilibd:ohcd.obj
 0006:000137a2       _OHCD_PoolFreeEndpoint@4   0063aa62 f i xapilibd:ohcd.obj
 0006:000137eb       _OHCD_PoolGetPhysicalAddress@4 0063aaab f i xapilibd:ohcd.obj
 0006:000137ff       @OHCD_fOpenEndpoint@8      0063aabf f   xapilibd:ohcd.obj
 0006:000139f5       @OHCD_fGetEndpointState@8  0063acb5 f   xapilibd:ohcd.obj
 0006:00013a1e       @OHCD_fSetEndpointState@8  0063acde f   xapilibd:ohcd.obj
 0006:00013a57       @OHCD_fDequeueControlTransfer@8 0063ad17 f   xapilibd:ohcd.obj
 0006:00013acf       @OHCD_fDequeueBulkTransfer@8 0063ad8f f   xapilibd:ohcd.obj
 0006:00013b47       @OHCD_fDequeueInterruptTransfer@8 0063ae07 f   xapilibd:ohcd.obj
 0006:00013bae       @OHCD_fCancelQueuedUrbs@8  0063ae6e f   xapilibd:ohcd.obj
 0006:00013ceb       @OHCD_fPauseEndpoint@8     0063afab f   xapilibd:ohcd.obj
 0006:00013d7a       _OHCD_ShutDown@4           0063b03a f   xapilibd:ohcd.obj
 0006:00013dc7       _HCD_CancelRequest@8       0063b087 f   xapilibd:ohcd.obj
 0006:00013f05       @OHCD_fCloseEndpoint@8     0063b1c5 f   xapilibd:ohcd.obj
 0006:00013fd2       @OHCD_fAbortEndpoint@8     0063b292 f   xapilibd:ohcd.obj
 0006:00014041       _HCD_SubmitRequest@8       0063b301 f   xapilibd:ohcd.obj
 0006:0001422c       ?USBHUB_ClearEnumWatchdog@@YGXXZ 0063b4ec f i xapilibd:hub.obj
 0006:0001423b       ?USBHUB_ResetComplete@@YGXPAT_URB@@PAVIUsbDevice@@@Z 0063b4fb f   xapilibd:hub.obj
 0006:00014274       ?USBHUB_DisableComplete@@YGXPAT_URB@@PAVIUsbDevice@@@Z 0063b534 f   xapilibd:hub.obj
 0006:000142a3       ?USBHUB_RelatchPortSpeed@@YGXPAVIUsbDevice@@@Z 0063b563 f   xapilibd:hub.obj
 0006:0001431b       ?USBHUB_SetBusy@@YGXPAU_USBHUB_DEVICE_NODE@@H@Z 0063b5db f   xapilibd:hub.obj
 0006:0001435f       ?USBHUB_WatchdogTimerProc@@YGXPAU_KDPC@@PAX11@Z 0063b61f f   xapilibd:hub.obj
 0006:000143fd       ?USBHUB_SetEnumWatchdog@@YGXK@Z 0063b6bd f i xapilibd:hub.obj
 0006:0001447c       ?USBHUB_PortProcessChange@@YGXPAVIUsbDevice@@@Z 0063b73c f   xapilibd:hub.obj
 0006:0001467d       ?USBHUB_RemoveHubComplete@@YGXPAT_URB@@PAVIUsbDevice@@@Z 0063b93d f   xapilibd:hub.obj
 0006:0001474b       ?USBHUB_DisableResetPort@@YGXPAVIUsbDevice@@EPAXE@Z 0063ba0b f   xapilibd:hub.obj
 0006:0001487c       ?USBHUB_RemoveHubStage2@@YGXPAT_URB@@PAVIUsbDevice@@@Z 0063bb3c f   xapilibd:hub.obj
 0006:000148ea       ?USBHUB_RemoveHubStage1@@YGXPAVIUsbDevice@@@Z 0063bbaa f   xapilibd:hub.obj
 0006:00014972       ?USBHUB_ClearInterruptStallComplete@@YGXPAT_URB@@PAVIUsbDevice@@@Z 0063bc32 f   xapilibd:hub.obj
 0006:00014a29       ?USBHUB_PortStatusChange2@@YGXPAT_URB@@PAVIUsbDevice@@@Z 0063bce9 f   xapilibd:hub.obj
 0006:00014a9d       ?USBHUB_ClearHubFeatureComplete@@YGXPAT_URB@@PAVIUsbDevice@@@Z 0063bd5d f   xapilibd:hub.obj
 0006:00014b11       _USBHUB_RemoveDevice@4     0063bdd1 f   xapilibd:hub.obj
 0006:00014bd5       ?USBHUB_ChangeNotifyComplete@@YGXPAT_URB@@PAVIUsbDevice@@@Z 0063be95 f   xapilibd:hub.obj
 0006:00014cd6       ?USBHUB_HubStatusChange@@YGXPAT_URB@@PAVIUsbDevice@@@Z 0063bf96 f   xapilibd:hub.obj
 0006:00014dda       ?USBHUB_PoweringPorts@@YGXPAT_URB@@PAVIUsbDevice@@@Z 0063c09a f   xapilibd:hub.obj
 0006:00014e7f       ?USBHUB_PortStatusChange1@@YGXPAVIUsbDevice@@@Z 0063c13f f   xapilibd:hub.obj
 0006:00014f86       ?USBHUB_ClearPortFeatureComplete@@YGXPAT_URB@@PAVIUsbDevice@@@Z 0063c246 f   xapilibd:hub.obj
 0006:00014fc5       ?USBHUB_RelatchPortSpeedComplete@@YGXPAT_URB@@PAVIUsbDevice@@@Z 0063c285 f   xapilibd:hub.obj
 0006:00015068       ?USBHUB_EnumHubComplete@@YGXPAT_URB@@PAVIUsbDevice@@@Z 0063c328 f   xapilibd:hub.obj
 0006:00015167       ?USBHUB_EnumHubStage2@@YGXPAT_URB@@PAVIUsbDevice@@@Z 0063c427 f   xapilibd:hub.obj
 0006:00015203       ?USBHUB_EnumHubStage1@@YGXPAT_URB@@PAVIUsbDevice@@@Z 0063c4c3 f   xapilibd:hub.obj
 0006:000153a0       _USBHUB_AddDevice@4        0063c660 f   xapilibd:hub.obj
 0006:000154dc       @OHCD_RootHubProcessHotPlug@8 0063c79c f   xapilibd:roothub.obj
 0006:000155d9       _HCD_ResetRootHubPort@16   0063c899 f   xapilibd:roothub.obj
 0006:00015692       _HCD_DisableRootHubPort@8  0063c952 f   xapilibd:roothub.obj
 0006:000156e5       _OHCD_RootHubResetDpc@16   0063c9a5 f   xapilibd:roothub.obj
 0006:00015746       @OHCD_RootHubProcessInterrupt@4 0063ca06 f   xapilibd:roothub.obj
 0006:0001585f       _OHCD_PoolFreeTD@4         0063cb1f f i xapilibd:pool.obj
 0006:00015887       @OHCD_ScheduleAddEndpointControlOrBulk@8 0063cb47 f   xapilibd:schedule.obj
 0006:00015906       @OHCD_ScheduleRemoveEndpointControlOrBulk@8 0063cbc6 f   xapilibd:schedule.obj
 0006:000159d3       @OHCD_ReverseBits@8        0063cc93 f   xapilibd:schedule.obj
 0006:000159ee       @OHCD_HookNewEndpointToChildren@12 0063ccae f   xapilibd:schedule.obj
 0006:00015adf       @OHCD_ScheduleAddEndpointPeriodic@8 0063cd9f f   xapilibd:schedule.obj
 0006:00015de4       @OHCD_ScheduleRemoveEndpointPeriodic@8 0063d0a4 f   xapilibd:schedule.obj
 0006:00016008       _OHCD_PoolTDFromPhysicalAddress@4 0063d2c8 f i xapilibd:isr.obj
 0006:0001601e       _OHCD_PoolCreditControlTDQuota@4 0063d2de f i xapilibd:isr.obj
 0006:00016034       _OHCD_PoolCreditBulkTDQuota@4 0063d2f4 f i xapilibd:isr.obj
 0006:0001604a       _OHCD_InterruptService@8   0063d30a f   xapilibd:isr.obj
 0006:00016109       @OHCD_Get32BitFrameNumber@4 0063d3c9 f   xapilibd:isr.obj
 0006:0001617a       @OHCD_LockUsbFrameCounterToApuSampleCounter@4 0063d43a f   xapilibd:isr.obj
 0006:000162e9       @OHCD_fCompleteRequest@12  0063d5a9 f   xapilibd:isr.obj
 0006:000163e9       @OHCD_fCreditTDQuota@8     0063d6a9 f   xapilibd:isr.obj
 0006:00016435       @OHCD_fProcessFailedTD@8   0063d6f5 f   xapilibd:isr.obj
 0006:000165b9       @OHCD_fProcessDoneTD@8     0063d879 f   xapilibd:isr.obj
 0006:000166ed       @OHCD_fProcessCancelPendingList@8 0063d9ad f   xapilibd:isr.obj
 0006:000168b9       @OHCD_fCleanEndpointTDs@8  0063db79 f   xapilibd:isr.obj
 0006:0001697a       @OHCD_fProcessAbortPendingList@8 0063dc3a f   xapilibd:isr.obj
 0006:00016a70       @OHCD_fProcessClosePendingList@8 0063dd30 f   xapilibd:isr.obj
 0006:00016be3       _OHCD_IsrDpc@16            0063dea3 f   xapilibd:isr.obj
 0006:00016dd2       _OHCD_IsochPoolAllocateEndpoint@0 0063e092 f i xapilibd:isoch.obj
 0006:00016e37       _OHCD_IsochPoolFreeEndpoint@4 0063e0f7 f i xapilibd:isoch.obj
 0006:00016e7f       _OHCD_IsochPoolGetMaxBuffers@0 0063e13f f i xapilibd:isoch.obj
 0006:00016e85       @OHCD_fIsochOpenEndpoint@8 0063e145 f   xapilibd:isoch.obj
 0006:00017093       @OHCD_fIsochCloseEndpoint@8 0063e353 f   xapilibd:isoch.obj
 0006:00017110       @OHCD_fIsochCompleteCloseEndpoint@8 0063e3d0 f   xapilibd:isoch.obj
 0006:000171bd       @OHCD_fIsochAttachBuffer@8 0063e47d f   xapilibd:isoch.obj
 0006:000173e9       @OHCD_fIsochStartTransfer@8 0063e6a9 f   xapilibd:isoch.obj
 0006:00017574       @OHCD_fIsochStopTransfer@8 0063e834 f   xapilibd:isoch.obj
 0006:0001760a       @OHCD_fIsochProcessTD@8    0063e8ca f   xapilibd:isoch.obj
 0006:00017736       _OHCD_PoolAllocateTD@4     0063e9f6 f i xapilibd:transfer.obj
 0006:00017786       _OHCD_PoolGetControlQuota@0 0063ea46 f i xapilibd:transfer.obj
 0006:0001778d       _OHCD_PoolDebitControlTDQuota@4 0063ea4d f i xapilibd:transfer.obj
 0006:000177b7       _OHCD_PoolGetBulkQuota@0   0063ea77 f i xapilibd:transfer.obj
 0006:000177be       _OHCD_PoolDebitBulkTDQuota@4 0063ea7e f i xapilibd:transfer.obj
 0006:000177e8       @OHCD_fGetTDsRequired@8    0063eaa8 f   xapilibd:transfer.obj
 0006:0001786b       @OHCD_fMapTransfer@12      0063eb2b f   xapilibd:transfer.obj
 0006:000178b7       @OHCD_fProgramTransfer@12  0063eb77 f   xapilibd:transfer.obj
 0006:00017c9c       @OHCD_fProgramInterruptTransfer@8 0063ef5c f   xapilibd:transfer.obj
 0006:00017d44       @OHCD_fProgramBulkTransfer@4 0063f004 f   xapilibd:transfer.obj
 0006:00017de5       @OHCD_fProgramControlTransfer@4 0063f0a5 f   xapilibd:transfer.obj
 0006:00017e86       @OHCD_fQueueInterruptTransfer@12 0063f146 f   xapilibd:transfer.obj
 0006:00017f17       @OHCD_fQueueBulkTransfer@8 0063f1d7 f   xapilibd:transfer.obj
 0006:00017fb0       @OHCD_fQueueControlTransfer@8 0063f270 f   xapilibd:transfer.obj
 0006:00018049       @OHCD_fQueueTransferRequest@8 0063f309 f   xapilibd:transfer.obj
 0006:000191e8       ??_C@_0BN@IFCGIBGD@XInputClose?3?5Invalid?5Handle?6?$AA@ 006404a8     xapilibd:xidinp.obj
 0006:0001920c       ??_C@_0BN@LHKGEOBL@?$CFs?3?5Invalid?5Handle?$CI0x?$CF0?48x?$CJ?6?$AA@ 006404cc     xapilibd:xidinp.obj
 0006:00019230       ??_C@_0EK@IGHOOHBH@?$CItypeInformation?9?$DOulFlags?$CGXID_BS@ 006404f0     xapilibd:xidinp.obj
 0006:00019288       ??_C@_0BH@IDHOGKEL@dwPort?$DMXGetPortCount?$CI?$CJ?$AA@ 00640548     xapilibd:xidinp.obj
 0006:000192a8       ??_C@_0EF@BIBMICIC@XInputOpen?3?5XppDeviceType?5is?5not@ 00640568     xapilibd:xidinp.obj
 0006:000192fc       ??_C@_0BO@HNPNAOGN@XPP_XInitDevicesHasBeenCalled?$AA@ 006405bc     xapilibd:xidinp.obj
 0006:00019320       ??_C@_0CP@PBGCADHL@XInputOpen?3?5XInitDevices?5must?5be@ 006405e0     xapilibd:xidinp.obj
 0006:00019358       ??_C@_0EK@DJNLPFAD@?$CFs?$CI?$CFld?$CJ?3?5Assertion?5that?5IRQL?5was@ 00640618     xapilibd:xidinp.obj
 0006:000193b0       ??_C@_0CN@DLKFBLDG@d?3?2xbox?2private?2ntos?2dd?2usb?2xide@ 00640670     xapilibd:xidinp.obj
 0006:000193e8       ??_C@_0BG@ELBNFOBA@XInputGetCapabilities?$AA@ 006406a8     xapilibd:xidinp.obj
 0006:00019404       ??_C@_0DE@LMJKMBEB@XInputGetState?5not?5supported?5for@ 006406c4     xapilibd:xidinp.obj
 0006:00019444       ??_C@_0P@FCCEJHCC@XInputGetState?$AA@ 00640704     xapilibd:xidinp.obj
 0006:00019458       ??_C@_0DE@JJAAJHI@XInputSetState?5not?5supported?5for@ 00640718     xapilibd:xidinp.obj
 0006:00019498       ??_C@_0P@KDAIIEFP@XInputSetState?$AA@ 00640758     xapilibd:xidinp.obj
 0006:000194ac       ??_C@_0L@PBGLBLJE@XInputPoll?$AA@ 0064076c     xapilibd:xidinp.obj
 0006:000194bc       ??_C@_0DA@FHKNIPKM@XGetDevices?3?5XInitDevices?5must?5b@ 0064077c     xapilibd:xpp.obj
 0006:000194f8       ??_C@_0DH@HENBNECC@XInitDevices?$CI?$CJ?5is?5called?5more?5th@ 006407b8     xapilibd:xpp.obj
 0006:0001953c       ??_C@_0DG@BHOJGNOO@XGetDeviceChanges?3?5XInitDevices?5@ 006407fc     xapilibd:xpp.obj
 0006:0001957c       ??_C@_06CDDEOMKH@retVal?$AA@ 0064083c     xapilibd:xid.obj
 0006:00019584       ??_C@_0CI@PPFCCCOP@d?3?2xbox?2private?2ntos?2dd?2usb?2xide@ 00640844     xapilibd:xid.obj
 0006:000195b4       ??_C@_06HLKELJGF@memory?$AA@ 00640874     xapilibd:xid.obj
 0006:000195bc       ??_C@_0CF@KDAMJLPF@dwTypeIndex?5?$DM?5DEVICE_TYPE_STACK_@ 0064087c     xapilibd:xid.obj
 0006:000195e8       ??_C@_0CK@KAEJMHDC@d?3?2xbox?2private?2ntos?2dd?2usb?2xide@ 006408a8     xapilibd:xid.obj
 0006:0001961c       ??_C@_0CJ@MMPDIKNI@Enumeration?5Watchdog?5Timer?5has?5e@ 006408dc     xapilibd:xid.obj
 0006:00019650       ??_C@_0BH@JEAIMGOM@XidNode?9?$DOPendingRemove?$AA@ 00640910     xapilibd:xid.obj
 0006:00019670       ??_C@_0FC@EDGKHFPA@?$CFs?$CI?$CFld?$CJ?3?5Routine?5which?5must?5be?5c@ 00640930     xapilibd:xid.obj
 0006:000196d4       ??_C@_0CH@MIFFIEGB@OpenDevice?9?$DOInterruptOutEndpoint@ 00640994     xapilibd:xid.obj
 0006:00019704       ??_C@_0CG@KCNCFJJL@OpenDevice?9?$DOInterruptInEndpointH@ 006409c4     xapilibd:xid.obj
 0006:00019734       ??_C@_0BH@MPMGPHCN@OpenDevice?9?$DOCloseEvent?$AA@ 006409f4     xapilibd:xid.obj
 0006:00019750       ??_C@_0DD@DKLLGIGC@OpenDevice?9?$DOClosePending?5?$HM?$HM?5xidN@ 00640a10     xapilibd:xid.obj
 0006:00019790       ??_C@_0EP@KPMOEDEO@4?5consecutive?5poll?5errors?4?5Repor@ 00640a50     xapilibd:xid.obj
 0006:000197f0       ??_C@_0CP@BIMELAFM@An?5input?5device?5poll?5failed?4?5Sta@ 00640ab0     xapilibd:xid.obj
 0006:00019828       ??_C@_0CO@GGDDGGMH@Packet?5came?5back?5larger?5than?5max@ 00640ae8     xapilibd:xid.obj
 0006:00019860       ??_C@_0EK@FDNFNHOO@Failed?5to?5clear?5halt?4?5Report?5dev@ 00640b20     xapilibd:xid.obj
 0006:000198b8       ??_C@_0CB@NFFJDEFL@Reset?5endpoint?0?5resume?5polling?4?6@ 00640b78     xapilibd:xid.obj
 0006:000198e0       ??_C@_0BF@KNCKIPE@USBD_SUCCESS?$CIstatus?$CJ?$AA@ 00640ba0     xapilibd:xid.obj
 0006:000198fc       ??_C@_0DM@LFLMBIAG@Attempt?5to?5clear?5endpoint?5stall?5@ 00640bbc     xapilibd:xid.obj
 0006:00019948       ??_C@_0FB@LIMNGCJH@?$CFs?$CI?$CFld?$CJ?3?5Routine?5which?5must?5be?5c@ 00640c08     xapilibd:xid.obj
 0006:000199ac       ??_C@_0BL@GPEOPGMN@Illegal?5keyboard?5topology?4?$AA@ 00640c6c     xapilibd:xid.obj
 0006:000199cc       ??_C@_0CD@OPJMPBJI@No?5keyboard?5support?5in?5this?5buil@ 00640c8c     xapilibd:xid.obj
 0006:000199f8       ??_C@_0BI@IGPACJFO@Illegal?5mouse?5topology?4?$AA@ 00640cb8     xapilibd:xid.obj
 0006:00019a14       ??_C@_0CA@DFOLALCJ@No?5mouse?5support?5in?5this?5build?4?$AA@ 00640cd4     xapilibd:xid.obj
 0006:00019a3c       ??_C@_0CP@DNONJFMJ@The?5interrupt?9Out?5endpoint?5stall@ 00640cfc     xapilibd:xid.obj
 0006:00019a74       ??_C@_0BA@INCOJDDG@NULL?5?$CB?$DN?5xidNode?$AA@ 00640d34     xapilibd:xid.obj
 0006:00019a88       ??_C@_0IO@LNLGOONO@ERROR?3?5pFeedback?9?$DOHeader?4hEvent?5@ 00640d48     xapilibd:xid.obj
 0006:00019b34       ??_C@_0BH@HCBCOLMJ@Unsupported?5XID?5Device?$AA@ 00640df4     xapilibd:xid.obj
 0006:00019b50       ??_C@_0DJ@LONGADLH@Device?5in?5port?5?$CFd?5?$CI0?5based?$CJ?5does@ 00640e10     xapilibd:xid.obj
 0006:00019b94       ??_C@_0BD@GHOMIAIJ@endpointDescriptor?$AA@ 00640e54     xapilibd:xid.obj
 0006:00019bb0       ??_C@_0EK@OEFNIAPL@?$CIUDN_TYPE_INTERFACE?5?$DN?$DN?5m_Type?$CJ?5?$HM@ 00640e70     xapilibd:usbdev.obj
 0006:00019c08       ??_C@_0CM@NAAGIPDB@d?3?2xbox?2private?2ntos?2dd?2usb?2usbd@ 00640ec8     xapilibd:usbdev.obj
 0006:00019c3c       ??_C@_0BC@EEPBDKMG@m_DefaultEndpoint?$AA@ 00640efc     xapilibd:usbdev.obj
 0006:00019c54       ??_C@_06MLKDMCBD@parent?$AA@ 00640f14     xapilibd:usbdev.obj
 0006:00019c5c       ??_C@_0BK@JBFCLJBH@NULL?5?$DN?$DN?5m_DefaultEndpoint?$AA@ 00640f1c     xapilibd:usbdev.obj
 0006:00019c80       ??_C@_0GF@GHMIMGHK@?$CIUDN_TYPE_HUB?5?$DN?$DN?5m_Type?$CJ?5?$HM?$HM?5?$CIUDN@ 00640f40     xapilibd:usbdev.obj
 0006:00019cfc       ??_C@_0BF@DDPOLMJH@existingChild?$CB?$DNchild?$AA@ 00640fbc     xapilibd:usbdev.obj
 0006:00019d18       ??_C@_0CD@DBMHGNGO@UDN_INVALID_NODE_INDEX?5?$DO?5nodeInd@ 00640fd8     xapilibd:usbdev.obj
 0006:00019d44       ??_C@_0CA@GLPEGOJM@child?5?$DO?$DN?5g_DeviceTree?4m_Devices?$AA@ 00641004     xapilibd:usbdev.obj
 0006:00019d6c       ??_C@_09FCGNCKM@prevChild?$AA@ 0064102c     xapilibd:usbdev.obj
 0006:00019d78       ??_C@_0CK@JLPNKKBC@g_DeviceTree?4m_CurrentEnum?5?$DN?$DN?5Ge@ 00641038     xapilibd:usbdev.obj
 0006:00019dac       ??_C@_0M@ODGKLAJL@GetParent?$CI?$CJ?$AA@ 0064106c     xapilibd:usbdev.obj
 0006:00019dbc       ??_C@_0N@OHIPGMOM@IsEnumTime?$CI?$CJ?$AA@ 0064107c     xapilibd:usbdev.obj
 0006:00019dd0       ??_C@_0EI@KCCPDMNB@?$CIUDN_TYPE_INTERFACE?5?$DN?$DN?5m_Type?$CJ?$HM?$HM@ 00641090     xapilibd:usbdev.obj
 0006:00019e28       ??_C@_0P@GBPECKOI@0?$CB?$DNdeviceIndex?$AA@ 006410e8     xapilibd:usbdev.obj
 0006:00019e3c       ??_C@_0CE@JNFIAJCE@UDN_INVALID_NODE_INDEX?5?$CB?$DN?5nodeIn@ 006410fc     xapilibd:usbd.obj
 0006:00019e68       ??_C@_0CI@NMPAKHL@d?3?2xbox?2private?2ntos?2dd?2usb?2usbd@ 00641128     xapilibd:usbd.obj
 0006:00019e98       ??_C@_0BI@GGMGNHGK@hostController?9?$DORootHub?$AA@ 00641158     xapilibd:usbd.obj
 0006:00019eb4       ??_C@_0CK@IANBNCEL@d?3?2xbox?2private?2ntos?2dd?2usb?2usbd@ 00641174     xapilibd:usbd.obj
 0006:00019ee8       ??_C@_0P@LGLFMDDD@EndpointType?$DM4?$AA@ 006411a8     xapilibd:usbd.obj
 0006:00019efc       ??_C@_0BH@DEHEFGDI@usbDevice?5?$DO?$DN?5m_Devices?$AA@ 006411bc     xapilibd:tree.obj
 0006:00019f18       ??_C@_04PHJNDLLK@USBD?$AA@ 006411d8     xapilibd:tree.obj
 0006:00019f20       ??_C@_0DM@IDINILGN@Number?5of?5Devices?5Attached?0?5exce@ 006411e0     xapilibd:tree.obj
 0006:00019f68       ??_C@_0DK@LMHGBHJJ@?$CIUDN_TYPE_HUB?5?$DN?$DN?5m_Type?$CJ?5?$HM?$HM?5?$CIUDN@ 00641228     xapilibd:tree.obj
 0006:00019fb0       ??_C@_0CK@FFPLCLLN@d?3?2xbox?2private?2ntos?2dd?2usb?2usbd@ 00641270     xapilibd:tree.obj
 0006:00019fe4       ??_C@_0CK@LMJFKFMD@?$CB?$CIdevice?9?$DOm_PortNumber?$CGUDN_LOWSP@ 006412a4     xapilibd:tree.obj
 0006:0001a018       ??_C@_0DB@BCEEHFML@Pre?5Stage?51?5detects?5failue?3?5Usbd@ 006412d8     xapilibd:tree.obj
 0006:0001a054       ??_C@_0CJ@PANPHMMG@DeviceAddress?5?$DO?50?5?$CG?$CG?5DeviceAddre@ 00641314     xapilibd:tree.obj
 0006:0001a088       ??_C@_0M@EOGGKKNN@prevPending?$AA@ 00641348     xapilibd:tree.obj
 0006:0001a098       ??_C@_06CHPEJBOD@device?$AA@ 00641358     xapilibd:tree.obj
 0006:0001a0a0       ??_C@_0FM@FMOCEE@Address?5?$CFd?5is?5about?5to?5leak?0?5a?5d@ 00641360     xapilibd:tree.obj
 0006:0001a110       ??_C@_0BD@KOJNPMFJ@Enumeration?5Failed?$AA@ 006413d0     xapilibd:tree.obj
 0006:0001a128       ??_C@_0GC@ENKFBMHJ@currentParseLocation?5?$DM?5?$CIg_Device@ 006413e8     xapilibd:tree.obj
 0006:0001a1a0       ??_C@_0DA@OHCGPAO@Unsupported?5Device?5or?5Class?5Driv@ 00641460     xapilibd:tree.obj
 0006:0001a1dc       ??_C@_0DL@LCEECAOA@Stage?52?5detects?5failue?3?5Removed?5@ 0064149c     xapilibd:tree.obj
 0006:0001a224       ??_C@_04HCDDPBNL@TRUE?$AA@ 006414e4     xapilibd:tree.obj
 0006:0001a230       ??_C@_0EF@FFFGIGGC@A?5device?5returned?5a?5corrupt?5devi@ 006414f0     xapilibd:tree.obj
 0006:0001a284       ??_C@_0BC@JIDMLKI@device?9?$DOm_Address?$AA@ 00641544     xapilibd:tree.obj
 0006:0001a29c       ??_C@_0CC@CDDGFCIL@Corrupt?5Configuration?5Descriptor@ 0064155c     xapilibd:tree.obj
 0006:0001a2c4       ??_C@_0BK@CEHBNOAK@Device?9?$DOm_DefaultEndpoint?$AA@ 00641584     xapilibd:tree.obj
 0006:0001a2e4       ??_C@_0CA@CLJKFEEP@Stage?51?5detects?5device?5removal?4?$AA@ 006415a4     xapilibd:tree.obj
 0006:0001a310       ??_C@_0EF@MCGHMMK@Device?5did?5not?5return?5entire?5con@ 006415d0     xapilibd:tree.obj
 0006:0001a368       ??_C@_0GF@ENPMNGBI@Unsupported?5Hardware?3?5Configurat@ 00641628     xapilibd:tree.obj
 0006:0001a3e4       ??_C@_0BG@MAIIDAAN@Enumeration?5Timed?5out?$AA@ 006416a4     xapilibd:tree.obj
 0006:0001a400       ??_C@_0DA@IONGJGKA@HCD_MAX_HOST_CONTROLLERS?5?$DO?5HostC@ 006416c0     xapilibd:ohcd.obj
 0006:0001a43c       ??_C@_0CI@BOCKDPDP@d?3?2xbox?2private?2ntos?2dd?2usb?2ohcd@ 006416fc     xapilibd:ohcd.obj
 0006:0001a46c       ??_C@_0DJ@GHJOJHMK@USB_ENDPOINT_TYPE_INTERRUPT?5?$DN?$DN?5n@ 0064172c     xapilibd:ohcd.obj
 0006:0001a4b0       ??_C@_0CI@PNNOOGPE@d?3?2xbox?2private?2ntos?2dd?2usb?2ohcd@ 00641770     xapilibd:ohcd.obj
 0006:0001a4e0       ??_C@_0CI@KCDENCAE@Attempt?5to?5exceed?5registered?5end@ 006417a0     xapilibd:ohcd.obj
 0006:0001a510       ??_C@_0FN@PAJAOLIJ@PciDevice?9?$DOResourceData?4Address?$FL@ 006417d0     xapilibd:ohcd.obj
 0006:0001a580       ??_C@_0EA@DGCOKDOA@PciDevice?9?$DOResourceData?4Address?$FL@ 00641840     xapilibd:ohcd.obj
 0006:0001a5cc       ??_C@_0CP@PGHBIEM@urbOnQueue?5?$CB?$DN?5DeviceExtension?9?$DOC@ 0064188c     xapilibd:ohcd.obj
 0006:0001a604       ??_C@_0CM@DGFGMGKJ@urbOnQueue?5?$CB?$DN?5DeviceExtension?9?$DOB@ 006418c4     xapilibd:ohcd.obj
 0006:0001a638       ??_C@_0CI@EEPKEDMO@urbOnQueue?5?$CB?$DN?5Endpoint?9?$DOPendingU@ 006418f8     xapilibd:ohcd.obj
 0006:0001a668       ??_C@_0BO@KGJLCMNE@0?5?$DN?$DN?5Endpoint?9?$DOQueuedUrbCount?$AA@ 00641928     xapilibd:ohcd.obj
 0006:0001a68c       ??_C@_0L@GGEBIMKE@currentUrb?$AA@ 0064194c     xapilibd:ohcd.obj
 0006:0001a69c       ??_C@_0DE@INANPCOC@Unrecognized?5endpoint?5type?5in?5OH@ 0064195c     xapilibd:ohcd.obj
 0006:0001a6dc       ??_C@_0DH@OALEBJFA@interruptConnected?5?$CG?$CG?5?$CCFailed?5to@ 0064199c     xapilibd:ohcd.obj
 0006:0001a720       ??_C@_0DP@FFOAPCBO@Urb?9?$DOCommonTransfer?4Hca?4HcdUrbFl@ 006419e0     xapilibd:ohcd.obj
 0006:0001a76c       ??_C@_0DP@PEENHJEO@Unrecognized?5or?5Unsupported?5endp@ 00641a2c     xapilibd:ohcd.obj
 0006:0001a7b8       ??_C@_0HN@BBCIIMLE@?$CIURB_FUNCTION_CONTROL_TRANSFER?5?$DN@ 00641a78     xapilibd:ohcd.obj
 0006:0001a850       ??_C@_0CG@JCKGIPCK@DeviceExtension?9?$DOPendingCloses?5?$CB@ 00641b10     xapilibd:ohcd.obj
 0006:0001a880       ??_C@_0DI@FIADEGKA@USB_ENDPOINT_TYPE_ISOCHRONOUS?5?$CB?$DN@ 00641b40     xapilibd:ohcd.obj
 0006:0001a8c4       ??_C@_0BL@FLDPHJMJ@FALSE?5?$CG?$CG?5?$CCUnsupported?5URB?$CC?$AA@ 00641b84     xapilibd:ohcd.obj
 0006:0001a8e4       ??_C@_0CD@GDDNLKGE@Urb?9?$DOCommonTransfer?4EndpointHand@ 00641ba4     xapilibd:ohcd.obj
 0006:0001a910       ??_C@_06ENMPCGOP@USBHUB?$AA@ 00641bd0     xapilibd:hub.obj
 0006:0001a918       ??_C@_0BJ@EKABBBBF@Watchdog?5timer?5proc?5hit?4?$AA@ 00641bd8     xapilibd:hub.obj
 0006:0001a938       ??_C@_0DL@MFONBEOL@Port?5change?5bitmask?5not?5recogniz@ 00641bf8     xapilibd:hub.obj
 0006:0001a980       ??_C@_0CA@LOHNLOCD@Overcurrent?5detected?5on?5port?5?$CFd?$AA@ 00641c40     xapilibd:hub.obj
 0006:0001a9a8       ??_C@_0EF@OHDFECCE@Unexpected?5changed?5in?5suspend?5st@ 00641c68     xapilibd:hub.obj
 0006:0001a9fc       ??_C@_0CE@GOFHHFBJ@Remove?5and?5Add?5in?5One?5Notificati@ 00641cbc     xapilibd:hub.obj
 0006:0001aa28       ??_C@_0DL@HBHKIGHC@Reset?5Completed?0?5but?5port?5not?5en@ 00641ce8     xapilibd:hub.obj
 0006:0001aa70       ??_C@_0CA@HFJKFGAK@Abort?5Enumeration?0?5allow?5retry?4?$AA@ 00641d30     xapilibd:hub.obj
 0006:0001aa98       ??_C@_0CL@GEGMDOCA@d?3?2xbox?2private?2ntos?2dd?2usb?2usbh@ 00641d58     xapilibd:hub.obj
 0006:0001aacc       ??_C@_0CH@EEIBIGCF@Reset?5failed?5due?5to?5invalid?5para@ 00641d8c     xapilibd:hub.obj
 0006:0001aafc       ??_C@_07LBGNDHCG@hubNode?$AA@ 00641dbc     xapilibd:hub.obj
 0006:0001ab08       ??_C@_0CM@KJOBKADI@HubStatusChange?5called?5when?5ther@ 00641dc8     xapilibd:hub.obj
 0006:0001ab3c       ??_C@_0BF@NPEBMKFH@Error?5Powering?5Port?4?$AA@ 00641dfc     xapilibd:hub.obj
 0006:0001ab58       ??_C@_0BI@OLGPBKFK@7?5?$DO?$DN?5hubNode?9?$DOPortCount?$AA@ 00641e18     xapilibd:hub.obj
 0006:0001ab74       ??_C@_0CF@PLMDLIOG@Corrupt?5Hub?5Configuration?5Descri@ 00641e34     xapilibd:hub.obj
 0006:0001aba0       ??_C@_0CB@MCOIEEAN@hubNode?9?$DOInterruptEndpointHandle@ 00641e60     xapilibd:hub.obj
 0006:0001abc8       ??_C@_0CB@HAANOCIG@Remove?5and?5Add?5in?5one?5interrupt?4@ 00641e88     xapilibd:roothub.obj
 0006:0001abf0       ??_C@_0CL@IGEPHJAN@d?3?2xbox?2private?2ntos?2dd?2usb?2ohcd@ 00641eb0     xapilibd:roothub.obj
 0006:0001ac24       ??_C@_0DF@MNEMJJMI@NULL?5?$DN?$DN?5deviceExtension?9?$DORootHub@ 00641ee4     xapilibd:roothub.obj
 0006:0001ac64       ??_C@_0DK@CJNALOGG@deviceExtension?9?$DORootHubObject?4N@ 00641f24     xapilibd:roothub.obj
 0006:0001acac       ??_C@_0CD@LLPKPCFM@Reset?5Timed?5Out?3?5Context?5?$DN?50X?$CF0?4@ 00641f6c     xapilibd:roothub.obj
 0006:0001acd8       ??_C@_0CI@KNOEECP@A?5port?5reset?5timed?5out?5on?5the?5ro@ 00641f98     xapilibd:roothub.obj
 0006:0001ad08       ??_C@_0DE@GPCMFOJ@Port?5?$CFd?5of?5the?5root?5hub?5is?5indic@ 00641fc8     xapilibd:roothub.obj
 0006:0001ad48       ??_C@_0DL@LJGPCCAA@transferDescriptorsCount?5?$DO?$DN?5pRes@ 00642008     xapilibd:pool.obj
 0006:0001ad90       ??_C@_0BF@EKPFLLLJ@poolEnd?5?$DO?5poolMemory?$AA@ 00642050     xapilibd:pool.obj
 0006:0001adac       ??_C@_0L@JIKCBIOE@poolMemory?$AA@ 0064206c     xapilibd:pool.obj
 0006:0001adc0       ??_C@_0EP@GOPIHPMB@XInitDevices?5failed?5due?5to?5insuf@ 00642080     xapilibd:pool.obj
 0006:0001ae20       ??_C@_0BN@CCJFMMJN@0?$DN?$DN?$CIcombinedEndpointSize?$CJ?$CF32?$AA@ 006420e0     xapilibd:pool.obj
 0006:0001ae44       ??_C@_0BI@FNIFFHEJ@0?$DN?$DNisochEndpointSize?$CF16?$AA@ 00642104     xapilibd:pool.obj
 0006:0001ae60       ??_C@_0CI@HBAJPPIF@d?3?2xbox?2private?2ntos?2dd?2usb?2ohcd@ 00642120     xapilibd:pool.obj
 0006:0001ae90       ??_C@_0CM@HDOCHNCI@d?3?2xbox?2private?2ntos?2dd?2usb?2ohcd@ 00642150     xapilibd:schedule.obj
 0006:0001aec4       ??_C@_0BI@OGJHOPLA@NULL?5?$CB?$DN?5currentEndpoint?$AA@ 00642184     xapilibd:schedule.obj
 0006:0001aee0       ??_C@_0DC@NMKDLCNG@NULL?5?$CB?$DN?5interruptSchedule?$FLnodeCh@ 006421a0     xapilibd:schedule.obj
 0006:0001af1c       ??_C@_0DC@BKECOLMM@NULL?5?$DN?$DN?5interruptSchedule?$FLnodeCh@ 006421dc     xapilibd:schedule.obj
 0006:0001af58       ??_C@_0DL@MLGPNHOC@NULL?5?$CB?$DN?5schedule?9?$DOInterruptSched@ 00642218     xapilibd:schedule.obj
 0006:0001afa0       ??_C@_0CJ@KDFDCJBK@0?$DN?$DNEndpoint?9?$DOHcEndpointDescripto@ 00642260     xapilibd:schedule.obj
 0006:0001afd4       ??_C@_0DL@NKIOKHOK@NULL?5?$DN?$DN?5schedule?9?$DOInterruptSched@ 00642294     xapilibd:schedule.obj
 0006:0001b020       ??_C@_0GL@JBEFFBFK@INSUFFICIENT?5BANDIWDTH?3?6?5Request@ 006422e0     xapilibd:schedule.obj
 0006:0001b0a0       ??_C@_0BM@CNDOGEPF@Endpoint?5?$DN?$DN?5currentEndpoint?$AA@ 00642360     xapilibd:schedule.obj
 0006:0001b0c4       ??_C@_0CL@CBHLHELF@USBD_STATUS_CANCELED?5?$DN?$DN?5Urb?9?$DOHea@ 00642384     xapilibd:isr.obj
 0006:0001b0f8       ??_C@_0M@COPPLDPA@urbCur?$DN?$DNUrb?$AA@ 006423b8     xapilibd:isr.obj
 0006:0001b108       ??_C@_0CH@HJLCPCNC@d?3?2xbox?2private?2ntos?2dd?2usb?2ohcd@ 006423c8     xapilibd:isr.obj
 0006:0001b138       ??_C@_0DB@HOPBEOHP@Unrecognized?5endpoint?5type?5in?5OH@ 006423f8     xapilibd:isr.obj
 0006:0001b174       ??_C@_0BF@OFIPJMJI@bytesTransfered?5?$DO?$DN?50?$AA@ 00642434     xapilibd:isr.obj
 0006:0001b190       ??_C@_0DL@JBEPFLCF@OHCI_CC_NO_ERROR?5?$CB?$DN?5TD?9?$DOHcTransf@ 00642450     xapilibd:isr.obj
 0006:0001b1d8       ??_C@_0BP@EHGEKBHB@TD?9?$DOType?5?$CB?$DN?5OHCD_TD_TYPE_DUMMY?$AA@ 00642498     xapilibd:isr.obj
 0006:0001b200       ??_C@_0BG@BANBNPCI@urb?5?$DN?$DN?5currentTD?9?$DOUrb?$AA@ 006424c0     xapilibd:isr.obj
 0006:0001b220       ??_C@_0EB@NMNGNPAI@?$CB?$CIurb?9?$DOCommonTransfer?4Hca?4HcdUrb@ 006424e0     xapilibd:isr.obj
 0006:0001b270       ??_C@_0BP@POANHDNF@OHCD_TD_TYPE_DUMMY?5?$DN?$DN?5TD?9?$DOType?$AA@ 00642530     xapilibd:isr.obj
 0006:0001b298       ??_C@_0BP@PHBPNDKI@OHCD_TD_TYPE_DUMMY?5?$CB?$DN?5TD?9?$DOType?$AA@ 00642558     xapilibd:isr.obj
 0006:0001b2c0       ??_C@_0CB@BMLBDBBM@0?$DN?$DN?9?9endpoint?9?$DOPendingPauseCount@ 00642580     xapilibd:isr.obj
 0006:0001b2e8       ??_C@_0CA@ODINKJCO@0?$DN?$DNendpoint?9?$DOProgrammedUrbCount?$AA@ 006425a8     xapilibd:isr.obj
 0006:0001b310       ??_C@_0BM@OJCKNEBF@0?$DN?$DNendpoint?9?$DOQueuedUrbCount?$AA@ 006425d0     xapilibd:isr.obj
 0006:0001b334       ??_C@_0DK@PFKHHLLD@FALSE?5?$CG?$CG?5?$CCNot?5expecting?5interrup@ 006425f4     xapilibd:isr.obj
 0006:0001b37c       ??_C@_06NHLAFFFN@tempTD?$AA@ 0064263c     xapilibd:isr.obj
 0006:0001b384       ??_C@_0DF@JEJEHDOC@doneHead?5?$CG?$CG?5?$CCXbox?5hardware?5shoul@ 00642644     xapilibd:isr.obj
 0006:0001b3c8       ??_C@_0EN@NMOEJPHN@FALSE?5?$CG?$CG?5?$CCWow?0?5what?5do?5we?5do?5her@ 00642688     xapilibd:isr.obj
 0006:0001b428       ??_C@_0EI@NGHAFIKL@?$CI0x10?5?$DN?$DN?5?$CI0xFF?5?$CG?5Revision?$CJ?$CJ?5?$CG?$CG?5?$CC@ 006426e8     xapilibd:devsys.obj
 0006:0001b480       ??_C@_0CK@KNPFIDKG@d?3?2xbox?2private?2ntos?2dd?2usb?2ohcd@ 00642740     xapilibd:devsys.obj
 0006:0001b4b4       ??_C@_0CJ@FEJEBECN@d?3?2xbox?2private?2ntos?2dd?2usb?2ohcd@ 00642774     xapilibd:isoch.obj
 0006:0001b4e8       ??_C@_0DD@HBFJKCLP@transferDescriptor?9?$DOIsochTransfe@ 006427a8     xapilibd:isoch.obj
 0006:0001b528       ??_C@_0DI@CCPLOABG@0?5?$DN?$DN?5transferDescriptor?9?$DOIsochTr@ 006427e8     xapilibd:isoch.obj
 0006:0001b56c       ??_C@_08OKOOPKMJ@endpoint?$AA@ 0064282c     xapilibd:isoch.obj
 0006:0001b578       ??_C@_0DI@INOMKGLK@USB_ENDPOINT_TYPE_ISOCHRONOUS?5?$DN?$DN@ 00642838     xapilibd:isoch.obj
 0006:0001b5c0       ??_C@_0GC@FJEEDGJC@Urb?9?$DOCommonTransfer?4TransferBuff@ 00642880     xapilibd:transfer.obj
 0006:0001b638       ??_C@_0CM@IEJJPHFC@d?3?2xbox?2private?2ntos?2dd?2usb?2ohcd@ 006428f8     xapilibd:transfer.obj
 0006:0001b66c       ??_C@_0CP@IKGKHPID@1?$DN?$DNEndpoint?9?$DOHcEndpointDescripto@ 0064292c     xapilibd:transfer.obj
 0006:0001b6a4       ??_C@_0DE@JOMBBOKB@URB_FUNCTION_CONTROL_TRANSFER?$DN?$DNU@ 00642964     xapilibd:transfer.obj
 0006:0001b6e4       ??_C@_0DO@BJGGGPGG@URB_FUNCTION_BULK_OR_INTERRUPT_T@ 006429a4     xapilibd:transfer.obj
 0006:0001b730       ??_C@_0FM@BPGHCLJA@Unrecognized?5endpoint?5type?5in?5OH@ 006429f0     xapilibd:transfer.obj
 0006:0001b7a0       ??_C@_0CO@NOAFEDEF@?$CB?$CIOHCD_ENDPOINT_FLAG_CLOSING?$CGend@ 00642a60     xapilibd:transfer.obj
 0006:0001ca08       ??_C@_0N@NCEKPPPL@XInitDevices?$AA@ 00643cc8     xapilibd:usbinit.obj
 0006:0001ca18       ??_C@_0LO@BAEEHBMA@A?5device?5type?5was?5explictly?5list@ 00643cd8     xapilibd:usbinit.obj
 0006:0001cafc       ??_C@_0BL@IKHLKEEC@ulMaxDevices?5?$DM?$DN?5ulMaxPorts?$AA@ 00643dbc     xapilibd:usbinit.obj
 0006:0001cb1c       ??_C@_0CN@MFICHHN@d?3?2xbox?2private?2ntos?2dd?2usb?2usbd@ 00643ddc     xapilibd:usbinit.obj
 0007:00000020       _D3DDIRTYFROMTEXTURESTATE  00644e60     ARKANOTRON.obj
 0007:00000090       _D3DDIRTYFROMRENDERSTATE   00644ed0     ARKANOTRON.obj
 0007:00000164       _D3DTEXTUREDIRECTENCODE    00644fa4     ARKANOTRON.obj
 0007:00000178       _D3DSIMPLERENDERSTATEENCODE 00644fb8     ARKANOTRON.obj
 0007:00000338       _D3DPRIMITIVETOVERTEXCOUNT 00645178     ARKANOTRON.obj
 0007:000003a4       __real@3f800000            006451e4     ARKANOTRON.obj
 0007:000003a8       __real@43f00000            006451e8     ARKANOTRON.obj
 0007:000003ac       __real@422c0000            006451ec     ARKANOTRON.obj
 0007:000003b0       __real@44200000            006451f0     ARKANOTRON.obj
 0007:000003b4       __real@41700000            006451f4     ARKANOTRON.obj
 0007:000003b8       __real@47000000            006451f8     ARKANOTRON.obj
 0007:000003bc       __real@40e00000            006451fc     ARKANOTRON.obj
 0007:000003c0       __real@00000000            00645200     ARKANOTRON.obj
 0007:000003c4       ??_C@_0BN@JAPMHKC@Can?8t?5load?5Hud_Surface?5?$CB?6?$CFs?6?$AA@ 00645204     ARKANOTRON.obj
 0007:000003e8       ??_C@_0BM@NFLFLJPP@D?3?2ASSETS?2TEXTURES?2Hud3?4png?$AA@ 00645228     ARKANOTRON.obj
 0007:0000040c       ??_C@_0BP@BHFLDPDI@Can?8t?5load?5Heart_Surface?5?$CB?6?$CFs?6?$AA@ 0064524c     ARKANOTRON.obj
 0007:00000434       ??_C@_0BN@JEBGNEJE@D?3?2ASSETS?2TEXTURES?2Heart?4png?$AA@ 00645274     ARKANOTRON.obj
 0007:00000458       ??_C@_0CF@DDKKGPJF@Can?8t?5load?5SpriteSheet_Surface?5?$CB@ 00645298     ARKANOTRON.obj
 0007:00000484       ??_C@_0CJ@NLMNPPKL@D?3?2ASSETS?2TEXTURES?2BasicArkanoid@ 006452c4     ARKANOTRON.obj
 0007:000004b8       ??_C@_0CD@JNAPBBLO@Can?8t?5load?5BackgroundSurface?5?$CB?6?$CF@ 006452f8     ARKANOTRON.obj
 0007:000004e4       ??_C@_0CC@LCCKOJBE@D?3?2ASSETS?2TEXTURES?2Background?4pn@ 00645324     ARKANOTRON.obj
 0007:0000050c       ??_C@_0BJ@OIOEFKPI@Hey?5everything?5works?5?33?6?$AA@ 0064534c     ARKANOTRON.obj
 0007:0000052c       ??_C@_0BO@NCBIKMLC@SDL?5Initialisation?5failed?6?$CFs?6?$AA@ 0064536c     ARKANOTRON.obj
 0007:00000550       __real@43340000            00645390     GAME_Functions.obj
 0007:00000554       __real@4048f5c3            00645394     GAME_Functions.obj
 0007:00000558       __real@42700000            00645398     GAME_Functions.obj
 0007:0000055c       ??_C@_0BA@PEENPIKJ@SDL_AUDIODRIVER?$AA@ 0064539c     libSDLx:SDL.obj
 0007:00000570       ??_C@_0BA@MOBFFJMC@SDL_VIDEODRIVER?$AA@ 006453b0     libSDLx:SDL.obj
 0007:00000584       ??_C@_0BN@OGPDNEED@Width?5or?5height?5is?5too?5large?$AA@ 006453c4     libSDLx:SDL_surface.obj
 0007:000005a8       ??_C@_0CG@FJEDJGBL@Unsupported?5surface?5alpha?5mask?5f@ 006453e8     libSDLx:SDL_surface.obj
 0007:000005d8       ??_C@_0CI@DBDIFOAL@Surfaces?5must?5not?5be?5locked?5duri@ 00645418     libSDLx:SDL_surface.obj
 0007:00000608       ??_C@_0CF@ILLBAFPC@SDL_UpperBlit?3?5passed?5a?5NULL?5sur@ 00645448     libSDLx:SDL_surface.obj
 0007:00000634       ??_C@_0CI@HPJOHICK@Fill?5rect?5on?5unsupported?5surface@ 00645474     libSDLx:SDL_surface.obj
 0007:00000664       ??_C@_0CE@BKMMPLH@1?9bpp?5rect?5fill?5not?5yet?5implemen@ 006454a4     libSDLx:SDL_surface.obj
 0007:00000690       ??_C@_0CE@KMIMEDLF@4?9bpp?5rect?5fill?5not?5yet?5implemen@ 006454d0     libSDLx:SDL_surface.obj
 0007:000006bc       ??_C@_0BK@EIJMFOLB@Empty?5destination?5palette?$AA@ 006454fc     libSDLx:SDL_surface.obj
 0007:000006dc       ??_C@_0CB@KCPNOAKL@There?5are?5?$CFd?5joysticks?5available@ 0064551c     libSDLx:SDL_joystick.obj
 0007:00000704       ??_C@_0CA@FCHBKHPL@Joystick?5hasn?8t?5been?5opened?5yet?$AA@ 00645544     libSDLx:SDL_joystick.obj
 0007:0000072c       ??_C@_0BK@DOKCBDHC@Joystick?5only?5has?5?$CFd?5axes?$AA@ 0064556c     libSDLx:SDL_joystick.obj
 0007:0000074c       ??_C@_0BK@DEHKAFB@Joystick?5only?5has?5?$CFd?5hats?$AA@ 0064558c     libSDLx:SDL_joystick.obj
 0007:0000076c       ??_C@_0BL@DLDBLEKM@Joystick?5only?5has?5?$CFd?5balls?$AA@ 006455ac     libSDLx:SDL_joystick.obj
 0007:0000078c       ??_C@_0BN@LOKOHPBB@Joystick?5only?5has?5?$CFd?5buttons?$AA@ 006455cc     libSDLx:SDL_joystick.obj
 0007:000007b0       ??_C@_0BK@IGCJJGJH@No?5available?5video?5device?$AA@ 006455f0     libSDLx:SDL_video.obj
 0007:000007d0       ??_C@_0CD@DMBOALMN@OS?5doesn?8t?5support?5threaded?5even@ 00645610     libSDLx:SDL_video.obj
 0007:000007fc       ??_C@_0BP@BFHCIFGK@Couldn?8t?5create?5shadow?5surface?$AA@ 0064563c     libSDLx:SDL_video.obj
 0007:00000824       ??_C@_0CM@BBBDAHPJ@Somebody?5forgot?5to?5?$CDdefine?5SDL_V@ 00645664     libSDLx:SDL_video.obj
 0007:00000858       ??_C@_0CC@DOEBGKEA@Video?5mode?5smaller?5than?5requeste@ 00645698     libSDLx:SDL_video.obj
 0007:00000880       ??_C@_0BF@HNIKPDLB@OpenGL?5not?5available?$AA@ 006456c0     libSDLx:SDL_video.obj
 0007:0000089c       ??_C@_0CF@DMFBCMNF@No?5video?5mode?5large?5enough?5for?5?$CF@ 006456dc     libSDLx:SDL_video.obj
 0007:000008c8       ??_C@_0BI@KEEJDDFA@Invalid?5width?5or?5height?$AA@ 00645708     libSDLx:SDL_video.obj
 0007:000008e4       ??_C@_0CL@FLABHPNN@Invalid?5bits?5per?5pixel?5?$CIrange?5is@ 00645724     libSDLx:SDL_video.obj
 0007:00000918       ??_C@_0BL@MCDAEMGE@No?5video?5mode?5has?5been?5set?$AA@ 00645758     libSDLx:SDL_video.obj
 0007:00000938       ??_C@_0CI@PMKHPIIP@OpenGL?5active?0?5use?5SDL_GL_SwapBu@ 00645778     libSDLx:SDL_video.obj
 0007:00000968       ??_C@_0CG@ECAMDENE@No?5dynamic?5GL?5support?5in?5video?5d@ 006457a8     libSDLx:SDL_video.obj
 0007:00000998       ??_C@_0CJ@DHBOLPOL@Video?5subsystem?5has?5not?5been?5ini@ 006457d8     libSDLx:SDL_video.obj
 0007:000009cc       ??_C@_0BN@PLLLAMKF@No?5GL?5driver?5has?5been?5loaded?$AA@ 0064580c     libSDLx:SDL_video.obj
 0007:000009f0       ??_C@_0BJ@FAFAIBBO@Unknown?5OpenGL?5attribute?$AA@ 00645830     libSDLx:SDL_video.obj
 0007:00000a10       ??_C@_0BO@OGMGPCML@GL_GetAttribute?5not?5supported?$AA@ 00645850     libSDLx:SDL_video.obj
 0007:00000a34       ??_C@_0CD@HFMMFBLH@OpenGL?5video?5mode?5has?5not?5been?5s@ 00645874     libSDLx:SDL_video.obj
 0007:00000a60       ??_C@_0BK@HJKEJEPM@Couldn?8t?5lock?5event?5queue?$AA@ 006458a0     libSDLx:SDL_events.obj
 0007:00000a80       ??_C@_04HOKNPDPJ@undo?$AA@ 006458c0     libSDLx:SDL_keyboard.obj
 0007:00000a88       ??_C@_04IBPOGLCH@euro?$AA@ 006458c8     libSDLx:SDL_keyboard.obj
 0007:00000a90       ??_C@_05PLIADJJL@power?$AA@ 006458d0     libSDLx:SDL_keyboard.obj
 0007:00000a98       ??_C@_04EEIGNHLG@menu?$AA@ 006458d8     libSDLx:SDL_keyboard.obj
 0007:00000aa0       ??_C@_05ELPHFHOI@break?$AA@ 006458e0     libSDLx:SDL_keyboard.obj
 0007:00000aa8       ??_C@_07DEILFKBN@sys?5req?$AA@ 006458e8     libSDLx:SDL_keyboard.obj
 0007:00000ab4       ??_C@_0N@FLOIPKFN@print?5screen?$AA@ 006458f4     libSDLx:SDL_keyboard.obj
 0007:00000ac4       ??_C@_04PCJFHION@help?$AA@ 00645904     libSDLx:SDL_keyboard.obj
 0007:00000acc       ??_C@_07NJIHOJDH@compose?$AA@ 0064590c     libSDLx:SDL_keyboard.obj
 0007:00000ad8       ??_C@_06MMJFIHBB@alt?5gr?$AA@ 00645918     libSDLx:SDL_keyboard.obj
 0007:00000ae0       ??_C@_0M@NAELLGPG@right?5super?$AA@ 00645920     libSDLx:SDL_keyboard.obj
 0007:00000af0       ??_C@_0L@LFAIHJPD@left?5super?$AA@ 00645930     libSDLx:SDL_keyboard.obj
 0007:00000b00       ??_C@_09IKBBMBAJ@left?5meta?$AA@ 00645940     libSDLx:SDL_keyboard.obj
 0007:00000b0c       ??_C@_0L@HJAHACFB@right?5meta?$AA@ 0064594c     libSDLx:SDL_keyboard.obj
 0007:00000b1c       ??_C@_08LLKDAOC@left?5alt?$AA@ 0064595c     libSDLx:SDL_keyboard.obj
 0007:00000b28       ??_C@_09KEAICAPA@right?5alt?$AA@ 00645968     libSDLx:SDL_keyboard.obj
 0007:00000b34       ??_C@_09GMKHENGN@left?5ctrl?$AA@ 00645974     libSDLx:SDL_keyboard.obj
 0007:00000b40       ??_C@_0L@JPLBIODF@right?5ctrl?$AA@ 00645980     libSDLx:SDL_keyboard.obj
 0007:00000b50       ??_C@_0L@FEHFCLAK@left?5shift?$AA@ 00645990     libSDLx:SDL_keyboard.obj
 0007:00000b60       ??_C@_0M@DBDGOEAP@right?5shift?$AA@ 006459a0     libSDLx:SDL_keyboard.obj
 0007:00000b70       ??_C@_0M@FAEPKNCC@scroll?5lock?$AA@ 006459b0     libSDLx:SDL_keyboard.obj
 0007:00000b80       ??_C@_09OINOFJAB@caps?5lock?$AA@ 006459c0     libSDLx:SDL_keyboard.obj
 0007:00000b8c       ??_C@_07KGJJMLBL@numlock?$AA@ 006459cc     libSDLx:SDL_keyboard.obj
 0007:00000b98       ??_C@_03EHGOMFCN@f15?$AA@  006459d8     libSDLx:SDL_keyboard.obj
 0007:00000b9c       ??_C@_03FOHFPEGM@f14?$AA@  006459dc     libSDLx:SDL_keyboard.obj
 0007:00000ba0       ??_C@_03BBDEGCKL@f13?$AA@  006459e0     libSDLx:SDL_keyboard.obj
 0007:00000ba4       ??_C@_03ICPFDOK@f12?$AA@   006459e4     libSDLx:SDL_keyboard.obj
 0007:00000ba8       ??_C@_03CDACAACJ@f11?$AA@  006459e8     libSDLx:SDL_keyboard.obj
 0007:00000bac       ??_C@_03DKBJDBGI@f10?$AA@  006459ec     libSDLx:SDL_keyboard.obj
 0007:00000bb0       ??_C@_02ECGABMMF@f9?$AA@   006459f0     libSDLx:SDL_keyboard.obj
 0007:00000bb4       ??_C@_02FLHLCNIE@f8?$AA@   006459f4     libSDLx:SDL_keyboard.obj
 0007:00000bb8       ??_C@_02NMODDBEL@f7?$AA@   006459f8     libSDLx:SDL_keyboard.obj
 0007:00000bbc       ??_C@_02MFPIAAAK@f6?$AA@   006459fc     libSDLx:SDL_keyboard.obj
 0007:00000bc0       ??_C@_02OONFFDMJ@f5?$AA@   00645a00     libSDLx:SDL_keyboard.obj
 0007:00000bc4       ??_C@_02PHMOGCII@f4?$AA@   00645a04     libSDLx:SDL_keyboard.obj
 0007:00000bc8       ??_C@_02LIIPPEEP@f3?$AA@   00645a08     libSDLx:SDL_keyboard.obj
 0007:00000bcc       ??_C@_02KBJEMFAO@f2?$AA@   00645a0c     libSDLx:SDL_keyboard.obj
 0007:00000bd0       ??_C@_02IKLJJGMN@f1?$AA@   00645a10     libSDLx:SDL_keyboard.obj
 0007:00000bd4       ??_C@_09BPEGAE@page?5down?$AA@ 00645a14     libSDLx:SDL_keyboard.obj
 0007:00000be0       ??_C@_07ICFIENPL@page?5up?$AA@ 00645a20     libSDLx:SDL_keyboard.obj
 0007:00000bec       ??_C@_03JBJLGPFL@end?$AA@  00645a2c     libSDLx:SDL_keyboard.obj
 0007:00000bf0       ??_C@_04KLFPBEKK@home?$AA@ 00645a30     libSDLx:SDL_keyboard.obj
 0007:00000bf8       ??_C@_06OAOPNKHP@insert?$AA@ 00645a38     libSDLx:SDL_keyboard.obj
 0007:00000c00       ??_C@_04GOOOJOPP@left?$AA@ 00645a40     libSDLx:SDL_keyboard.obj
 0007:00000c08       ??_C@_05DHJDAOHK@right?$AA@ 00645a48     libSDLx:SDL_keyboard.obj
 0007:00000c10       ??_C@_04JMOKAGMG@down?$AA@ 00645a50     libSDLx:SDL_keyboard.obj
 0007:00000c18       ??_C@_02HNLLPFKA@up?$AA@   00645a58     libSDLx:SDL_keyboard.obj
 0007:00000c1c       ??_C@_06IMBEHKAP@equals?$AA@ 00645a5c     libSDLx:SDL_keyboard.obj
 0007:00000c24       ??_C@_05IHEOCMON@enter?$AA@ 00645a64     libSDLx:SDL_keyboard.obj
 0007:00000c2c       ??_C@_03PJLKCCFI@?$FL?$CL?$FN?$AA@ 00645a6c     libSDLx:SDL_keyboard.obj
 0007:00000c30       ??_C@_03PNDHFOOK@?$FL?9?$FN?$AA@ 00645a70     libSDLx:SDL_keyboard.obj
 0007:00000c34       ??_C@_03PIHIEIGP@?$FL?$CK?$FN?$AA@ 00645a74     libSDLx:SDL_keyboard.obj
 0007:00000c38       ??_C@_03POLDIKIE@?$FL?1?$FN?$AA@ 00645a78     libSDLx:SDL_keyboard.obj
 0007:00000c3c       ??_C@_03PPHBOALD@?$FL?4?$FN?$AA@ 00645a7c     libSDLx:SDL_keyboard.obj
 0007:00000c40       ??_C@_03OGBIFFEG@?$FL9?$FN?$AA@ 00645a80     libSDLx:SDL_keyboard.obj
 0007:00000c44       ??_C@_03OHNKDPHB@?$FL8?$FN?$AA@ 00645a84     libSDLx:SDL_keyboard.obj
 0007:00000c48       ??_C@_03OMIGHIEM@?$FL7?$FN?$AA@ 00645a88     libSDLx:SDL_keyboard.obj
 0007:00000c4c       ??_C@_03ONEEBCHL@?$FL6?$FN?$AA@ 00645a8c     libSDLx:SDL_keyboard.obj
 0007:00000c50       ??_C@_03OPACKMCC@?$FL5?$FN?$AA@ 00645a90     libSDLx:SDL_keyboard.obj
 0007:00000c54       ??_C@_03OOMAMGBF@?$FL4?$FN?$AA@ 00645a94     libSDLx:SDL_keyboard.obj
 0007:00000c58       ??_C@_03OLIPNAJA@?$FL3?$FN?$AA@ 00645a98     libSDLx:SDL_keyboard.obj
 0007:00000c5c       ??_C@_03OKENLKKH@?$FL2?$FN?$AA@ 00645a9c     libSDLx:SDL_keyboard.obj
 0007:00000c60       ??_C@_03OIALAEPO@?$FL1?$FN?$AA@ 00645aa0     libSDLx:SDL_keyboard.obj
 0007:00000c64       ??_C@_03OJMJGOMJ@?$FL0?$FN?$AA@ 00645aa4     libSDLx:SDL_keyboard.obj
 0007:00000c68       ??_C@_08MFDFJLGD@world?595?$AA@ 00645aa8     libSDLx:SDL_keyboard.obj
 0007:00000c74       ??_C@_08NMCOKKCC@world?594?$AA@ 00645ab4     libSDLx:SDL_keyboard.obj
 0007:00000c80       ??_C@_08JDGPDMOF@world?593?$AA@ 00645ac0     libSDLx:SDL_keyboard.obj
 0007:00000c8c       ??_C@_08IKHEANKE@world?592?$AA@ 00645acc     libSDLx:SDL_keyboard.obj
 0007:00000c98       ??_C@_08KBFJFOGH@world?591?$AA@ 00645ad8     libSDLx:SDL_keyboard.obj
 0007:00000ca4       ??_C@_08LIECGPCG@world?590?$AA@ 00645ae4     libSDLx:SDL_keyboard.obj
 0007:00000cb0       ??_C@_08GIECLOFI@world?589?$AA@ 00645af0     libSDLx:SDL_keyboard.obj
 0007:00000cbc       ??_C@_08HBFJIPBJ@world?588?$AA@ 00645afc     libSDLx:SDL_keyboard.obj
 0007:00000cc8       ??_C@_08PGMBJDNG@world?587?$AA@ 00645b08     libSDLx:SDL_keyboard.obj
 0007:00000cd4       ??_C@_08OPNKKCJH@world?586?$AA@ 00645b14     libSDLx:SDL_keyboard.obj
 0007:00000ce0       ??_C@_08MEPHPBFE@world?585?$AA@ 00645b20     libSDLx:SDL_keyboard.obj
 0007:00000cec       ??_C@_08NNOMMABF@world?584?$AA@ 00645b2c     libSDLx:SDL_keyboard.obj
 0007:00000cf8       ??_C@_08JCKNFGNC@world?583?$AA@ 00645b38     libSDLx:SDL_keyboard.obj
 0007:00000d04       ??_C@_08ILLGGHJD@world?582?$AA@ 00645b44     libSDLx:SDL_keyboard.obj
 0007:00000d10       ??_C@_08KAJLDEFA@world?581?$AA@ 00645b50     libSDLx:SDL_keyboard.obj
 0007:00000d1c       ??_C@_08LJIAAFBB@world?580?$AA@ 00645b5c     libSDLx:SDL_keyboard.obj
 0007:00000d28       ??_C@_08GDBOPJGF@world?579?$AA@ 00645b68     libSDLx:SDL_keyboard.obj
 0007:00000d34       ??_C@_08HKAFMICE@world?578?$AA@ 00645b74     libSDLx:SDL_keyboard.obj
 0007:00000d40       ??_C@_08PNJNNEOL@world?577?$AA@ 00645b80     libSDLx:SDL_keyboard.obj
 0007:00000d4c       ??_C@_08OEIGOFKK@world?576?$AA@ 00645b8c     libSDLx:SDL_keyboard.obj
 0007:00000d58       ??_C@_08MPKLLGGJ@world?575?$AA@ 00645b98     libSDLx:SDL_keyboard.obj
 0007:00000d64       ??_C@_08NGLAIHCI@world?574?$AA@ 00645ba4     libSDLx:SDL_keyboard.obj
 0007:00000d70       ??_C@_08JJPBBBOP@world?573?$AA@ 00645bb0     libSDLx:SDL_keyboard.obj
 0007:00000d7c       ??_C@_08IAOKCAKO@world?572?$AA@ 00645bbc     libSDLx:SDL_keyboard.obj
 0007:00000d88       ??_C@_08KLMHHDGN@world?571?$AA@ 00645bc8     libSDLx:SDL_keyboard.obj
 0007:00000d94       ??_C@_08LCNMECCM@world?570?$AA@ 00645bd4     libSDLx:SDL_keyboard.obj
 0007:00000da0       ??_C@_08GCNMJDFC@world?569?$AA@ 00645be0     libSDLx:SDL_keyboard.obj
 0007:00000dac       ??_C@_08HLMHKCBD@world?568?$AA@ 00645bec     libSDLx:SDL_keyboard.obj
 0007:00000db8       ??_C@_08PMFPLONM@world?567?$AA@ 00645bf8     libSDLx:SDL_keyboard.obj
 0007:00000dc4       ??_C@_08OFEEIPJN@world?566?$AA@ 00645c04     libSDLx:SDL_keyboard.obj
 0007:00000dd0       ??_C@_08MOGJNMFO@world?565?$AA@ 00645c10     libSDLx:SDL_keyboard.obj
 0007:00000ddc       ??_C@_08NHHCONBP@world?564?$AA@ 00645c1c     libSDLx:SDL_keyboard.obj
 0007:00000de8       ??_C@_08JIDDHLNI@world?563?$AA@ 00645c28     libSDLx:SDL_keyboard.obj
 0007:00000df4       ??_C@_08IBCIEKJJ@world?562?$AA@ 00645c34     libSDLx:SDL_keyboard.obj
 0007:00000e00       ??_C@_08KKAFBJFK@world?561?$AA@ 00645c40     libSDLx:SDL_keyboard.obj
 0007:00000e0c       ??_C@_08LDBOCIBL@world?560?$AA@ 00645c4c     libSDLx:SDL_keyboard.obj
 0007:00000e18       ??_C@_08GAJKCNAL@world?559?$AA@ 00645c58     libSDLx:SDL_keyboard.obj
 0007:00000e24       ??_C@_08HJIBBMEK@world?558?$AA@ 00645c64     libSDLx:SDL_keyboard.obj
 0007:00000e30       ??_C@_08POBJAAIF@world?557?$AA@ 00645c70     libSDLx:SDL_keyboard.obj
 0007:00000e3c       ??_C@_08OHACDBME@world?556?$AA@ 00645c7c     libSDLx:SDL_keyboard.obj
 0007:00000e48       ??_C@_08MMCPGCAH@world?555?$AA@ 00645c88     libSDLx:SDL_keyboard.obj
 0007:00000e54       ??_C@_08NFDEFDEG@world?554?$AA@ 00645c94     libSDLx:SDL_keyboard.obj
 0007:00000e60       ??_C@_08JKHFMFIB@world?553?$AA@ 00645ca0     libSDLx:SDL_keyboard.obj
 0007:00000e6c       ??_C@_08IDGOPEMA@world?552?$AA@ 00645cac     libSDLx:SDL_keyboard.obj
 0007:00000e78       ??_C@_08KIEDKHAD@world?551?$AA@ 00645cb8     libSDLx:SDL_keyboard.obj
 0007:00000e84       ??_C@_08LBFIJGEC@world?550?$AA@ 00645cc4     libSDLx:SDL_keyboard.obj
 0007:00000e90       ??_C@_08GBFIEHDM@world?549?$AA@ 00645cd0     libSDLx:SDL_keyboard.obj
 0007:00000e9c       ??_C@_08HIEDHGHN@world?548?$AA@ 00645cdc     libSDLx:SDL_keyboard.obj
 0007:00000ea8       ??_C@_08PPNLGKLC@world?547?$AA@ 00645ce8     libSDLx:SDL_keyboard.obj
 0007:00000eb4       ??_C@_08OGMAFLPD@world?546?$AA@ 00645cf4     libSDLx:SDL_keyboard.obj
 0007:00000ec0       ??_C@_08MNONAIDA@world?545?$AA@ 00645d00     libSDLx:SDL_keyboard.obj
 0007:00000ecc       ??_C@_08NEPGDJHB@world?544?$AA@ 00645d0c     libSDLx:SDL_keyboard.obj
 0007:00000ed8       ??_C@_08JLLHKPLG@world?543?$AA@ 00645d18     libSDLx:SDL_keyboard.obj
 0007:00000ee4       ??_C@_08ICKMJOPH@world?542?$AA@ 00645d24     libSDLx:SDL_keyboard.obj
 0007:00000ef0       ??_C@_08KJIBMNDE@world?541?$AA@ 00645d30     libSDLx:SDL_keyboard.obj
 0007:00000efc       ??_C@_08LAJKPMHF@world?540?$AA@ 00645d3c     libSDLx:SDL_keyboard.obj
 0007:00000f08       ??_C@_08GEBHFBLJ@world?539?$AA@ 00645d48     libSDLx:SDL_keyboard.obj
 0007:00000f14       ??_C@_08HNAMGAPI@world?538?$AA@ 00645d54     libSDLx:SDL_keyboard.obj
 0007:00000f20       ??_C@_08PKJEHMDH@world?537?$AA@ 00645d60     libSDLx:SDL_keyboard.obj
 0007:00000f2c       ??_C@_08ODIPENHG@world?536?$AA@ 00645d6c     libSDLx:SDL_keyboard.obj
 0007:00000f38       ??_C@_08MIKCBOLF@world?535?$AA@ 00645d78     libSDLx:SDL_keyboard.obj
 0007:00000f44       ??_C@_08NBLJCPPE@world?534?$AA@ 00645d84     libSDLx:SDL_keyboard.obj
 0007:00000f50       ??_C@_08JOPILJDD@world?533?$AA@ 00645d90     libSDLx:SDL_keyboard.obj
 0007:00000f5c       ??_C@_08IHODIIHC@world?532?$AA@ 00645d9c     libSDLx:SDL_keyboard.obj
 0007:00000f68       ??_C@_08KMMONLLB@world?531?$AA@ 00645da8     libSDLx:SDL_keyboard.obj
 0007:00000f74       ??_C@_08LFNFOKPA@world?530?$AA@ 00645db4     libSDLx:SDL_keyboard.obj
 0007:00000f80       ??_C@_08GFNFDLIO@world?529?$AA@ 00645dc0     libSDLx:SDL_keyboard.obj
 0007:00000f8c       ??_C@_08HMMOAKMP@world?528?$AA@ 00645dcc     libSDLx:SDL_keyboard.obj
 0007:00000f98       ??_C@_08PLFGBGAA@world?527?$AA@ 00645dd8     libSDLx:SDL_keyboard.obj
 0007:00000fa4       ??_C@_08OCENCHEB@world?526?$AA@ 00645de4     libSDLx:SDL_keyboard.obj
 0007:00000fb0       ??_C@_08MJGAHEIC@world?525?$AA@ 00645df0     libSDLx:SDL_keyboard.obj
 0007:00000fbc       ??_C@_08NAHLEFMD@world?524?$AA@ 00645dfc     libSDLx:SDL_keyboard.obj
 0007:00000fc8       ??_C@_08JPDKNDAE@world?523?$AA@ 00645e08     libSDLx:SDL_keyboard.obj
 0007:00000fd4       ??_C@_08IGCBOCEF@world?522?$AA@ 00645e14     libSDLx:SDL_keyboard.obj
 0007:00000fe0       ??_C@_08KNAMLBIG@world?521?$AA@ 00645e20     libSDLx:SDL_keyboard.obj
 0007:00000fec       ??_C@_08LEBHIAMH@world?520?$AA@ 00645e2c     libSDLx:SDL_keyboard.obj
 0007:00000ff8       ??_C@_08GHJDIFNH@world?519?$AA@ 00645e38     libSDLx:SDL_keyboard.obj
 0007:00001004       ??_C@_08HOIILEJG@world?518?$AA@ 00645e44     libSDLx:SDL_keyboard.obj
 0007:00001010       ??_C@_08PJBAKIFJ@world?517?$AA@ 00645e50     libSDLx:SDL_keyboard.obj
 0007:0000101c       ??_C@_08OAALJJBI@world?516?$AA@ 00645e5c     libSDLx:SDL_keyboard.obj
 0007:00001028       ??_C@_08MLCGMKNL@world?515?$AA@ 00645e68     libSDLx:SDL_keyboard.obj
 0007:00001034       ??_C@_08NCDNPLJK@world?514?$AA@ 00645e74     libSDLx:SDL_keyboard.obj
 0007:00001040       ??_C@_08JNHMGNFN@world?513?$AA@ 00645e80     libSDLx:SDL_keyboard.obj
 0007:0000104c       ??_C@_08IEGHFMBM@world?512?$AA@ 00645e8c     libSDLx:SDL_keyboard.obj
 0007:00001058       ??_C@_08KPEKAPNP@world?511?$AA@ 00645e98     libSDLx:SDL_keyboard.obj
 0007:00001064       ??_C@_08LGFBDOJO@world?510?$AA@ 00645ea4     libSDLx:SDL_keyboard.obj
 0007:00001070       ??_C@_07NJBDBJJL@world?59?$AA@ 00645eb0     libSDLx:SDL_keyboard.obj
 0007:0000107c       ??_C@_07MAAICINK@world?58?$AA@ 00645ebc     libSDLx:SDL_keyboard.obj
 0007:00001088       ??_C@_07EHJADEBF@world?57?$AA@ 00645ec8     libSDLx:SDL_keyboard.obj
 0007:00001094       ??_C@_07FOILAFFE@world?56?$AA@ 00645ed4     libSDLx:SDL_keyboard.obj
 0007:000010a0       ??_C@_07HFKGFGJH@world?55?$AA@ 00645ee0     libSDLx:SDL_keyboard.obj
 0007:000010ac       ??_C@_07GMLNGHNG@world?54?$AA@ 00645eec     libSDLx:SDL_keyboard.obj
 0007:000010b8       ??_C@_07CDPMPBBB@world?53?$AA@ 00645ef8     libSDLx:SDL_keyboard.obj
 0007:000010c4       ??_C@_07DKOHMAFA@world?52?$AA@ 00645f04     libSDLx:SDL_keyboard.obj
 0007:000010d0       ??_C@_07BBMKJDJD@world?51?$AA@ 00645f10     libSDLx:SDL_keyboard.obj
 0007:000010dc       ??_C@_07INBKCNC@world?50?$AA@ 00645f1c     libSDLx:SDL_keyboard.obj
 0007:000010e8       ??_C@_06FOBLBEIN@delete?$AA@ 00645f28     libSDLx:SDL_keyboard.obj
 0007:000010f0       ??_C@_01GLPGHMHM@z?$AA@    00645f30     libSDLx:SDL_keyboard.obj
 0007:000010f4       ??_C@_01EANLCPLP@y?$AA@    00645f34     libSDLx:SDL_keyboard.obj
 0007:000010f8       ??_C@_01FJMABOPO@x?$AA@    00645f38     libSDLx:SDL_keyboard.obj
 0007:000010fc       ??_C@_01NOFIACDB@w?$AA@    00645f3c     libSDLx:SDL_keyboard.obj
 0007:00001100       ??_C@_01MHEDDDHA@v?$AA@    00645f40     libSDLx:SDL_keyboard.obj
 0007:00001104       ??_C@_01OMGOGALD@u?$AA@    00645f44     libSDLx:SDL_keyboard.obj
 0007:00001108       ??_C@_01PFHFFBPC@t?$AA@    00645f48     libSDLx:SDL_keyboard.obj
 0007:0000110c       ??_C@_01LKDEMHDF@s?$AA@    00645f4c     libSDLx:SDL_keyboard.obj
 0007:00001110       ??_C@_01KDCPPGHE@r?$AA@    00645f50     libSDLx:SDL_keyboard.obj
 0007:00001114       ??_C@_01IIACKFLH@q?$AA@    00645f54     libSDLx:SDL_keyboard.obj
 0007:00001118       ??_C@_01JBBJJEPG@p?$AA@    00645f58     libSDLx:SDL_keyboard.obj
 0007:0000111c       ??_C@_01FMEDJKGI@o?$AA@    00645f5c     libSDLx:SDL_keyboard.obj
 0007:00001120       ??_C@_01EFFIKLCJ@n?$AA@    00645f60     libSDLx:SDL_keyboard.obj
 0007:00001124       ??_C@_01GOHFPIOK@m?$AA@    00645f64     libSDLx:SDL_keyboard.obj
 0007:00001128       ??_C@_01HHGOMJKL@l?$AA@    00645f68     libSDLx:SDL_keyboard.obj
 0007:0000112c       ??_C@_01DICPFPGM@k?$AA@    00645f6c     libSDLx:SDL_keyboard.obj
 0007:00001130       ??_C@_01CBDEGOCN@j?$AA@    00645f70     libSDLx:SDL_keyboard.obj
 0007:00001134       ??_C@_01KBJDNOO@i?$AA@     00645f74     libSDLx:SDL_keyboard.obj
 0007:00001138       ??_C@_01BDACAMKP@h?$AA@    00645f78     libSDLx:SDL_keyboard.obj
 0007:0000113c       ??_C@_01JEJKBAGA@g?$AA@    00645f7c     libSDLx:SDL_keyboard.obj
 0007:00001140       ??_C@_01INIBCBCB@f?$AA@    00645f80     libSDLx:SDL_keyboard.obj
 0007:00001144       ??_C@_01KGKMHCOC@e?$AA@    00645f84     libSDLx:SDL_keyboard.obj
 0007:00001148       ??_C@_01LPLHEDKD@d?$AA@    00645f88     libSDLx:SDL_keyboard.obj
 0007:0000114c       ??_C@_01PAPGNFGE@c?$AA@    00645f8c     libSDLx:SDL_keyboard.obj
 0007:00001150       ??_C@_01OJONOECF@b?$AA@    00645f90     libSDLx:SDL_keyboard.obj
 0007:00001154       ??_C@_01MCMALHOG@a?$AA@    00645f94     libSDLx:SDL_keyboard.obj
 0007:00001158       ??_C@_01NLNLIGKH@?$GA?$AA@ 00645f98     libSDLx:SDL_keyboard.obj
 0007:0000115c       ??_C@_01IDAFKMJL@_?$AA@    00645f9c     libSDLx:SDL_keyboard.obj
 0007:00001160       ??_C@_01JKBOJNNK@?$FO?$AA@ 00645fa0     libSDLx:SDL_keyboard.obj
 0007:00001164       ??_C@_01LBDDMOBJ@?$FN?$AA@ 00645fa4     libSDLx:SDL_keyboard.obj
 0007:00001168       ??_C@_01KICIPPFI@?2?$AA@   00645fa8     libSDLx:SDL_keyboard.obj
 0007:0000116c       ??_C@_01OHGJGJJP@?$FL?$AA@ 00645fac     libSDLx:SDL_keyboard.obj
 0007:00001170       ??_C@_01EOFPKCAF@?$EA?$AA@ 00645fb0     libSDLx:SDL_keyboard.obj
 0007:00001174       ??_C@_01OGPIMHDM@?$DP?$AA@ 00645fb4     libSDLx:SDL_keyboard.obj
 0007:00001178       ??_C@_01PPODPGHN@?$DO?$AA@ 00645fb8     libSDLx:SDL_keyboard.obj
 0007:0000117c       ??_C@_01NEMOKFLO@?$DN?$AA@ 00645fbc     libSDLx:SDL_keyboard.obj
 0007:00001180       ??_C@_01MNNFJEPP@?$DM?$AA@ 00645fc0     libSDLx:SDL_keyboard.obj
 0007:00001184       ??_C@_01ICJEACDI@?$DL?$AA@ 00645fc4     libSDLx:SDL_keyboard.obj
 0007:00001188       ??_C@_01JLIPDDHJ@?3?$AA@   00645fc8     libSDLx:SDL_keyboard.obj
 0007:0000118c       ??_C@_01LAKCGALK@9?$AA@    00645fcc     libSDLx:SDL_keyboard.obj
 0007:00001190       ??_C@_01KJLJFBPL@8?$AA@    00645fd0     libSDLx:SDL_keyboard.obj
 0007:00001194       ??_C@_01COCBENDE@7?$AA@    00645fd4     libSDLx:SDL_keyboard.obj
 0007:00001198       ??_C@_01DHDKHMHF@6?$AA@    00645fd8     libSDLx:SDL_keyboard.obj
 0007:0000119c       ??_C@_01BMBHCPLG@5?$AA@    00645fdc     libSDLx:SDL_keyboard.obj
 0007:000011a0       ??_C@_01FAMBOPH@4?$AA@     00645fe0     libSDLx:SDL_keyboard.obj
 0007:000011a4       ??_C@_01EKENIIDA@3?$AA@    00645fe4     libSDLx:SDL_keyboard.obj
 0007:000011a8       ??_C@_01FDFGLJHB@2?$AA@    00645fe8     libSDLx:SDL_keyboard.obj
 0007:000011ac       ??_C@_01HIHLOKLC@1?$AA@    00645fec     libSDLx:SDL_keyboard.obj
 0007:000011b0       ??_C@_01GBGANLPD@0?$AA@    00645ff0     libSDLx:SDL_keyboard.obj
 0007:000011b4       ??_C@_01KMDKNFGN@?1?$AA@   00645ff4     libSDLx:SDL_keyboard.obj
 0007:000011b8       ??_C@_01LFCBOECM@?4?$AA@   00645ff8     libSDLx:SDL_keyboard.obj
 0007:000011bc       ??_C@_01JOAMLHOP@?9?$AA@   00645ffc     libSDLx:SDL_keyboard.obj
 0007:000011c0       ??_C@_01IHBHIGKO@?0?$AA@   00646000     libSDLx:SDL_keyboard.obj
 0007:000011c4       ??_C@_01MIFGBAGJ@?$CL?$AA@ 00646004     libSDLx:SDL_keyboard.obj
 0007:000011c8       ??_C@_01NBENCBCI@?$CK?$AA@ 00646008     libSDLx:SDL_keyboard.obj
 0007:000011cc       ??_C@_01PKGAHCOL@?$CJ?$AA@ 0064600c     libSDLx:SDL_keyboard.obj
 0007:000011d0       ??_C@_01ODHLEDKK@?$CI?$AA@ 00646010     libSDLx:SDL_keyboard.obj
 0007:000011d4       ??_C@_01GEODFPGF@?8?$AA@   00646014     libSDLx:SDL_keyboard.obj
 0007:000011d8       ??_C@_01HNPIGOCE@?$CG?$AA@ 00646018     libSDLx:SDL_keyboard.obj
 0007:000011dc       ??_C@_01EPMOAMKG@$?$AA@    0064601c     libSDLx:SDL_keyboard.obj
 0007:000011e0       ??_C@_01IPJKGB@?$CD?$AA@   00646020     libSDLx:SDL_keyboard.obj
 0007:000011e4       ??_C@_01BJJEKLCA@?$CC?$AA@ 00646024     libSDLx:SDL_keyboard.obj
 0007:000011e8       ??_C@_01DCLJPIOD@?$CB?$AA@ 00646028     libSDLx:SDL_keyboard.obj
 0007:000011ec       ??_C@_05OLNILLAB@space?$AA@ 0064602c     libSDLx:SDL_keyboard.obj
 0007:000011f4       ??_C@_06CHNIFGOF@escape?$AA@ 00646034     libSDLx:SDL_keyboard.obj
 0007:000011fc       ??_C@_05PDJBBECF@pause?$AA@ 0064603c     libSDLx:SDL_keyboard.obj
 0007:00001204       ??_C@_06LNOFJDNM@return?$AA@ 00646044     libSDLx:SDL_keyboard.obj
 0007:0000120c       ??_C@_05MEHLAELG@clear?$AA@ 0064604c     libSDLx:SDL_keyboard.obj
 0007:00001214       ??_C@_03CEDILPBK@tab?$AA@  00646054     libSDLx:SDL_keyboard.obj
 0007:00001218       ??_C@_09PAEPIMDJ@backspace?$AA@ 00646058     libSDLx:SDL_keyboard.obj
 0007:00001224       ??_C@_0BG@CDEPNIGI@SDL_DISABLE_LOCK_KEYS?$AA@ 00646064     libSDLx:SDL_keyboard.obj
 0007:00001240       ??_C@_0M@IDKHBBB@unknown?5key?$AA@ 00646080     libSDLx:SDL_keyboard.obj
 0007:00001250       ??_C@_0CF@LKDFJBLO@keyboard?5repeat?5value?5less?5than?5@ 00646090     libSDLx:SDL_keyboard.obj
 0007:0000127c       ??_C@_06OJHGLDPL@?$CInull?$CJ?$AA@ 006460bc     libSDLx:SDL_error.obj
 0007:00001284       ??_C@_0BC@GIFKALJN@Unknown?5SDL?5error?$AA@ 006460c4     libSDLx:SDL_error.obj
 0007:0000129c       ??_C@_0BM@ILIHIMKK@Error?5seeking?5in?5datastream?$AA@ 006460dc     libSDLx:SDL_error.obj
 0007:000012c0       ??_C@_0BM@HKBAIOID@Error?5writing?5to?5datastream?$AA@ 00646100     libSDLx:SDL_error.obj
 0007:000012e4       ??_C@_0BO@HOPHLHIA@Error?5reading?5from?5datastream?$AA@ 00646124     libSDLx:SDL_error.obj
 0007:00001308       ??_C@_0O@NALGGDJF@Out?5of?5memory?$AA@ 00646148     libSDLx:SDL_error.obj
 0007:00001318       ??_C@_0CB@CEFCNOG@CD?9ROM?5subsystem?5not?5initialized@ 00646158     libSDLx:SDL_cdrom.obj
 0007:00001340       ??_C@_0BC@OOHLCGMC@CD?9ROM?5not?5opened?$AA@ 00646180     libSDLx:SDL_cdrom.obj
 0007:00001355       ??_C@_00CNPNBAHC@?$AA@     00646195     libSDLx:SDL_cdrom.obj
 0007:00001358       ??_C@_0BL@LMBNFNMD@Invalid?5CD?9ROM?5drive?5index?$AA@ 00646198     libSDLx:SDL_cdrom.obj
 0007:00001378       ??_C@_0CC@IBHFLJMH@Invalid?5ending?5frame?5for?5track?5?$CF@ 006461b8     libSDLx:SDL_cdrom.obj
 0007:000013a0       ??_C@_0CE@OJEANBFN@Invalid?5starting?5frame?5for?5track@ 006461e0     libSDLx:SDL_cdrom.obj
 0007:000013cc       ??_C@_0BE@PCDPDEOO@Invalid?5play?5length?$AA@ 0064620c     libSDLx:SDL_cdrom.obj
 0007:000013e4       ??_C@_0BH@MMJOLMAM@Invalid?5starting?5track?$AA@ 00646224     libSDLx:SDL_cdrom.obj
 0007:00001400       ??_C@_0BK@FMHDHGOG@No?5available?5audio?5device?$AA@ 00646240     libSDLx:SDL_audio.obj
 0007:00001420       ??_C@_0BN@DPLMHEIO@Couldn?8t?5create?5audio?5thread?$AA@ 00646260     libSDLx:SDL_audio.obj
 0007:00001444       ??_C@_0BL@JMFAHGBA@Couldn?8t?5create?5mixer?5lock?$AA@ 00646284     libSDLx:SDL_audio.obj
 0007:00001464       ??_C@_0CH@KOHFKNH@SDL_OpenAudio?$CI?$CJ?5passed?5a?5NULL?5ca@ 006462a4     libSDLx:SDL_audio.obj
 0007:00001494       ??_C@_0BC@ILGDJACM@SDL_AUDIO_SAMPLES?$AA@ 006462d4     libSDLx:SDL_audio.obj
 0007:000014ac       ??_C@_0CL@LEOAEFFM@1?5?$CImono?$CJ?5and?52?5?$CIstereo?$CJ?5channels@ 006462ec     libSDLx:SDL_audio.obj
 0007:000014e0       ??_C@_0BD@IDIMOGAM@SDL_AUDIO_CHANNELS?$AA@ 00646320     libSDLx:SDL_audio.obj
 0007:000014f8       ??_C@_0BB@DLGECLFP@SDL_AUDIO_FORMAT?$AA@ 00646338     libSDLx:SDL_audio.obj
 0007:0000150c       ??_C@_0BE@HHGJFOAF@SDL_AUDIO_FREQUENCY?$AA@ 0064634c     libSDLx:SDL_audio.obj
 0007:00001524       ??_C@_0BP@FIICIEOD@Audio?5device?5is?5already?5opened?$AA@ 00646364     libSDLx:SDL_audio.obj
 0007:0000154c       ??_C@_03BLHABNGN@MSB?$AA@  0064638c     libSDLx:SDL_audio.obj
 0007:00001550       ??_C@_03PFPIJLAH@SYS?$AA@  00646390     libSDLx:SDL_audio.obj
 0007:00001554       ??_C@_03KDMMHKAI@LSB?$AA@  00646394     libSDLx:SDL_audio.obj
 0007:00001558       ??_C@_0BK@ONHBBOII@Timer?5already?5initialized?$AA@ 00646398     libSDLx:SDL_timer.obj
 0007:00001578       ??_C@_0CJ@GAAINEFF@Multiple?5timers?5require?5threaded@ 006463b8     libSDLx:SDL_timer.obj
 0007:000015ac       ??_C@_0CN@GGFNPEOM@You?5must?5call?5SDL_Init?$CISDL_INIT_@ 006463ec     libSDLx:SDL_timer.obj
 0007:000015e4       ??_C@_0CO@LFBHPCDD@This?5platform?5doesn?8t?5support?5mu@ 00646424     libSDLx:SDL_timer.obj
 0007:0000161c       ??_C@_0BG@HKBNBAMB@timeSetEvent?$CI?$CJ?5failed?$AA@ 0064645c     libSDLx:SDL_systimer.obj
 0007:00001638       ??_C@_0DA@BGLKEAGI@Internal?5logic?5error?3?5Win32?5uses@ 00646478     libSDLx:SDL_systimer.obj
 0007:00001674       ??_C@_0BK@OHGGAKDK@XBOX?5Gamepad?5Plugin?5V0?402?$AA@ 006464b4     libSDLx:SDL_sysjoystick.obj
 0007:00001694       ??_C@_0BH@FLCDHPCF@Xbox?5SDL?5Gamepad?5V0?402?$AA@ 006464d4     libSDLx:SDL_sysjoystick.obj
 0007:000016b0       __real@3f428f5c            006464f0     libSDLx:SDL_sysjoystick.obj
 0007:000016b4       __real@3e75c28f            006464f4     libSDLx:SDL_sysjoystick.obj
 0007:000016b8       __real@bf800000            006464f8     libSDLx:SDL_sysjoystick.obj
 0007:000016bc       __real@46ffff00            006464fc     libSDLx:SDL_sysjoystick.obj
 0007:000016c0       __real@3f000000            00646500     libSDLx:SDL_sysjoystick.obj
 0007:000016c4       ??_C@_0BM@KMAIFDNF@XBOX?5SDL?5video?5driver?5V0?409?$AA@ 00646504     libSDLx:SDL_xboxvideo.obj
 0007:000016e8       ??_C@_04JAHABPP@XBOX?$AA@  00646528     libSDLx:SDL_xboxvideo.obj
 0007:00001750       ??_C@_0BD@BKDCBBBA@No?5modes?5available?$AA@ 00646590     libSDLx:SDL_xboxvideo.obj
 0007:00001768       ??_C@_0BN@HDLPDGGM@Couldn?8t?5allocate?5modes?5list?$AA@ 006465a8     libSDLx:SDL_xboxvideo.obj
 0007:0000178c       ??_C@_0CC@JMLHGDED@Couldn?8t?5create?5Direct3D?5Texture@ 006465cc     libSDLx:SDL_xboxvideo.obj
 0007:000017b4       ??_C@_0DG@IEFDBHLE@Couldn?8t?5allocate?5new?5pixel?5form@ 006465f4     libSDLx:SDL_xboxvideo.obj
 0007:000017f8       __real@3fe8000000000000    00646638     libSDLx:SDL_xboxvideo.obj
 0007:00001804       ??_C@_0CF@BGOJMJCO@Couldn?8t?5find?5requested?5mode?5in?5@ 00646644     libSDLx:SDL_xboxvideo.obj
 0007:00001830       ??_C@_0CK@FOGGMOIE@Cursor?5hot?5spot?5doesn?8t?5lie?5with@ 00646670     libSDLx:SDL_cursor.obj
 0007:00001864       ??_C@_0CO@PPDPCIO@A?5video?5mode?5must?5be?5set?5before?5@ 006466a4     libSDLx:SDL_cursor.obj
 0007:000018c8       ??_C@_02MDDDDAID@0x?$AA@   00646708     libSDLx:SDL_string.obj
 0007:000018cc       ??_C@_03KDGLFNIB@I64?$AA@  0064670c     libSDLx:SDL_string.obj
 0007:000018d0       __real@3e45798ee2308c3a    00646710     libSDLx:SDL_string.obj
 0007:000018e0       __real@0000000000000000    00646720     libSDLx:SDL_string.obj
 0007:000018ec       ??_C@_0BG@MHBJJFKC@Couldn?8t?5create?5mutex?$AA@ 0064672c     libSDLx:SDL_sysmutex.obj
 0007:00001908       ??_C@_0BH@GBCFLFJB@Couldn?8t?5wait?5on?5mutex?$AA@ 00646748     libSDLx:SDL_sysmutex.obj
 0007:00001924       ??_C@_0BE@JKAFKGBP@Passed?5a?5NULL?5mutex?$AA@ 00646764     libSDLx:SDL_sysmutex.obj
 0007:0000193c       ??_C@_0BH@LEACBMNM@Couldn?8t?5release?5mutex?$AA@ 0064677c     libSDLx:SDL_sysmutex.obj
 0007:00001958       ??_C@_0CG@NEOFPKAN@Not?5enough?5resources?5to?5create?5t@ 00646798     libSDLx:SDL_systhread.obj
 0007:00001988       ??_C@_0P@PPFCKJAD@?2Device?2Cdrom0?$AA@ 006467c8     libSDLx:SDL_syscdrom.obj
 0007:0000199c       ??_C@_06JLPBKNNA@?2?$DP?$DP?2R?3?$AA@ 006467dc     libSDLx:SDL_syscdrom.obj
 0007:000019a4       ??_C@_03IAENJFNE@R?3?2?$AA@ 006467e4     libSDLx:SDL_syscdrom.obj
 0007:000019a8       ??_C@_0BB@DOCACMIM@XBOX?5DirectSound?$AA@ 006467e8     libSDLx:SDL_xboxaudio.obj
 0007:000019bc       ??_C@_06JEIHMPKD@dsound?$AA@ 006467fc     libSDLx:SDL_xboxaudio.obj
 0007:000019c4       ??_C@_0BP@NBENMCLC@DirectSound?5GetCurrentPosition?$AA@ 00646804     libSDLx:SDL_xboxaudio.obj
 0007:000019ec       ??_C@_02DKCKIIND@?$CFs?$AA@ 0064682c     libSDLx:SDL_xboxaudio.obj
 0007:000019f0       ??_C@_06DJHOIPC@?$CFs?3?5?$CFs?$AA@ 00646830     libSDLx:SDL_xboxaudio.obj
 0007:000019f8       ??_C@_0CE@IOEIACHK@?$CFs?3?5Unknown?5DirectSound?5error?3?50@ 00646838     libSDLx:SDL_xboxaudio.obj
 0007:00001a24       ??_C@_0BH@KGLDLPJN@Function?5not?5supported?$AA@ 00646864     libSDLx:SDL_xboxaudio.obj
 0007:00001a40       ??_C@_0BG@GAGDGGKF@No?5audio?5device?5found?$AA@ 00646880     libSDLx:SDL_xboxaudio.obj
 0007:00001a5c       ??_C@_0CD@NGJIFEPO@Invalid?5call?5for?5the?5current?5sta@ 0064689c     libSDLx:SDL_xboxaudio.obj
 0007:00001a88       ??_C@_0CD@OGCOBAMK@Control?5requested?5is?5not?5availab@ 006468c8     libSDLx:SDL_xboxaudio.obj
 0007:00001ab4       ??_C@_0DM@NABEIHHL@Unsupported?5interface?6?9?9?5Is?5Dire@ 006468f4     libSDLx:SDL_xboxaudio.obj
 0007:00001afc       ??_C@_0BB@DKNLGBEB@DirectSound?5Lock?$AA@ 0064693c     libSDLx:SDL_xboxaudio.obj
 0007:00001b10       ??_C@_0BJ@BCDADOAG@Unsupported?5audio?5format?$AA@ 00646950     libSDLx:SDL_xboxaudio.obj
 0007:00001b30       ??_C@_0BO@CMKKFKKH@DirectSound?5CreateSoundBuffer?$AA@ 00646970     libSDLx:SDL_xboxaudio.obj
 0007:00001b54       ??_C@_0CM@NEEALHAF@Sound?5buffer?5size?5must?5be?5betwee@ 00646994     libSDLx:SDL_xboxaudio.obj
 0007:00001b88       __real@4000000000000000    006469c8     libSDLx:SDL_audiocvt.obj
 0007:00001b98       __real@3ff0000000000000    006469d8     libSDLx:SDL_audiocvt.obj
 0007:00001ba4       ??_C@_0CD@DJIMOKAG@No?5buffer?5allocated?5for?5conversi@ 006469e4     libSDLx:SDL_audiocvt.obj
 0007:00001bd0       __real@3fe0000000000000    00646a10     libSDLx:SDL_audiocvt.obj
 0007:00001be0       __real@4008000000000000    00646a20     libSDLx:SDL_audiocvt.obj
 0007:00001bec       ??_C@_0BP@DOEMAMAO@Blit?5combination?5not?5supported?$AA@ 00646a2c     libSDLx:SDL_blit.obj
 0007:00001c18       ??_C@_0BK@OJANNCMP@Couldn?8t?5create?5semaphore?$AA@ 00646a58     libSDLx:SDL_syssem.obj
 0007:00001c38       ??_C@_0BN@CBILABAM@WaitForSingleObject?$CI?$CJ?5failed?$AA@ 00646a78     libSDLx:SDL_syssem.obj
 0007:00001c5c       ??_C@_0BC@MPKHDLJP@Passed?5a?5NULL?5sem?$AA@ 00646a9c     libSDLx:SDL_syssem.obj
 0007:00001c74       ??_C@_0BK@PIIIPHLC@ReleaseSemaphore?$CI?$CJ?5failed?$AA@ 00646ab4     libSDLx:SDL_syssem.obj
 0007:00004514       ??_C@_04NGIBLHMM@WEBP?$AA@ 00649354     SDL_Image:IMG.obj
 0007:0000451c       ??_C@_02IOPAKDDH@XV?$AA@   0064935c     SDL_Image:IMG.obj
 0007:00004520       ??_C@_03PJGJBIFG@XPM?$AA@  00649360     SDL_Image:IMG.obj
 0007:00004524       ??_C@_03EPNNMLE@XCF?$AA@   00649364     SDL_Image:IMG.obj
 0007:00004528       ??_C@_03EDLMOGNK@TIF?$AA@  00649368     SDL_Image:IMG.obj
 0007:0000452c       ??_C@_03CKGFLOMD@PNM?$AA@  0064936c     SDL_Image:IMG.obj
 0007:00004530       ??_C@_03NAIKFGEJ@PNG?$AA@  00649370     SDL_Image:IMG.obj
 0007:00004534       ??_C@_03BFAIMLIE@PCX?$AA@  00649374     SDL_Image:IMG.obj
 0007:00004538       ??_C@_03DJLAKPIA@LBM?$AA@  00649378     SDL_Image:IMG.obj
 0007:0000453c       ??_C@_03PJJGGPMI@JPG?$AA@  0064937c     SDL_Image:IMG.obj
 0007:00004540       ??_C@_03BBABOKL@GIF?$AA@   00649380     SDL_Image:IMG.obj
 0007:00004544       ??_C@_03CNFPPDJC@BMP?$AA@  00649384     SDL_Image:IMG.obj
 0007:00004548       ??_C@_03DNJKFHAH@ICO?$AA@  00649388     SDL_Image:IMG.obj
 0007:0000454c       ??_C@_03LFOAAELN@CUR?$AA@  0064938c     SDL_Image:IMG.obj
 0007:00004550       ??_C@_03GGDFNBH@TGA?$AA@   00649390     SDL_Image:IMG.obj
 0007:00004554       ??_C@_02JDPG@rb?$AA@       00649394     SDL_Image:IMG.obj
 0007:00004558       ??_C@_0BJ@LIJHGAAG@Unsupported?5image?5format?$AA@ 00649398     SDL_Image:IMG.obj
 0007:00004578       ??_C@_0BP@JLJPCEBL@Can?8t?5seek?5in?5this?5data?5source?$AA@ 006493b8     SDL_Image:IMG.obj
 0007:000045a0       ??_C@_0BK@BECJLJMB@Passed?5a?5NULL?5data?5source?$AA@ 006493e0     SDL_Image:IMG.obj
 0007:000045c0       ??_C@_0BO@IEOHAJHK@WEBP?5images?5are?5not?5supported?$AA@ 00649400     SDL_Image:IMG_webp.obj
 0007:000045e4       ??_C@_04OBGPFBCN@blue?$AA@ 00649424     SDL_Image:IMG_xpm.obj
 0007:000045ec       ??_C@_05GBEEJKMC@green?$AA@ 0064942c     SDL_Image:IMG_xpm.obj
 0007:000045f4       ??_C@_03FAAAOPJM@red?$AA@  00649434     SDL_Image:IMG_xpm.obj
 0007:000045f8       ??_C@_05PMAELIEO@white?$AA@ 00649438     SDL_Image:IMG_xpm.obj
 0007:00004600       ??_C@_05BIMBDNDC@black?$AA@ 00649440     SDL_Image:IMG_xpm.obj
 0007:00004608       ??_C@_04CGFJFPFD@none?$AA@ 00649448     SDL_Image:IMG_xpm.obj
 0007:00004610       ??_C@_09HHKJMCAF@?1?$CK?5XPM?5?$CK?1?$AA@ 00649450     SDL_Image:IMG_xpm.obj
 0007:0000461c       ??_C@_0BD@LNMAOMCH@colour?5parse?5error?$AA@ 0064945c     SDL_Image:IMG_xpm.obj
 0007:00004634       ??_C@_0BL@IMMEOGMK@Invalid?5format?5description?$AA@ 00649474     SDL_Image:IMG_xpm.obj
 0007:00004654       ??_C@_0M@FMGEODLN@?$CFd?5?$CFd?5?$CFd?5?$CFd?$AA@ 00649494     SDL_Image:IMG_xpm.obj
 0007:00004664       ??_C@_0BG@MBBGNLFO@Premature?5end?5of?5data?$AA@ 006494a4     SDL_Image:IMG_xpm.obj
 0007:00004680       ??_C@_0BO@NNAOIJPH@TIFF?5images?5are?5not?5supported?$AA@ 006494c0     SDL_Image:IMG_tif.obj
 0007:000046a4       ??_C@_0P@FHGLDPFN@file?5truncated?$AA@ 006494e4     SDL_Image:IMG_pnm.obj
 0007:000046b8       ??_C@_0BH@FHENGGAM@unsupported?5PNM?5format?$AA@ 006494f8     SDL_Image:IMG_pnm.obj
 0007:000046d4       ??_C@_0CG@CJFJBLKE@Unable?5to?5read?5image?5width?5and?5h@ 00649514     SDL_Image:IMG_pnm.obj
 0007:00004704       ??_C@_0BM@MHFAGJLI@Error?5reading?5the?5PNG?5file?4?$AA@ 00649544     SDL_Image:IMG_png.obj
 0007:00004728       ??_C@_0CP@IPNJEHJH@Couldn?8t?5create?5image?5informatio@ 00649568     SDL_Image:IMG_png.obj
 0007:00004760       ??_C@_0DO@OMKLMDMH@Couldn?8t?5allocate?5memory?5for?5PNG@ 006495a0     SDL_Image:IMG_png.obj
 0007:000047ac       ??_C@_05FBEGEHED@1?42?41?$AA@ 006495ec     SDL_Image:IMG_png.obj
 0007:000047b4       ??_C@_0CH@KFGHGLLJ@bytes?5per?5line?5is?5too?5large?5?$CIcor@ 006495f4     SDL_Image:IMG_pcx.obj
 0007:000047e4       ??_C@_0BH@EEOEOKIC@unsupported?5PCX?5format?$AA@ 00649624     SDL_Image:IMG_pcx.obj
 0007:00004800       ??_C@_04ILDFLNLJ@ILBM?$AA@ 00649640     SDL_Image:IMG_lbm.obj
 0007:00004808       ??_C@_04NNBFGNKO@PBM?5?$AA@ 00649648     SDL_Image:IMG_lbm.obj
 0007:00004810       ??_C@_04HPGCGPG@FORM?$AA@  00649650     SDL_Image:IMG_lbm.obj
 0007:00004818       ??_C@_0BJ@MIFFGNKI@error?5reading?5BODY?5chunk?$AA@ 00649658     SDL_Image:IMG_lbm.obj
 0007:00004838       ??_C@_0CG@OOFMAKCI@no?5enough?5memory?5for?5temporary?5b@ 00649678     SDL_Image:IMG_lbm.obj
 0007:00004868       ??_C@_0BJ@NCIABHJJ@error?5reading?5CAMG?5chunk?$AA@ 006496a8     SDL_Image:IMG_lbm.obj
 0007:00004888       ??_C@_04MCFMNCHC@CAMG?$AA@ 006496c8     SDL_Image:IMG_lbm.obj
 0007:00004890       ??_C@_0BJ@FIPGDMDB@error?5reading?5CMAP?5chunk?$AA@ 006496d0     SDL_Image:IMG_lbm.obj
 0007:000048b0       ??_C@_04IEBDBADI@CMAP?$AA@ 006496f0     SDL_Image:IMG_lbm.obj
 0007:000048b8       ??_C@_0BJ@MNCKGKHL@error?5reading?5BMHD?5chunk?$AA@ 006496f8     SDL_Image:IMG_lbm.obj
 0007:000048d8       ??_C@_04JIAMNFFC@BMHD?$AA@ 00649718     SDL_Image:IMG_lbm.obj
 0007:000048e0       ??_C@_04MEHDIIKB@BODY?$AA@ 00649720     SDL_Image:IMG_lbm.obj
 0007:000048e8       ??_C@_0BC@FDGLBBLM@not?5a?5IFF?5picture?$AA@ 00649728     SDL_Image:IMG_lbm.obj
 0007:00004900       ??_C@_0P@FFPMLBBC@not?5a?5IFF?5file?$AA@ 00649740     SDL_Image:IMG_lbm.obj
 0007:00004914       ??_C@_0BN@HGLNFECC@error?5reading?5IFF?5chunk?5size?$AA@ 00649754     SDL_Image:IMG_lbm.obj
 0007:00004938       ??_C@_0BI@GKBDBIO@error?5reading?5IFF?5chunk?$AA@ 00649778     SDL_Image:IMG_lbm.obj
 0007:00004954       ??_C@_0BD@EHGALHOF@JPEG?5loading?5error?$AA@ 00649794     SDL_Image:IMG_jpg.obj
 0007:0000496c       ??_C@_03LMHIHEFE@89a?$AA@  006497ac     SDL_Image:IMG_gif.obj
 0007:00004970       ??_C@_03LGOGFJFO@87a?$AA@  006497b0     SDL_Image:IMG_gif.obj
 0007:00004974       ??_C@_0BN@INCEKHE@error?5reading?5local?5colormap?$AA@ 006497b4     SDL_Image:IMG_gif.obj
 0007:00004998       ??_C@_0CE@MLKHMBKB@couldn?8t?5read?5left?1top?1width?1hei@ 006497d8     SDL_Image:IMG_gif.obj
 0007:000049c4       ??_C@_0CM@FGBFGBBH@EOF?5?1?5read?5error?5on?5extention?5fu@ 00649804     SDL_Image:IMG_gif.obj
 0007:000049f8       ??_C@_0BO@DCICCHCJ@only?5?$CFd?5image?$CFs?5found?5in?5file?$AA@ 00649838     SDL_Image:IMG_gif.obj
 0007:00004a1c       ??_C@_0BP@DKFLKNKF@EOF?5?1?5read?5error?5on?5image?5data?$AA@ 0064985c     SDL_Image:IMG_gif.obj
 0007:00004a44       ??_C@_0BO@MACPBNFI@error?5reading?5global?5colormap?$AA@ 00649884     SDL_Image:IMG_gif.obj
 0007:00004a68       ??_C@_0CB@BMJIDJKL@failed?5to?5read?5screen?5descriptor@ 006498a8     SDL_Image:IMG_gif.obj
 0007:00004a90       ??_C@_0CH@CIBONIJM@bad?5version?5number?0?5not?5?887a?8?5or@ 006498d0     SDL_Image:IMG_gif.obj
 0007:00004ac0       ??_C@_0P@EEBOHICM@not?5a?5GIF?5file?$AA@ 00649900     SDL_Image:IMG_gif.obj
 0007:00004ad4       ??_C@_0BL@NDOPGIK@error?5reading?5magic?5number?$AA@ 00649914     SDL_Image:IMG_gif.obj
 0007:00004af4       ??_C@_0N@HHGGMAJN@bad?5colormap?$AA@ 00649934     SDL_Image:IMG_gif.obj
 0007:00004b04       ??_C@_0BB@NAKAPAGA@UNKNOWN?5?$CI0x?$CF02x?$CJ?$AA@ 00649944     SDL_Image:IMG_gif.obj
 0007:00004b18       ??_C@_0BK@BNFCMJLK@Graphic?5Control?5Extension?$AA@ 00649958     SDL_Image:IMG_gif.obj
 0007:00004b38       ??_C@_0BC@BOCDNECF@Comment?5Extension?$AA@ 00649978     SDL_Image:IMG_gif.obj
 0007:00004b50       ??_C@_0BG@DOJIEFBK@Application?5Extension?$AA@ 00649990     SDL_Image:IMG_gif.obj
 0007:00004b6c       ??_C@_0BF@IGADJLIK@Plain?5Text?5Extension?$AA@ 006499ac     SDL_Image:IMG_gif.obj
 0007:00004b88       ??_C@_0BE@CODANBMG@error?5reading?5image?$AA@ 006499c8     SDL_Image:IMG_gif.obj
 0007:00004ba0       ??_C@_0BP@BJABAKBD@circular?5table?5entry?5BIG?5ERROR?$AA@ 006499e0     SDL_Image:IMG_gif.obj
 0007:00004bc8       ??_C@_0BL@ODDPPHHK@ran?5off?5the?5end?5of?5my?5bits?$AA@ 00649a08     SDL_Image:IMG_gif.obj
 0007:00004be8       ??_C@_02DGHHEOAL@BM?$AA@   00649a28     SDL_Image:IMG_bmp.obj
 0007:00004bec       ??_C@_0BH@MBEMJCJD@Error?5reading?5from?5BMP?$AA@ 00649a2c     SDL_Image:IMG_bmp.obj
 0007:00004c08       ??_C@_0BP@KFCLDKFK@File?5is?5not?5a?5Windows?5BMP?5file?$AA@ 00649a48     SDL_Image:IMG_bmp.obj
 0007:00004c30       ??_C@_0BH@NBIJDGAG@Error?5reading?5from?5ICO?$AA@ 00649a70     SDL_Image:IMG_bmp.obj
 0007:00004c4c       ??_C@_0CD@ICGJBLPD@Compressed?5ICO?5files?5not?5support@ 00649a8c     SDL_Image:IMG_bmp.obj
 0007:00004c78       ??_C@_0CE@DBFCBAGH@ICO?5file?5with?5unsupported?5bit?5co@ 00649ab8     SDL_Image:IMG_bmp.obj
 0007:00004ca4       ??_C@_0BO@OGOABEOI@Unsupported?5ICO?5bitmap?5format?$AA@ 00649ae4     SDL_Image:IMG_bmp.obj
 0007:00004cc8       ??_C@_0BO@GNNOBKIB@File?5is?5not?5a?5Windows?5?$CFs?5file?$AA@ 00649b08     SDL_Image:IMG_bmp.obj
 0007:00004cec       ??_C@_0BH@PPFAMBMI@Unsupported?5TGA?5format?$AA@ 00649b2c     SDL_Image:IMG_tga.obj
 0007:00004d08       ??_C@_0BH@NCPBFLFJ@Error?5reading?5TGA?5data?$AA@ 00649b48     SDL_Image:IMG_tga.obj
 0007:00004d28       _jpeg_std_message_table    00649b68     SDL_Image:jerror.obj
 0007:00004f80       ??_C@_0CL@OCGBAKPF@Application?5transferred?5too?5many@ 00649dc0     SDL_Image:jerror.obj
 0007:00004fb4       ??_C@_0CL@BAKCGOKJ@Invalid?5SOS?5parameters?5for?5seque@ 00649df4     SDL_Image:jerror.obj
 0007:00004fe8       ??_C@_0DI@NFMBADOH@Corrupt?5JPEG?5data?3?5found?5marker?5@ 00649e28     SDL_Image:jerror.obj
 0007:0000502c       ??_C@_0BL@DPFPFMLM@Premature?5end?5of?5JPEG?5file?$AA@ 00649e6c     SDL_Image:jerror.obj
 0007:0000504c       ??_C@_0CO@ODCCEDLN@Warning?3?5unknown?5JFIF?5revision?5n@ 00649e8c     SDL_Image:jerror.obj
 0007:00005084       ??_C@_0CE@PBLDOPKB@Corrupt?5JPEG?5data?3?5bad?5Huffman?5c@ 00649ec4     SDL_Image:jerror.obj
 0007:000050b0       ??_C@_0DB@PGMEPGHN@Corrupt?5JPEG?5data?3?5premature?5end@ 00649ef0     SDL_Image:jerror.obj
 0007:000050ec       ??_C@_0DM@PCOGCKJB@Corrupt?5JPEG?5data?3?5?$CFu?5extraneous@ 00649f2c     SDL_Image:jerror.obj
 0007:00005138       ??_C@_0EC@CBCJOINE@Inconsistent?5progression?5sequenc@ 00649f78     SDL_Image:jerror.obj
 0007:00005188       ??_C@_0CG@KEGHCDOM@Unknown?5Adobe?5color?5transform?5co@ 00649fc8     SDL_Image:jerror.obj
 0007:000051b8       ??_C@_0BH@LJLGPEFF@Obtained?5XMS?5handle?5?$CFu?$AA@ 00649ff8     SDL_Image:jerror.obj
 0007:000051d4       ??_C@_0BE@FOGGKKAO@Freed?5XMS?5handle?5?$CFu?$AA@ 0064a014     SDL_Image:jerror.obj
 0007:000051ec       ??_C@_0DE@EEJCDLOO@Unrecognized?5component?5IDs?5?$CFd?5?$CFd@ 0064a02c     SDL_Image:jerror.obj
 0007:0000522c       ??_C@_0DG@FCFDGNHE@JFIF?5extension?5marker?3?5RGB?5thumb@ 0064a06c     SDL_Image:jerror.obj
 0007:0000526c       ??_C@_0DK@JGAPDCJL@JFIF?5extension?5marker?3?5palette?5t@ 0064a0ac     SDL_Image:jerror.obj
 0007:000052b8       ??_C@_0EC@ELDEPOJP@JFIF?5extension?5marker?3?5JPEG?9comp@ 0064a0f8     SDL_Image:jerror.obj
 0007:00005308       ??_C@_0BJ@GOCABEP@Opened?5temporary?5file?5?$CFs?$AA@ 0064a148     SDL_Image:jerror.obj
 0007:00005328       ??_C@_0BJ@KDCGAOJB@Closed?5temporary?5file?5?$CFs?$AA@ 0064a168     SDL_Image:jerror.obj
 0007:00005348       ??_C@_0BN@GAMIJLDC@?5?5Ss?$DN?$CFd?0?5Se?$DN?$CFd?0?5Ah?$DN?$CFd?0?5Al?$DN?$CFd?$AA@ 0064a188     SDL_Image:jerror.obj
 0007:0000536c       ??_C@_0BO@CDEKFGLC@?5?5?5?5Component?5?$CFd?3?5dc?$DN?$CFd?5ac?$DN?$CFd?$AA@ 0064a1ac     SDL_Image:jerror.obj
 0007:00005390       ??_C@_0BN@BLOOHNC@Start?5Of?5Scan?3?5?$CFd?5components?$AA@ 0064a1d0     SDL_Image:jerror.obj
 0007:000053b4       ??_C@_0P@JLCHJELA@Start?5of?5Image?$AA@ 0064a1f4     SDL_Image:jerror.obj
 0007:000053c8       ??_C@_0BP@EDCAMHHE@?5?5?5?5Component?5?$CFd?3?5?$CFdhx?$CFdv?5q?$DN?$CFd?$AA@ 0064a208     SDL_Image:jerror.obj
 0007:000053f0       ??_C@_0DK@DMINKOGN@Start?5Of?5Frame?50x?$CF02x?3?5width?$DN?$CFu?0@ 0064a230     SDL_Image:jerror.obj
 0007:00005438       ??_C@_0DJ@PCBCLFML@Smoothing?5not?5supported?5with?5non@ 0064a278     SDL_Image:jerror.obj
 0007:0000547c       ??_C@_05LLAPAOG@RST?$CFd?$AA@ 0064a2bc     SDL_Image:jerror.obj
 0007:00005484       ??_C@_0CF@NIMOLBCP@At?5marker?50x?$CF02x?0?5recovery?5actio@ 0064a2c4     SDL_Image:jerror.obj
 0007:000054b0       ??_C@_0CE@FDPBEAOO@Selected?5?$CFd?5colors?5for?5quantizat@ 0064a2f0     SDL_Image:jerror.obj
 0007:000054dc       ??_C@_0BI@NEIBNACE@Quantizing?5to?5?$CFd?5colors?$AA@ 0064a31c     SDL_Image:jerror.obj
 0007:000054f8       ??_C@_0CD@CNNAOOFA@Quantizing?5to?5?$CFd?5?$DN?5?$CFd?$CK?$CFd?$CK?$CFd?5colo@ 0064a338     SDL_Image:jerror.obj
 0007:00005524       ??_C@_0CI@GHPOCOCL@?5?5?5?5?5?5?5?5?$CF4u?5?$CF4u?5?$CF4u?5?$CF4u?5?$CF4u?5?$CF4u?5@ 0064a364     SDL_Image:jerror.obj
 0007:00005554       ??_C@_0BJ@COPODLDN@Unexpected?5marker?50x?$CF02x?$AA@ 0064a394     SDL_Image:jerror.obj
 0007:00005574       ??_C@_0CH@EHHJCMGA@Miscellaneous?5marker?50x?$CF02x?0?5len@ 0064a3b4     SDL_Image:jerror.obj
 0007:000055a4       ??_C@_0CB@BADBMAAB@?5?5?5?5with?5?$CFd?5x?5?$CFd?5thumbnail?5image@ 0064a3e4     SDL_Image:jerror.obj
 0007:000055cc       ??_C@_0CO@KKPHGHBA@JFIF?5extension?5marker?3?5type?50x?$CF0@ 0064a40c     SDL_Image:jerror.obj
 0007:00005604       ??_C@_0DM@JLHNPIBE@Warning?3?5thumbnail?5image?5size?5do@ 0064a444     SDL_Image:jerror.obj
 0007:0000564c       ??_C@_0DF@LOKNABIG@JFIF?5APP0?5marker?3?5version?5?$CFd?4?$CF02@ 0064a48c     SDL_Image:jerror.obj
 0007:0000568c       ??_C@_0CI@FKGPAJC@?5?5?5?5?5?5?5?5?$CF3d?5?$CF3d?5?$CF3d?5?$CF3d?5?$CF3d?5?$CF3d?5@ 0064a4cc     SDL_Image:jerror.obj
 0007:000056bc       ??_C@_0N@HJHFKELG@End?5Of?5Image?$AA@ 0064a4fc     SDL_Image:jerror.obj
 0007:000056cc       ??_C@_0BH@GIPOLIGC@Obtained?5EMS?5handle?5?$CFu?$AA@ 0064a50c     SDL_Image:jerror.obj
 0007:000056e8       ??_C@_0BE@IPCOOGDJ@Freed?5EMS?5handle?5?$CFu?$AA@ 0064a528     SDL_Image:jerror.obj
 0007:00005700       ??_C@_0BL@EMFIKBEK@Define?5Restart?5Interval?5?$CFu?$AA@ 0064a540     SDL_Image:jerror.obj
 0007:00005720       ??_C@_0CL@KLDOJIKN@Define?5Quantization?5Table?5?$CFd?5?5pr@ 0064a560     SDL_Image:jerror.obj
 0007:00005754       ??_C@_0BM@MDIEILCE@Define?5Huffman?5Table?50x?$CF02x?$AA@ 0064a594     SDL_Image:jerror.obj
 0007:00005778       ??_C@_0CH@KIJGKPAA@Define?5Arithmetic?5Table?50x?$CF02x?3?5@ 0064a5b8     SDL_Image:jerror.obj
 0007:000057a8       ??_C@_0CM@CAEPHFAA@Unknown?5APP14?5marker?5?$CInot?5Adobe?$CJ@ 0064a5e8     SDL_Image:jerror.obj
 0007:000057dc       ??_C@_0CK@HCPFFNKJ@Unknown?5APP0?5marker?5?$CInot?5JFIF?$CJ?0?5@ 0064a61c     SDL_Image:jerror.obj
 0007:00005810       ??_C@_0EC@EHPKAOHA@Adobe?5APP14?5marker?3?5version?5?$CFd?0?5@ 0064a650     SDL_Image:jerror.obj
 0007:00005860       ??_C@_0DO@EGLODMBB@Caution?3?5quantization?5tables?5are@ 0064a6a0     SDL_Image:jerror.obj
 0007:000058ac       ??_C@_0BA@LIJBPGPA@6b?5?527?9Mar?91998?$AA@ 0064a6ec     SDL_Image:jerror.obj
 0007:000058c0       ??_C@_0CD@IMBKIDCD@Copyright?5?$CIC?$CJ?51998?0?5Thomas?5G?4?5La@ 0064a700     SDL_Image:jerror.obj
 0007:000058ec       ??_C@_0BE@FDPDCBIN@Write?5to?5XMS?5failed?$AA@ 0064a72c     SDL_Image:jerror.obj
 0007:00005904       ??_C@_0BF@EKLGFGNM@Read?5from?5XMS?5failed?$AA@ 0064a744     SDL_Image:jerror.obj
 0007:00005920       ??_C@_0CH@LJLHCCHC@Image?5too?5wide?5for?5this?5implemen@ 0064a760     SDL_Image:jerror.obj
 0007:00005950       ??_C@_0CD@GCLFJCHC@Virtual?5array?5controller?5messed?5@ 0064a790     SDL_Image:jerror.obj
 0007:0000597c       ??_C@_0BP@BPKOBOIP@Unsupported?5marker?5type?50x?$CF02x?$AA@ 0064a7bc     SDL_Image:jerror.obj
 0007:000059a4       ??_C@_0CK@EPADOAKC@Application?5transferred?5too?5few?5@ 0064a7e4     SDL_Image:jerror.obj
 0007:000059d8       ??_C@_0DG@KALDLIJB@Write?5failed?5on?5temporary?5file?5?9@ 0064a818     SDL_Image:jerror.obj
 0007:00005a18       ??_C@_0BO@GOBJOAAI@Seek?5failed?5on?5temporary?5file?$AA@ 0064a858     SDL_Image:jerror.obj
 0007:00005a3c       ??_C@_0BO@EEPJGHHI@Read?5failed?5on?5temporary?5file?$AA@ 0064a87c     SDL_Image:jerror.obj
 0007:00005a60       ??_C@_0CD@POKNOPOF@Failed?5to?5create?5temporary?5file?5@ 0064a8a0     SDL_Image:jerror.obj
 0007:00005a8c       ??_C@_0CM@HONLBDPH@Invalid?5JPEG?5file?5structure?3?5SOS@ 0064a8cc     SDL_Image:jerror.obj
 0007:00005ac0       ??_C@_0CN@HGJCMLNE@Invalid?5JPEG?5file?5structure?3?5two@ 0064a900     SDL_Image:jerror.obj
 0007:00005af8       ??_C@_0CK@HMKECJK@Unsupported?5JPEG?5process?3?5SOF?5ty@ 0064a938     SDL_Image:jerror.obj
 0007:00005b2c       ??_C@_0DA@GJIJGINK@Invalid?5JPEG?5file?5structure?3?5mis@ 0064a96c     SDL_Image:jerror.obj
 0007:00005b68       ??_C@_0CN@IHJJJAFJ@Invalid?5JPEG?5file?5structure?3?5two@ 0064a9a8     SDL_Image:jerror.obj
 0007:00005ba0       ??_C@_0CH@NHMNHHIB@Cannot?5quantize?5to?5more?5than?5?$CFd?5@ 0064a9e0     SDL_Image:jerror.obj
 0007:00005bd0       ??_C@_0CI@PLMPLCNO@Cannot?5quantize?5to?5fewer?5than?5?$CFd@ 0064aa10     SDL_Image:jerror.obj
 0007:00005c00       ??_C@_0CO@HPDBAEEA@Cannot?5quantize?5more?5than?5?$CFd?5col@ 0064aa40     SDL_Image:jerror.obj
 0007:00005c38       ??_C@_0BO@DJPLELIB@Insufficient?5memory?5?$CIcase?5?$CFd?$CJ?$AA@ 0064aa78     SDL_Image:jerror.obj
 0007:00005c5c       ??_C@_0CL@GNLFDFCL@Not?5a?5JPEG?5file?3?5starts?5with?50x?$CF@ 0064aa9c     SDL_Image:jerror.obj
 0007:00005c90       ??_C@_0CK@CCHKIENB@Quantization?5table?50x?$CF02x?5was?5no@ 0064aad0     SDL_Image:jerror.obj
 0007:00005cc4       ??_C@_0CC@BKPLBDLJ@JPEG?5datastream?5contains?5no?5imag@ 0064ab04     SDL_Image:jerror.obj
 0007:00005cec       ??_C@_0CF@BKANFCCL@Huffman?5table?50x?$CF02x?5was?5not?5def@ 0064ab2c     SDL_Image:jerror.obj
 0007:00005d18       ??_C@_0BM@HJHFKLAF@Backing?5store?5not?5supported?$AA@ 0064ab58     SDL_Image:jerror.obj
 0007:00005d3c       ??_C@_0CO@BEHINNOI@Requested?5feature?5was?5omitted?5at@ 0064ab7c     SDL_Image:jerror.obj
 0007:00005d74       ??_C@_0BE@EOAAHHJ@Not?5implemented?5yet?$AA@ 0064abb4     SDL_Image:jerror.obj
 0007:00005d8c       ??_C@_0CH@EFBBPPCK@Invalid?5color?5quantization?5mode?5@ 0064abcc     SDL_Image:jerror.obj
 0007:00005dbc       ??_C@_0CH@NIBDNILP@Scan?5script?5does?5not?5transmit?5al@ 0064abfc     SDL_Image:jerror.obj
 0007:00005dec       ??_C@_0DO@OPNPKGO@Cannot?5transcode?5due?5to?5multiple@ 0064ac2c     SDL_Image:jerror.obj
 0007:00005e38       ??_C@_0BM@KEKMMNGA@Premature?5end?5of?5input?5file?$AA@ 0064ac78     SDL_Image:jerror.obj
 0007:00005e5c       ??_C@_0BB@JJAIKFBB@Empty?5input?5file?$AA@ 0064ac9c     SDL_Image:jerror.obj
 0007:00005e70       ??_C@_0CP@EKFPGPNP@Maximum?5supported?5image?5dimensio@ 0064acb0     SDL_Image:jerror.obj
 0007:00005ea8       ??_C@_0CB@LFBMFPHI@Missing?5Huffman?5code?5table?5entry@ 0064ace8     SDL_Image:jerror.obj
 0007:00005ed0       ??_C@_0CB@LLDOGNPJ@Huffman?5code?5size?5table?5overflow@ 0064ad10     SDL_Image:jerror.obj
 0007:00005ef8       ??_C@_0CI@EKDDDHFF@Fractional?5sampling?5not?5implemen@ 0064ad38     SDL_Image:jerror.obj
 0007:00005f28       ??_C@_0CP@IDOBLGGD@Output?5file?5write?5error?5?9?9?9?5out?5@ 0064ad68     SDL_Image:jerror.obj
 0007:00005f60       ??_C@_0BG@BALCKDNL@Input?5file?5read?5error?$AA@ 0064ada0     SDL_Image:jerror.obj
 0007:00005f7c       ??_C@_0CB@DMGINPNE@Didn?8t?5expect?5more?5than?5one?5scan@ 0064adbc     SDL_Image:jerror.obj
 0007:00005fa4       ??_C@_0BE@DGJBKIEB@Write?5to?5EMS?5failed?$AA@ 0064ade4     SDL_Image:jerror.obj
 0007:00005fbc       ??_C@_0BF@CPNENPBA@Read?5from?5EMS?5failed?$AA@ 0064adfc     SDL_Image:jerror.obj
 0007:00005fd8       ??_C@_0CF@DAGGEAPM@Empty?5JPEG?5image?5?$CIDNL?5not?5suppor@ 0064ae18     SDL_Image:jerror.obj
 0007:00006004       ??_C@_0BD@DIMECAOP@Bogus?5DQT?5index?5?$CFd?$AA@ 0064ae44     SDL_Image:jerror.obj
 0007:0000601c       ??_C@_0BD@KJHFPHIC@Bogus?5DHT?5index?5?$CFd?$AA@ 0064ae5c     SDL_Image:jerror.obj
 0007:00006034       ??_C@_0BF@CLIOOJFM@Bogus?5DAC?5value?50x?$CFx?$AA@ 0064ae74     SDL_Image:jerror.obj
 0007:00006050       ??_C@_0BD@LDBBBMFL@Bogus?5DAC?5index?5?$CFd?$AA@ 0064ae90     SDL_Image:jerror.obj
 0007:00006068       ??_C@_0CF@JDLOPNGO@Unsupported?5color?5conversion?5req@ 0064aea8     SDL_Image:jerror.obj
 0007:00006094       ??_C@_0CG@BEBDNOCG@Too?5many?5color?5components?3?5?$CFd?0?5m@ 0064aed4     SDL_Image:jerror.obj
 0007:000060c4       ??_C@_0CF@LAEFHNAH@CCIR601?5sampling?5not?5implemented@ 0064af04     SDL_Image:jerror.obj
 0007:000060f0       ??_C@_0BM@PKHCPJDH@Suspension?5not?5allowed?5here?$AA@ 0064af30     SDL_Image:jerror.obj
 0007:00006114       ??_C@_0CL@JKHIPJLJ@Buffer?5passed?5to?5JPEG?5library?5is@ 0064af54     SDL_Image:jerror.obj
 0007:00006148       ??_C@_0BL@CBOEEPLK@Bogus?5virtual?5array?5access?$AA@ 0064af88     SDL_Image:jerror.obj
 0007:00006168       ??_C@_0EN@DKAEGIBH@JPEG?5parameter?5struct?5mismatch?3?5@ 0064afa8     SDL_Image:jerror.obj
 0007:000061c4       ??_C@_0CK@BAMFIBMM@Improper?5call?5to?5JPEG?5library?5in@ 0064b004     SDL_Image:jerror.obj
 0007:000061f8       ??_C@_0CA@MJDDICLK@Invalid?5scan?5script?5at?5entry?5?$CFd?$AA@ 0064b038     SDL_Image:jerror.obj
 0007:00006220       ??_C@_0BH@HMMHPOPE@Bogus?5sampling?5factors?$AA@ 0064b060     SDL_Image:jerror.obj
 0007:0000623c       ??_C@_0DH@HIKEGPKP@Invalid?5progressive?5parameters?5a@ 0064b07c     SDL_Image:jerror.obj
 0007:00006280       ??_C@_0DH@LNGGEGOL@Invalid?5progressive?5parameters?5S@ 0064b0c0     SDL_Image:jerror.obj
 0007:000062c4       ??_C@_0CD@LDBDNLHK@Unsupported?5JPEG?5data?5precision?5@ 0064b104     SDL_Image:jerror.obj
 0007:000062f0       ??_C@_0BM@OEMICEFD@Invalid?5memory?5pool?5code?5?$CFd?$AA@ 0064b130     SDL_Image:jerror.obj
 0007:00006314       ??_C@_0DA@HLEOHNPA@Sampling?5factors?5too?5large?5for?5i@ 0064b154     SDL_Image:jerror.obj
 0007:00006350       ??_C@_0DN@ELFKFKL@Wrong?5JPEG?5library?5version?3?5libr@ 0064b190     SDL_Image:jerror.obj
 0007:0000639c       ??_C@_0BE@OGLAEMOG@Bogus?5marker?5length?$AA@ 0064b1dc     SDL_Image:jerror.obj
 0007:000063b4       ??_C@_0BG@NEGIHEMC@Bogus?5JPEG?5colorspace?$AA@ 0064b1f4     SDL_Image:jerror.obj
 0007:000063d0       ??_C@_0BH@BGDIGLHC@Bogus?5input?5colorspace?$AA@ 0064b210     SDL_Image:jerror.obj
 0007:000063ec       ??_C@_0BP@EOFJNLFD@Bogus?5Huffman?5table?5definition?$AA@ 0064b22c     SDL_Image:jerror.obj
 0007:00006414       ??_C@_0CI@MBJANLAP@IDCT?5output?5block?5size?5?$CFd?5not?5su@ 0064b254     SDL_Image:jerror.obj
 0007:00006444       ??_C@_0BN@OJEJKKDL@DCT?5coefficient?5out?5of?5range?$AA@ 0064b284     SDL_Image:jerror.obj
 0007:00006468       ??_C@_0BP@ONFLCDHG@Invalid?5component?5ID?5?$CFd?5in?5SOS?$AA@ 0064b2a8     SDL_Image:jerror.obj
 0007:00006490       ??_C@_0BK@DKALDNKG@Bogus?5buffer?5control?5mode?$AA@ 0064b2d0     SDL_Image:jerror.obj
 0007:000064b0       ??_C@_0CF@DENLILGA@MAX_ALLOC_CHUNK?5is?5wrong?0?5please@ 0064b2f0     SDL_Image:jerror.obj
 0007:000064dc       ??_C@_0CA@FDMPGPNI@ALIGN_TYPE?5is?5wrong?0?5please?5fix?$AA@ 0064b31c     SDL_Image:jerror.obj
 0007:00006504       ??_C@_0DJ@KONAFFHE@Sorry?0?5there?5are?5legal?5restricti@ 0064b344     SDL_Image:jerror.obj
 0007:00006548       ??_C@_0BG@MIBALFBH@Bogus?5message?5code?5?$CFd?$AA@ 0064b388     SDL_Image:jerror.obj
 0007:00006564       ??_C@_03OFAPEBGM@?$CFs?6?$AA@ 0064b3a4     SDL_Image:jerror.obj
 0007:00006568       ??_C@_05CFPGMOJO@jcr2?6?$AA@ 0064b3a8     SDL_Image:jdapimin.obj
 0007:00006570       ??_C@_05CHLAHAMH@jcr1?6?$AA@ 0064b3b0     SDL_Image:jdapimin.obj
 0007:00006578       ??_C@_04FOCGKALP@jp1?6?$AA@ 0064b3b8     SDL_Image:jdapimin.obj
 0007:00006580       ??_C@_0L@LCMKPPCK@jci1case3?6?$AA@ 0064b3c0     SDL_Image:jdapimin.obj
 0007:00006590       ??_C@_0L@LDAIJFBN@jci1case2?6?$AA@ 0064b3d0     SDL_Image:jdapimin.obj
 0007:000065a0       ??_C@_04JOCCHLKJ@JM3?6?$AA@ 0064b3e0     SDL_Image:jdmaster.obj
 0007:000065a8       ??_C@_04JPOABBJO@JM2?6?$AA@ 0064b3e8     SDL_Image:jdmaster.obj
 0007:000065b0       ??_C@_04JNKGKPMH@JM1?6?$AA@ 0064b3f0     SDL_Image:jdmaster.obj
 0007:000065b8       _jpeg_natural_order        0064b3f8     SDL_Image:jutils.obj
 0007:00006ac0       __real@c004e7ae914d6fca    0064b900     SDL_Image:jidctflt.obj
 0007:00006ad0       __real@3ff1517a7bc720bb    0064b910     SDL_Image:jidctflt.obj
 0007:00006ae0       __real@3ffd906bcf310028    0064b920     SDL_Image:jidctflt.obj
 0007:00006af0       __real@3ff6a09e6665983e    0064b930     SDL_Image:jidctflt.obj
 0007:00006afc       ??_C@_0BP@NHKOPJGC@Main?5thread?5should?5not?5return?4?$AA@ 0064b93c     xapilibd:xapi0.obj
 0007:00006b24       ??_C@_0DG@PHDIMHJL@FileTimeToSystemTime?$CI?$CJ?5invalid?5p@ 0064b964     xapilibd:datetime.obj
 0007:00006b64       ??_C@_04FPBBGJEM@XAPI?$AA@ 0064b9a4     xapilibd:mmtimer.obj
 0007:00006b6c       ??_C@_0DE@GPPDGFLD@XapiMmTimerThread?5woke?5for?5unexp@ 0064b9ac     xapilibd:mmtimer.obj
 0007:00006bac       ??_C@_0BP@IDHFLKAP@XapiMmTimerThreadState?5?$CB?$DN?5NULL?$AA@ 0064b9ec     xapilibd:mmtimer.obj
 0007:00006bd4       ??_C@_0CI@CADINDLG@d?3?2xbox?2private?2ntos?2xapi?2k32?2mm@ 0064ba14     xapilibd:mmtimer.obj
 0007:00006c04       ??_C@_0CF@JHMFFBGB@XapiMmTimerThread?5cannot?5be?5crea@ 0064ba44     xapilibd:mmtimer.obj
 0007:00006c30       ??_C@_0DM@HGKBMLFK@XSetProcessQuantumSize?$CI?$CJ?5invalid@ 0064ba70     xapilibd:thread.obj
 0007:00006c78       ??_C@_0DF@EEOMJCEI@Code?5?$CFx?5Addr?5?$CFp?6Info0?5?$CFp?5Info1?5?$CF@ 0064bab8     xapilibd:thread.obj
 0007:00006cb8       ??_C@_0DF@LMNAOJJG@Unhandled?5XAPI?5Exception?4?5Except@ 0064baf8     xapilibd:thread.obj
 0007:00006cf8       ??_C@_05MAJJAKPI@FALSE?$AA@ 0064bb38     xapilibd:thread.obj
 0007:00006d00       ??_C@_0BP@LKJJFLJB@?$CI?$CIULONG_PTR?$CJTlsData?5?$CG?515?$CJ?5?$DN?$DN?50?$AA@ 0064bb40     xapilibd:thread.obj
 0007:00006d28       ??_C@_0HK@PFJOJBEK@?$CIULONG_PTR?$CJKeGetCurrentThread?$CI?$CJ?9@ 0064bb68     xapilibd:thread.obj
 0007:00006dbc       ??_C@_0BO@EIJBBOPN@KeGetCurrentThread?$CI?$CJ?9?$DOTlsData?$AA@ 0064bbfc     xapilibd:thread.obj
 0007:00006de0       ??_C@_0CE@KKOENIAD@KeGetCurrentIrql?$CI?$CJ?5?$DN?$DN?5PASSIVE_LE@ 0064bc20     xapilibd:thread.obj
 0007:00006e0c       ??_C@_0CH@ICEBFGGA@d?3?2xbox?2private?2ntos?2xapi?2k32?2th@ 0064bc4c     xapilibd:thread.obj
 0007:00006e50       ??_C@_0DE@NPEFFNNG@SetFilePointer?$CI?$CJ?5?9?5invalid?5param@ 0064bc90     xapilibd:filehops.obj
 0007:00006e90       ??_C@_0DG@IMLIKBFK@SetFilePointerEx?$CI?$CJ?5?9?5invalid?5par@ 0064bcd0     xapilibd:filehops.obj
 0007:00006ed0       ??_C@_0CD@LFDIGKDL@?2Device?2Harddisk0?2partition1?2UDA@ 0064bd10     xapilibd:xapiinit.obj
 0007:00006efc       ??_C@_06JOLOLLFF@?2?$DP?$DP?2U?3?$AA@ 0064bd3c     xapilibd:xapiinit.obj
 0007:00006f04       ??_C@_0CD@HOGELJJO@?2Device?2Harddisk0?2partition1?2TDA@ 0064bd44     xapilibd:xapiinit.obj
 0007:00006f30       ??_C@_06JPHMNBGC@?2?$DP?$DP?2T?3?$AA@ 0064bd70     xapilibd:xapiinit.obj
 0007:00006f38       ??_C@_0BO@GJJLMLHN@?2Device?2Harddisk0?2partition1?2?$AA@ 0064bd78     xapilibd:xapiinit.obj
 0007:00006f5c       ??_C@_0P@DOJDIGAH@?2Device?2CdRom0?$AA@ 0064bd9c     xapilibd:xapiinit.obj
 0007:00006f70       ??_C@_06IDFKHCBC@?2?$DP?$DP?2D?3?$AA@ 0064bdb0     xapilibd:xapiinit.obj
 0007:00007084       ??_C@_0DF@DPDPGHII@XapiCopySectionToFile?$CI?$CJ?5failed?5t@ 0064bec4     xapilibd:xapiinit.obj
 0007:000070c4       ??_C@_0DA@GIIMBON@XapiCopySectionToFile?$CI?$CJ?5failed?5t@ 0064bf04     xapilibd:xapiinit.obj
 0007:00007100       ??_C@_0EJ@HBALNMNC@?$CIINVALID_HANDLE_VALUE?5?$CB?$DN?5Section@ 0064bf40     xapilibd:xapiinit.obj
 0007:00007158       ??_C@_0CJ@HHLCMLCE@d?3?2xbox?2private?2ntos?2xapi?2dll?2xa@ 0064bf98     xapilibd:xapiinit.obj
 0007:00007190       ??_C@_0EF@CHJEJEDG@XapiMapLetterToDirectory?$CI?$CJ?3?5IoCr@ 0064bfd0     xapilibd:xapiinit.obj
 0007:000071e8       ??_C@_0ED@BOBMKJHB@XapiMapLetterToDirectory?$CI?$CJ?3?5NtCr@ 0064c028     xapilibd:xapiinit.obj
 0007:00007238       ??_C@_0DI@KMHOEMGJ@XapiMapLetterToDirectory?$CI?$CJ?5faile@ 0064c078     xapilibd:xapiinit.obj
 0007:0000727c       ??_C@_1CA@NCOAEKIF@?$AA?$CF?$AAl?$AAc?$AA?$CF?$AAl?$AAs?$AA?$CF?$AAl?$AAc?$AA?$CF?$AAl?$AAs?$AA?$CF?$AAl?$AAs?$AA?$AA@ 0064c0bc     xapilibd:xapiinit.obj
 0007:000072a4       ??_C@_0DL@MEJNHMHG@XapiMapLetterToDirectory?$CI?$CJ?5faile@ 0064c0e4     xapilibd:xapiinit.obj
 0007:000072ec       ??_C@_09ECGHCENE@$$XSIMAGE?$AA@ 0064c12c     xapilibd:xapiinit.obj
 0007:000072f8       ??_C@_09IHMABKFK@$$XTIMAGE?$AA@ 0064c138     xapilibd:xapiinit.obj
 0007:00007304       ??_C@_08BBCMAOON@$$XTINFO?$AA@ 0064c144     xapilibd:xapiinit.obj
 0007:00007310       ??_C@_0FB@BCNNCEEM@pcPathString?9?$DOLength?5?$DM?5?$CIsizeof?$CIs@ 0064c150     xapilibd:xapiinit.obj
 0007:00007374       ??_C@_0CH@IAPCLBGA@ocslen?$CIpcszTitleId?$CJ?5?$DM?5CCHMAX_HEX@ 0064c1b4     xapilibd:xapiinit.obj
 0007:000073a8       ??_C@_0ED@DIOIHJHC@XapiMapLetterToDirectory?$CI?$CJ?3?5NtCr@ 0064c1e8     xapilibd:xapiinit.obj
 0007:000073f8       ??_C@_0CN@EIFJOCAO@pcDriveString?5?$CG?$CG?5pcPathString?5?$CG?$CG@ 0064c238     xapilibd:xapiinit.obj
 0007:00007430       ??_C@_05CLMJGDKL@?$CF08lx?$AA@ 0064c270     xapilibd:xapiinit.obj
 0007:00007438       ??_C@_0EG@GBDPGOLP@Go?5to?5the?5Xbox?5dashboard?5to?5chan@ 0064c278     xapilibd:xapiinit.obj
 0007:00007490       ??_C@_0EG@NIOPNNHN@The?5box?8s?5parental?5control?5setti@ 0064c2d0     xapilibd:xapiinit.obj
 0007:000074e4       ??_C@_0CJ@EAOFBIJH@Could?5not?5set?5up?5per?9title?5drive@ 0064c324     xapilibd:xapiinit.obj
 0007:00007518       ??_C@_0EB@JMJDPHK@The?5D?3?5drive?5is?5not?5assigned?5to?5@ 0064c358     xapilibd:xapiinit.obj
 0007:00007568       ??_C@_0BP@HJNNPHEH@Runtime?5initialization?5failed?$CB?$AA@ 0064c3a8     xapilibd:xapi0dat.obj
 0007:00007590       ??_C@_0CJ@LKEJDNHL@GetLastError?$CI?$CJ?5called?5on?5non?9XAP@ 0064c3d0     xapilibd:error.obj
 0007:000075c4       ??_C@_0CJ@PGAEELGF@SetLastError?$CI?$CJ?5called?5on?5non?9XAP@ 0064c404     xapilibd:error.obj
 0007:000075f8       __tls_used                 0064c438     xapilibd:xapitls.obj
 0007:00007614       ??_C@_03MOAJGPLE@EXT?$AA@  0064c454     xapilibd:outputdebugstringa.obj
 0007:00007618       ??_C@_03NGKCLAHG@ENT?$AA@  0064c458     xapilibd:outputdebugstringa.obj
 0007:0000761c       ??_C@_03COLIFOAO@TRC?$AA@  0064c45c     xapilibd:outputdebugstringa.obj
 0007:00007620       ??_C@_03IJKDIPKN@WRN?$AA@  0064c460     xapilibd:outputdebugstringa.obj
 0007:00007624       ??_C@_03JFMEENOE@ERR?$AA@  0064c464     xapilibd:outputdebugstringa.obj
 0007:00007628       ??_C@_03HDCFNBIM@?$CB?$CB?$CB?$AA@ 0064c468     xapilibd:outputdebugstringa.obj
 0007:0000762c       ??_C@_0M@NFKDGPJN@?$CFs?$FL?$CFs?$FN?3?5?$CFs?6?$AA@ 0064c46c     xapilibd:outputdebugstringa.obj
 0007:0000763c       ??_C@_03BBKEAIF@?$DP?$DP?$DP?$AA@ 0064c47c     xapilibd:outputdebugstringa.obj
 0007:00007640       ??_C@_03DLFMDLOA@XID?$AA@  0064c480     xapilibd:xid.obj
 0007:00007644       ??_C@_0BE@BLJBMLCB@XGetSectionHandle?$CI?$CJ?$AA@ 0064c484     xapilibd:xemodule.obj
 0007:0000765c       ??_C@_0BI@LAANAGMH@?$CIlpSectionName?5?$CB?$DN?5NULL?$CJ?$AA@ 0064c49c     xapilibd:xemodule.obj
 0007:00007678       ??_C@_0BH@HJNFEGOO@XLoadSectionByHandle?$CI?$CJ?$AA@ 0064c4b8     xapilibd:xemodule.obj
 0007:00007694       ??_C@_0BP@LLLPAIIN@IsValidSectionHandle?$CIhSection?$CJ?$AA@ 0064c4d4     xapilibd:xemodule.obj
 0007:000076bc       ??_C@_0BH@JEPMFONA@XFreeSectionByHandle?$CI?$CJ?$AA@ 0064c4fc     xapilibd:xemodule.obj
 0007:000076d8       ??_C@_0P@OHOFGEIK@XLoadSection?$CI?$CJ?$AA@ 0064c518     xapilibd:xemodule.obj
 0007:000076ec       ??_C@_0P@EHBJMAK@XFreeSection?$CI?$CJ?$AA@ 0064c52c     xapilibd:xemodule.obj
 0007:00007700       ??_C@_0BC@GLPLFFLH@XGetSectionSize?$CI?$CJ?$AA@ 0064c540     xapilibd:xemodule.obj
 0007:0000777c       ??_C@_0BG@IJGLKIIJ@?$CIpLaunchData?5?$CB?$DN?5NULL?$CJ?$AA@ 0064c5bc     xapilibd:launch.obj
 0007:00007798       ??_C@_0BM@JKMADBPG@?$CIpdwLaunchDataType?5?$CB?$DN?5NULL?$CJ?$AA@ 0064c5d8     xapilibd:launch.obj
 0007:000077bc       ??_C@_0BB@JNNDADEN@XGetLaunchInfo?$CI?$CJ?$AA@ 0064c5fc     xapilibd:launch.obj
 0007:000077d0       ??_C@_0DH@HFKEEJIB@I?1O?5still?5in?5progress?5when?5XLaun@ 0064c610     xapilibd:launch.obj
 0007:00007814       ??_C@_06JHKEECDB@?2?$DP?$DP?2Y?3?$AA@ 0064c654     xapilibd:bootutil.obj
 0007:0000781c       ??_C@_08FCIBIDEF@t?3?2$u?2?$CFs?$AA@ 0064c65c     xapilibd:bootutil.obj
 0007:00007828       ??_C@_0DB@GMMDDJIH@XoRebootToUpdaterWhilePreserving@ 0064c668     xapilibd:bootutil.obj
 0007:00007864       ??_C@_0M@GFMLFEEL@pld?5?$CB?$DN?5NULL?$AA@ 0064c6a4     xapilibd:bootutil.obj
 0007:00007874       ??_C@_0BK@ENOGALDK@pdwLaunchInfoType?5?$CB?$DN?5NULL?$AA@ 0064c6b4     xapilibd:bootutil.obj
 0007:00007894       ??_C@_0BG@GLAEPMBI@pszDDrivePath?5?$CB?$DN?5NULL?$AA@ 0064c6d4     xapilibd:bootutil.obj
 0007:000078b0       ??_C@_0CD@IOCGNFCL@XoUpdateGetSavedDataFromLaunchPa@ 0064c6f0     xapilibd:bootutil.obj
 0007:000078dc       ??_C@_0CN@JAKJCFPA@XapipUpdateGetCurrentDDriveMappi@ 0064c71c     xapilibd:bootutil.obj
 0007:00007914       ??_C@_0BG@CPFCBBFC@cchDDrivePathMax?5?$CB?$DN?50?$AA@ 0064c754     xapilibd:bootutil.obj
 0007:00007930       ??_C@_0BH@KDFBGHBM@pochDDrivePath?5?$CB?$DN?5NULL?$AA@ 0064c770     xapilibd:bootutil.obj
 0007:0000794c       ??_C@_0CD@GIPPAKCA@XapipUpdateGetCurrentDDriveMappi@ 0064c78c     xapilibd:bootutil.obj
 0007:00007978       ??_C@_0EK@NHENDNJH@XapipUpdateSaveDDriveMappingToLa@ 0064c7b8     xapilibd:bootutil.obj
 0007:000079d0       ??_C@_0L@DDCDFMAM@cbSize?5?$DO?51?$AA@ 0064c810     xapilibd:bootutil.obj
 0007:000079e0       ??_C@_0N@DGAKMIII@pldp?5?$CB?$DN?5NULL?$AA@ 0064c820     xapilibd:bootutil.obj
 0007:000079f0       ??_C@_0BH@OBHLFBFH@LaunchDataPage?5?$CB?$DN?5NULL?$AA@ 0064c830     xapilibd:bootutil.obj
 0007:00007a0c       ??_C@_0CJ@GLDOHMEK@XapipUpdateSaveDDriveMappingToLa@ 0064c84c     xapilibd:bootutil.obj
 0007:00007a40       ??_C@_0CK@OIFONPIN@Not?5rebooting?5because?5of?5invalid@ 0064c880     xapilibd:bootutil.obj
 0007:00007a74       ??_C@_0BC@CBJDGNLL@New?5Version?3?5?$CF08x?$AA@ 0064c8b4     xapilibd:bootutil.obj
 0007:00007a8c       ??_C@_0DO@BCEHCLIP@Not?5rebooting?5because?5TID?5mismat@ 0064c8cc     xapilibd:bootutil.obj
 0007:00007ad8       ??_C@_0DN@ECIKMIED@Not?5rebooting?5because?5none?5of?5th@ 0064c918     xapilibd:bootutil.obj
 0007:00007b24       ??_C@_0BO@LALMEMNC@Found?5matching?5version?50x?$CF08x?$AA@ 0064c964     xapilibd:bootutil.obj
 0007:00007b48       ??_C@_08HKJMGJLA@XAPIBOOT?$AA@ 0064c988     xapilibd:bootutil.obj
 0007:00007b54       ??_C@_0DA@KCJAHKLG@Not?5rebooting?5because?5the?5digest@ 0064c994     xapilibd:bootutil.obj
 0007:00007b90       ??_C@_0DM@NKOGHFMG@Not?5rebooting?5because?5metadata?5f@ 0064c9d0     xapilibd:bootutil.obj
 0007:00007bd8       ??_C@_0BA@PHOGFBJD@contentmeta?4xbx?$AA@ 0064ca18     xapilibd:bootutil.obj
 0007:00007bec       ??_C@_0BK@LBCAJEOL@y?3?2XODash?2xonlinedash?4xbe?$AA@ 0064ca2c     xapilibd:bootutil.obj
 0007:00007c0c       ??_C@_0BA@BCGJNLEA@y?3?2xboxdash?4xbe?$AA@ 0064ca4c     xapilibd:bootutil.obj
 0007:00007c20       ??_C@_0BC@EHJNPMDK@d?3?2dashupdate?4xbe?$AA@ 0064ca60     xapilibd:bootutil.obj
 0007:00007c38       ??_C@_0EI@KNNNODGJ@Reboot?3?5Invalid?5target?5drive?$CB?5Su@ 0064ca78     xapilibd:bootutil.obj
 0007:00007c90       ??_C@_0CG@HDPBGALD@Reboot?3?5Reboot?5path?5too?5long?5for@ 0064cad0     xapilibd:bootutil.obj
 0007:00007cc0       ??_C@_04HDOCAJNK@?$CFs?$CFs?$AA@ 0064cb00     xapilibd:bootutil.obj
 0007:00007cc8       ??_C@_0CI@KPGMBHI@Reboot?3?5Reboot?5path?5too?5long?5for@ 0064cb08     xapilibd:bootutil.obj
 0007:00007cf8       ??_C@_0CB@EMPJKFGP@Remapping?5D?3?5Drive?5as?5preserved?6@ 0064cb38     xapilibd:bootutil.obj
 0007:00007d20       ??_C@_0BM@ECLLEPGB@Not?5rebooting?0?5unknown?5path?$AA@ 0064cb60     xapilibd:bootutil.obj
 0007:00007d44       ??_C@_0CH@KEIJJJMB@Not?5rebooting?5because?5already?5in@ 0064cb84     xapilibd:bootutil.obj
 0007:00007d74       ??_C@_0O@MENAEJCL@$u?5path?3?5?$DM?$CFs?$DO?$AA@ 0064cbb4     xapilibd:bootutil.obj
 0007:00007d84       ??_C@_0BN@JIPLDMEN@XapipUpdateRebootIfNecessary?$AA@ 0064cbc4     xapilibd:bootutil.obj
 0007:00007da8       ??_C@_0BD@IKFMBKKK@?$CI?$CIint?$CJcbSize?5?$DO?$DN?50?$CJ?$AA@ 0064cbe8     xapilibd:bootutil.obj
 0007:00007dc0       ??_C@_0CM@OBDNEFI@?2Device?2Harddisk0?2Partition1?2TDA@ 0064cc00     xapilibd:bootutil.obj
 0007:00007df4       ??_C@_0DH@KKDAPMDJ@XapipUpdateRebootIfNecessary?3?5Ca@ 0064cc34     xapilibd:bootutil.obj
 0007:00007e38       ??_C@_0CA@JHJCPDEM@Rebooting?5into?5?$CFs?0?5LDT?$DN?$CF08x?5?4?4?4?$AA@ 0064cc78     xapilibd:bootutil.obj
 0007:00007e60       ??_C@_0CC@HHFHNBLA@Error?3?5Launch?5path?5too?5long?3?5?$CFs?$CF@ 0064cca0     xapilibd:bootutil.obj
 0007:00007e88       ??_C@_06EJNCFCDC@t?3?2$u?2?$AA@ 0064ccc8     xapilibd:bootutil.obj
 0007:00007fa0       _XapiHardDisk              0064cde0     xapilibd:pathmisc.obj
 0007:00007fe0       ??_C@_0BN@OGMPKPAN@?2Device?2Harddisk0?2partition0?$AA@ 0064ce20     xapilibd:pathmisc.obj
 0007:00008004       ??_C@_06JGGGCIAG@?2?$DP?$DP?2X?3?$AA@ 0064ce44     xapilibd:pathmisc.obj
 0007:0000800c       ??_C@_06JNDKGPDL@?2?$DP?$DP?2W?3?$AA@ 0064ce4c     xapilibd:pathmisc.obj
 0007:00008014       ??_C@_06IOMNPHME@?2?$DP?$DP?2N?3?$AA@ 0064ce54     xapilibd:pathmisc.obj
 0007:0000801c       ??_C@_06JFOCPMGI@?2?$DP?$DP?2Z?3?$AA@ 0064ce5c     xapilibd:pathmisc.obj
 0007:00008024       ??_C@_0BF@JNEAPIHB@GetDiskFreeSpaceEx?$CI?$CJ?$AA@ 0064ce64     xapilibd:pathmisc.obj
 0007:00008040       ??_C@_0CC@IKLINLNN@ARGUMENT_PRESENT?$CIlpDirectoryName@ 0064ce80     xapilibd:pathmisc.obj
 0007:00008068       ??_C@_0BH@EHODPLBH@GetVolumeInformation?$CI?$CJ?$AA@ 0064cea8     xapilibd:pathmisc.obj
 0007:00008084       ??_C@_0CB@JJPBEHFI@ARGUMENT_PRESENT?$CIlpRootPathName?$CJ@ 0064cec4     xapilibd:pathmisc.obj
 0007:000080cc       ??_C@_0BL@FIOONCHD@iPrevDBIndex?5?$DM?5iMaxDBIndex?$AA@ 0064cf0c     xapilibd:pathmisc.obj
 0007:000080ec       ??_C@_0CD@NPFFBMGP@iPrevDBIndex?5?$DM?5CachePartitionCou@ 0064cf2c     xapilibd:pathmisc.obj
 0007:00008118       ??_C@_0BF@HJNDGBKN@nCachePartition?5?$CB?$DN?50?$AA@ 0064cf58     xapilibd:pathmisc.obj
 0007:00008134       ??_C@_0BI@BDDOPJHF@CachePartitionCount?5?$DO?50?$AA@ 0064cf74     xapilibd:pathmisc.obj
 0007:00008150       ??_C@_0CC@KKKBHGLD@pnCachePartition?5?$CG?$CG?5pfForceForma@ 0064cf90     xapilibd:pathmisc.obj
 0007:00008178       ??_C@_0CJ@IEJIAIGK@d?3?2xbox?2private?2ntos?2xapi?2k32?2pa@ 0064cfb8     xapilibd:pathmisc.obj
 0007:000081ac       ??_C@_0DN@MJKMKHNO@XMountUtilityDrive?$CI?$CJ?3?5Utility?5Dr@ 0064cfec     xapilibd:pathmisc.obj
 0007:000081f8       ??_C@_0DK@BAHDFIPD@XFormatUtilityDrive?$CI?$CJ?3?5Utility?5D@ 0064d038     xapilibd:pathmisc.obj
 0007:00008240       ??_C@_0DL@KOLBGCMH@iZPartitionIndex?5?$CB?$DN?5pCacheDB?$FLg_i@ 0064d080     xapilibd:pathmisc.obj
 0007:00008288       ??_C@_0EK@KDPAMFE@XMountSecondaryUtilityDrive?$CI?$CJ?3?5S@ 0064d0c8     xapilibd:pathmisc.obj
 0007:000082e0       ??_C@_0EK@INCPKFMD@XMountSecondaryUtilityDrive?$CI?$CJ?3?5P@ 0064d120     xapilibd:pathmisc.obj
 0007:00008338       ??_C@_0ED@MJJKNCLG@XSwapUtilityDrives?$CI?$CJ?3?5Secondary?5@ 0064d178     xapilibd:pathmisc.obj
 0007:00008388       ??_C@_0EB@MOOHBDCA@XSwapUtilityDrives?$CI?$CJ?3?5Primary?5Ut@ 0064d1c8     xapilibd:pathmisc.obj
 0007:000083d8       ??_C@_0DC@FMBJNKJE@OBJECT_NULL?5?$DN?$DN?5XapiMuInfo?4DriveW@ 0064d218     xapilibd:pathmisc.obj
 0007:00008414       ??_C@_07DGGEHABK@?2?$DP?$DP?2?$CFc?3?$AA@ 0064d254     xapilibd:pathmisc.obj
 0007:00008420       ??_C@_0DG@JADBOGPE@XMountAlternateTitle?$CI?$CJ?5invalid?5d@ 0064d260     xapilibd:pathmisc.obj
 0007:00008460       ??_C@_0BD@KDIELNEI@?$CIpchDrive?5?$CB?$DN?5NULL?$CJ?$AA@ 0064d2a0     xapilibd:pathmisc.obj
 0007:00008478       ??_C@_0BI@IBLHCDOH@?$CIlpRootPath?$FL3?$FN?5?$DN?$DN?5?8?20?8?$CJ?$AA@ 0064d2b8     xapilibd:pathmisc.obj
 0007:00008494       ??_C@_0BI@GLOCCHDD@?$CIlpRootPath?$FL2?$FN?5?$DN?$DN?5?8?2?2?8?$CJ?$AA@ 0064d2d4     xapilibd:pathmisc.obj
 0007:000084b0       ??_C@_0BH@IKEMDLNN@?$CIlpRootPath?$FL1?$FN?5?$DN?$DN?5?8?3?8?$CJ?$AA@ 0064d2f0     xapilibd:pathmisc.obj
 0007:000084cc       ??_C@_0BI@LMNNEAHC@?$CIlpRootPath?$FL0?$FN?5?$CB?$DN?5?8?20?8?$CJ?$AA@ 0064d30c     xapilibd:pathmisc.obj
 0007:000084e8       ??_C@_0BF@IMBJMEJF@?$CIlpRootPath?5?$CB?$DN?5NULL?$CJ?$AA@ 0064d328     xapilibd:pathmisc.obj
 0007:00008504       ??_C@_0DF@CDGNBNHO@XUnmountAlternateTitle?$CI?$CJ?5?9?5inval@ 0064d344     xapilibd:pathmisc.obj
 0007:00008548       ??_C@_0FH@ODEJOJLK@?$CI0?5?$CB?$DN?5NormalSizeInfo?4BytesPerSec@ 0064d388     xapilibd:pathmisc.obj
 0007:000085b0       ??_C@_0BG@MJMPAIIM@XGetDiskClusterSize?$CI?$CJ?$AA@ 0064d3f0     xapilibd:pathmisc.obj
 0007:000085cc       ??_C@_0CD@HHFEHLKH@0?5?$CB?$DN?5NormalSizeInfo?4BytesPerSect@ 0064d40c     xapilibd:pathmisc.obj
 0007:000085f8       ??_C@_0BF@NGAIGMJB@XGetDiskSectorSize?$CI?$CJ?$AA@ 0064d438     xapilibd:pathmisc.obj
 0007:00008614       ??_C@_0CP@JLNMLJJD@XMUNameFromDriveLetter?$CI?$CJ?5MU?5?$CFc?3?5@ 0064d454     xapilibd:pathmisc.obj
 0007:0000864c       ??_C@_0CI@CDFKIAGP@LocalAlloc?$CI?$CJ?5invalid?5parameter?5?$CI@ 0064d48c     xapilibd:xapiheap.obj
 0007:0000867c       ??_C@_0CK@DAJFENGH@LocalReAlloc?$CI?$CJ?5invalid?5parameter@ 0064d4bc     xapilibd:xapiheap.obj
 0007:000086b0       ??_C@_0CJ@FOEMNOKO@GlobalAlloc?$CI?$CJ?5invalid?5parameter?5@ 0064d4f0     xapilibd:xapiheap.obj
 0007:000086e4       ??_C@_0CL@GOKHKKIN@GlobalReAlloc?$CI?$CJ?5invalid?5paramete@ 0064d524     xapilibd:xapiheap.obj
 0007:00008718       _RtlpHeapHeaderFieldOffsets 0064d558     xapilibd:heap.obj
 0007:00008860       ??_C@_0BD@DLOLKPPE@Uncommitted?5Ranges?$AA@ 0064d6a0     xapilibd:heap.obj
 0007:00008878       ??_C@_0BD@LGNJFFBM@LookasideLockCount?$AA@ 0064d6b8     xapilibd:heap.obj
 0007:00008890       ??_C@_09PHPDJGKN@Lookaside?$AA@ 0064d6d0     xapilibd:heap.obj
 0007:0000889c       ??_C@_0N@EIHEKGHA@LockVariable?$AA@ 0064d6dc     xapilibd:heap.obj
 0007:000088ac       ??_C@_09NCNJPMEA@FreeLists?$AA@ 0064d6ec     xapilibd:heap.obj
 0007:000088b8       ??_C@_0BB@GKGFCBGK@PseudoTagEntries?$AA@ 0064d6f8     xapilibd:heap.obj
 0007:000088cc       ??_C@_09PJDCCKPM@Reserved1?$AA@ 0064d70c     xapilibd:heap.obj
 0007:000088d8       ??_C@_0BI@BLDENADN@AllocatorBackTraceIndex?$AA@ 0064d718     xapilibd:heap.obj
 0007:000088f4       ??_C@_0BI@KJIIBDJO@FreeListsInUseTerminate?$AA@ 0064d734     xapilibd:heap.obj
 0007:00008910       ??_C@_0P@BJKOHMIH@FreeListsInUse?$AA@ 0064d750     xapilibd:heap.obj
 0007:00008924       ??_C@_08ONJIMEGG@Segments?$AA@ 0064d764     xapilibd:heap.obj
 0007:00008930       ??_C@_0BE@OPMHDBHD@VirtualAllocdBlocks?$AA@ 0064d770     xapilibd:heap.obj
 0007:00008948       ??_C@_09JHFGEGIN@AlignMask?$AA@ 0064d788     xapilibd:heap.obj
 0007:00008954       ??_C@_0L@PMBPJEGA@AlignRound?$AA@ 0064d794     xapilibd:heap.obj
 0007:00008964       ??_C@_0BI@KIOFHGCO@UnusedUnCommittedRanges?$AA@ 0064d7a4     xapilibd:heap.obj
 0007:00008980       ??_C@_0M@CGNHBCCA@UCRSegments?$AA@ 0064d7c0     xapilibd:heap.obj
 0007:00008990       ??_C@_0L@PPENPPKI@TagEntries?$AA@ 0064d7d0     xapilibd:heap.obj
 0007:000089a0       ??_C@_0BA@OMHBDFIN@MaximumTagIndex?$AA@ 0064d7e0     xapilibd:heap.obj
 0007:000089b4       ??_C@_0BG@PMIEMADE@NextAvailableTagIndex?$AA@ 0064d7f4     xapilibd:heap.obj
 0007:000089d0       ??_C@_0BD@OHIKCJLG@HeaderValidateCopy?$AA@ 0064d810     xapilibd:heap.obj
 0007:000089e8       ??_C@_0BF@DGDEANDL@HeaderValidateLength?$AA@ 0064d828     xapilibd:heap.obj
 0007:00008a04       ??_C@_0BG@GBCAKBDD@ProcessHeapsListIndex?$AA@ 0064d844     xapilibd:heap.obj
 0007:00008a20       ??_C@_0BG@HJCIICPN@MaximumAllocationSize?$AA@ 0064d860     xapilibd:heap.obj
 0007:00008a3c       ??_C@_0O@POJGLEGF@TotalFreeSize?$AA@ 0064d87c     xapilibd:heap.obj
 0007:00008a4c       ??_C@_0BL@NFIJLEAJ@DeCommitTotalFreeThreshold?$AA@ 0064d88c     xapilibd:heap.obj
 0007:00008a6c       ??_C@_0BL@BPDEMIFC@DeCommitFreeBlockThreshold?$AA@ 0064d8ac     xapilibd:heap.obj
 0007:00008a8c       ??_C@_0O@CPHFHPH@SegmentCommit?$AA@ 0064d8cc     xapilibd:heap.obj
 0007:00008a9c       ??_C@_0P@KCAAENCL@SegmentReserve?$AA@ 0064d8dc     xapilibd:heap.obj
 0007:00008ab0       ??_C@_0BH@DPEGHHN@VirtualMemoryThreshold?$AA@ 0064d8f0     xapilibd:heap.obj
 0007:00008acc       ??_C@_0L@JMAFPJMA@ForceFlags?$AA@ 0064d90c     xapilibd:heap.obj
 0007:00008adc       ??_C@_05BOOEKJH@Flags?$AA@ 0064d91c     xapilibd:heap.obj
 0007:00008ae4       ??_C@_09GDNFOKKF@Signature?$AA@ 0064d924     xapilibd:heap.obj
 0007:00008af0       ??_C@_05HKHPEFOF@Entry?$AA@ 0064d930     xapilibd:heap.obj
 0007:00008af8       ??_C@_0CA@BOLLCLKO@d?3?2xbox?2private?2ntos?2rtl?2heap?4c?$AA@ 0064d938     xapilibd:heap.obj
 0007:00008b20       ??_C@_0CF@FOPNHIJF@EX?3?5Pageable?5code?5called?5at?5IRQL@ 0064d960     xapilibd:heap.obj
 0007:00008b6c       ??_C@_0CK@MIHOFKM@Abandoning?5uncommitted?5range?5?$CI?$CFx@ 0064d9ac     xapilibd:heap.obj
 0007:00008ba0       ??_C@_0DE@BIILMCNP@Heap?5missing?5last?5entry?5in?5commi@ 0064d9e0     xapilibd:heap.obj
 0007:00008be0       ??_C@_0DJ@IHPOEJKE@IsListEmpty?$CI?$CG?$CIHeap?$CJ?9?$DOFreeLists?$FL?5@ 0064da20     xapilibd:heap.obj
 0007:00008c24       ??_C@_0CJ@JBHGFDE@?$CKFreeSize?5?$DN?$DN?5NextFreeBlock?9?$DOPrev@ 0064da64     xapilibd:heap.obj
 0007:00008c58       ??_C@_0DG@JDGFBEPN@IsListEmpty?$CI?$CG?$CIHeap?$CJ?9?$DOFreeLists?$FL?5@ 0064da98     xapilibd:heap.obj
 0007:00008c98       ??_C@_0DO@BNEJAPBG@HEAP?3?5Free?5Heap?5block?5?$CFlx?5modifi@ 0064dad8     xapilibd:heap.obj
 0007:00008ce4       ??_C@_0DF@DNHFNDEP@IsListEmpty?$CI?$CG?$CIHeap?$CJ?9?$DOFreeLists?$FL?5@ 0064db24     xapilibd:heap.obj
 0007:00008d24       ??_C@_0DB@PNEIDBAO@?$CIHeap?$CJ?9?$DOu?4FreeListsInUseBytes?$FL?5_@ 0064db64     xapilibd:heap.obj
 0007:00008d60       ??_C@_0CM@KHOIOONG@FreeBlock?9?$DOPreviousSize?5?$DN?$DN?5FreeB@ 0064dba0     xapilibd:heap.obj
 0007:00008d94       ??_C@_0DI@IOJOLKOE@?$CI?$CIHeap?$CJ?9?$DOu?4FreeListsInUseBytes?$FL?5@ 0064dbd4     xapilibd:heap.obj
 0007:00008dd8       ??_C@_0CL@FNLDEIID@?$CIFreeBlock?$CJ?9?$DOSize?5?$DM?5HEAP_MAXIMUM@ 0064dc18     xapilibd:heap.obj
 0007:00008e0c       ??_C@_0DM@GBNBMGII@Heap?5block?5at?5?$CFp?5modified?5at?5?$CFp?5@ 0064dc4c     xapilibd:heap.obj
 0007:00008e54       ??_C@_01EEMJAFIK@?6?$AA@   0064dc94     xapilibd:heap.obj
 0007:00008e58       ??_C@_0P@MHFKLIEN@?0?5passed?5to?5?$CFs?$AA@ 0064dc98     xapilibd:heap.obj
 0007:00008e6c       ??_C@_0CG@EMFKJEHM@Invalid?5heap?5signature?5for?5heap?5@ 0064dcac     xapilibd:heap.obj
 0007:00008e9c       ??_C@_0DJ@DHGOHFOK@?5?5?5?5This?5is?5located?5in?5the?5?$CFs?5fi@ 0064dcdc     xapilibd:heap.obj
 0007:00008ee0       ??_C@_0DF@FINFDAGA@Heap?5?$CFx?5?9?5headers?5modified?5?$CI?$CFx?5i@ 0064dd20     xapilibd:heap.obj
 0007:00008f20       ??_C@_0EL@OONBJNNL@Heap?5Segment?5at?5?$CFlx?5contains?5inv@ 0064dd60     xapilibd:heap.obj
 0007:00008f80       ??_C@_0EL@INALGJAF@Heap?5block?5at?5?$CFlx?5does?5not?5match@ 0064ddc0     xapilibd:heap.obj
 0007:00008fdc       ??_C@_0DE@EKKACCJB@Heap?5block?5at?5?$CFlx?5has?5incorrect?5@ 0064de1c     xapilibd:heap.obj
 0007:0000901c       ??_C@_0DI@IGLJEBNA@Free?5Heap?5block?5?$CFlx?5modified?5at?5@ 0064de5c     xapilibd:heap.obj
 0007:00009060       ??_C@_0EI@PFDIKOJD@Heap?5entry?5?$CFlx?5has?5incorrect?5Pre@ 0064dea0     xapilibd:heap.obj
 0007:000090b8       ??_C@_0DG@LICIIDJH@Heap?5entry?5?$CFlx?5is?5beyond?5uncommi@ 0064def8     xapilibd:heap.obj
 0007:000090f8       ??_C@_0DF@DAGCJKPA@Heap?5block?5at?5?$CFlx?5is?5not?5last?5bl@ 0064df38     xapilibd:heap.obj
 0007:00009138       ??_C@_0EK@NMAELPFC@Heap?5Segment?5at?5?$CFlx?5contains?5inv@ 0064df78     xapilibd:heap.obj
 0007:00009190       ??_C@_0CN@KEJJKHIL@Invalid?5Address?5specified?5to?5?$CFs?$CI@ 0064dfd0     xapilibd:heap.obj
 0007:000091c8       ??_C@_0CN@PEABBGIH@Tag?5?$CF04x?5?$CI?$CFws?$CJ?5size?5incorrect?5?$CI?$CF@ 0064e008     xapilibd:heap.obj
 0007:00009200       ??_C@_0CO@PMMFOPBN@Pseudo?5Tag?5?$CF04x?5size?5incorrect?5?$CI@ 0064e040     xapilibd:heap.obj
 0007:00009238       ??_C@_0FL@KFNPEIMI@Total?5size?5of?5free?5blocks?5in?5are@ 0064e078     xapilibd:heap.obj
 0007:000092a8       ??_C@_0FE@NGCGCHAC@Number?5of?5free?5blocks?5in?5arena?5?$CI@ 0064e0e8     xapilibd:heap.obj
 0007:0000930c       ??_C@_0DF@PFKALPKH@Non?9Dedicated?5free?5list?5element?5@ 0064e14c     xapilibd:heap.obj
 0007:00009350       ??_C@_0EA@OAPLMGFO@Non?9Dedicated?5free?5list?5element?5@ 0064e190     xapilibd:heap.obj
 0007:0000939c       ??_C@_0DN@GBMNNHGG@Dedicated?5?$CI?$CF04x?$CJ?5free?5list?5eleme@ 0064e1dc     xapilibd:heap.obj
 0007:000093e8       ??_C@_0DH@BIDEJKAN@dedicated?5?$CI?$CF04x?$CJ?5free?5list?5eleme@ 0064e228     xapilibd:heap.obj
 0007:0000942c       ??_C@_0DK@BHJNCJDM@dedicated?5?$CI?$CF04x?$CJ?5free?5list?5non?9e@ 0064e26c     xapilibd:heap.obj
 0007:00009474       ??_C@_0DK@JACIBGGP@dedicated?5?$CI?$CF04x?$CJ?5free?5list?5empty@ 0064e2b4     xapilibd:heap.obj
 0007:000094bc       ??_C@_0M@PHEMKBEG@RtlWalkHeap?$AA@ 0064e2fc     xapilibd:heap.obj
 0007:000094e0       ??_C@_0M@DKBLBPDB@RtlLockHeap?$AA@ 0064e320     xapilibd:heap.obj
 0007:000094f0       ??_C@_0O@BAFDFOCI@RtlUnlockHeap?$AA@ 0064e330     xapilibd:heap.obj
 0007:00009500       ??_C@_0BA@EEJAMNOM@RtlValidateHeap?$AA@ 0064e340     xapilibd:heap.obj
 0007:00009534       ??_C@_0P@NCPMIHJ@RtlCompactHeap?$AA@ 0064e374     xapilibd:heap.obj
 0007:00009564       ??_C@_0CB@LKFMJIGD@Ignoring?5RtlDestroyHeap?$CI?5NULL?5?$CJ?6@ 0064e3a4     xapilibd:heap.obj
 0007:0000958c       ??_C@_0DH@KBFKIFLD@IsListEmpty?$CI?$CG?$CIHeap?$CJ?9?$DOFreeLists?$FL?5@ 0064e3cc     xapilibd:heap.obj
 0007:000095d0       ??_C@_0CJ@JNAGKIOI@?$CISplitBlock?$CJ?9?$DOSize?5?$DN?$DN?5?$CI?$CIUSHORT?$CJF@ 0064e410     xapilibd:heap.obj
 0007:00009604       ??_C@_0CM@GNGBJFLE@?$CISplitBlock?$CJ?9?$DOSize?5?$DM?5HEAP_MAXIMU@ 0064e444     xapilibd:heap.obj
 0007:00009638       ??_C@_0DD@HLNOINEF@?$CITrailingFreeBlock?$CJ?9?$DOSize?5?$DM?5HEAP@ 0064e478     xapilibd:heap.obj
 0007:00009678       ??_C@_0DA@LBOAAMKP@?$CITrailingFreeBlock?$CJ?9?$DOSize?5?$DN?$DN?5?$CITr@ 0064e4b8     xapilibd:heap.obj
 0007:000096b4       ??_C@_0DC@MIPIFJII@?$CILeadingFreeBlock?$CJ?9?$DOSize?5?$DM?5HEAP_@ 0064e4f4     xapilibd:heap.obj
 0007:000096f0       ??_C@_0CO@NLACNNMB@?$CILeadingFreeBlock?$CJ?9?$DOSize?5?$DN?$DN?5?$CILea@ 0064e530     xapilibd:heap.obj
 0007:00009728       ??_C@_0DA@MGMJLJDN@Failing?5creating?5uncommitted?5ran@ 0064e568     xapilibd:heap.obj
 0007:00009784       ??_C@_0DB@FAEAKCEK@Invalid?5flags?5?$CI?$CF08x?$CJ?5specified?5t@ 0064e5c4     xapilibd:heap.obj
 0007:000097ec       ??_C@_0DJ@COFILNG@?$CIBusyBlock?5?$CL?5FreeSize?$CJ?9?$DOPrevious@ 0064e62c     xapilibd:heap.obj
 0007:00009830       ??_C@_0DN@HPPLNFP@?$CI?$CIPHEAP_FREE_ENTRY?$CJBusyBlock?$CJ?9?$DOS@ 0064e670     xapilibd:heap.obj
 0007:0000987c       ??_C@_0DK@OPBFMPFJ@?$CI?$CIPHEAP_FREE_ENTRY?$CJBusyBlock?$CJ?9?$DOS@ 0064e6bc     xapilibd:heap.obj
 0007:000098e8       ??_C@_0FF@JLHJNOPA@?$CI?$CIPHEAP_ENTRY?$CJ?$CISplitBlock?$CJ?5?$CL?5?$CI?$CIU@ 0064e728     xapilibd:heap.obj
 0007:00009960       ??_C@_0GG@IFEMPPFL@?$CI?$CIPHEAP_ENTRY?$CJ?$CI?$CIPHEAP_FREE_ENTRY@ 0064e7a0     xapilibd:heap.obj
 0007:000099dc       ??_C@_0DK@DBNEJCPE@HEAP_MAXIMUM_FREELISTS?5?$DM?5Heap?9?$DOD@ 0064e81c     xapilibd:heap.obj
 0007:00009a24       ??_C@_0BO@DMNNLHON@Bad?5pointer?5in?5RtlFreeHeap?$CI?$CJ?6?$AA@ 0064e864     xapilibd:heap.obj
 0007:00009a64       ??_C@_0DM@CFAEKHBN@Unable?5to?5release?5memory?5at?5?$CFp?5f@ 0064e8a4     xapilibd:heap.obj
 0007:00009adc       ??_C@_0CF@OPOAAKHG@KeGetCurrentIrql?$CI?$CJ?5?$DN?$DN?5DISPATCH_L@ 0064e91c     xapilibd:xapiterm.obj
 0007:00009b08       ??_C@_0CJ@CBFNHIGP@d?3?2xbox?2private?2ntos?2xapi?2dll?2xa@ 0064e948     xapilibd:xapiterm.obj
 0007:00009b3c       ??_C@_0DB@BEAMJGFM@I?1O?5cannot?5be?5started?5after?5rebo@ 0064e97c     xapilibd:xapiterm.obj
 0007:00009b78       ??_C@_04FLBHAODA@OHCD?$AA@ 0064e9b8     xapilibd:ohcd.obj
 0007:00009b80       ??_C@_0DP@CALAOJLE@CreateFile?$CI?$CJ?5?9?5invalid?5parameter@ 0064e9c0     xapilibd:fileopcr.obj
 0007:00009cac       _XapipContentDirectoryTemplate 0064eaec     xapilibd:contsig.obj
 0007:00009cec       ??_C@_0DD@DIPOMPKG@XContentSignatureFileName?3?5direc@ 0064eb2c     xapilibd:contsig.obj
 0007:00009d2c       ??_C@_0CP@DKKAJKDG@XGetContentInstallLocation?$CI?$CJ?5inv@ 0064eb6c     xapilibd:contsig.obj
 0007:00009d64       ??_C@_0CO@JDGGCCIM@XInstallContentSignatures?$CI?$CJ?5inva@ 0064eba4     xapilibd:contsig.obj
 0007:00009d9c       ??_C@_0CJ@IEIFNPEP@XCreateContentSimple?$CI?$CJ?5invalid?5p@ 0064ebdc     xapilibd:contsig.obj
 0007:00009dd0       ??_C@_0CD@NBBCEICH@XRemoveContent?$CI?$CJ?5invalid?5paramet@ 0064ec10     xapilibd:contsig.obj
 0007:00009dfc       ??_C@_0CM@JEMFAJCB@XLocateSignatureByIndex?$CI?$CJ?5invali@ 0064ec3c     xapilibd:contsig.obj
 0007:00009e30       ??_C@_0CJ@FKILPKAA@XLocateNextSignature?$CI?$CJ?5invalid?5p@ 0064ec70     xapilibd:contsig.obj
 0007:00009e64       ??_C@_0CP@MDLPKJOJ@XCalculateContentSignature?$CI?$CJ?5inv@ 0064eca4     xapilibd:contsig.obj
 0007:00009e9c       ??_C@_0CO@JIABMDKJ@XLoadContentLiveSignature?$CI?$CJ?5inva@ 0064ecdc     xapilibd:contsig.obj
 0007:00009ed4       ??_C@_0CM@OAEPENAC@XCloseContentSignatures?$CI?$CJ?5invali@ 0064ed14     xapilibd:contsig.obj
 0007:00009f08       ??_C@_0EB@LJGMNFAB@XMemAlloc?$CI?$CJ?3?5dwAlignment?5must?5no@ 0064ed48     xapilibd:xmem.obj
 0007:00009f58       ??_C@_0EG@EMCKKIHP@XMemAlloc?$CI?$CJ?3?5dwHeapTracksAttribu@ 0064ed98     xapilibd:xmem.obj
 0007:00009fac       ??_C@_0DL@NCMFFMFD@StoredAttributes?4dwMemoryType?5?$DN?$DN@ 0064edec     xapilibd:xmem.obj
 0007:00009ff8       ??_C@_0EB@ICHFLBND@StoredAttributes?4dwMemoryProtect@ 0064ee38     xapilibd:xmem.obj
 0007:0000a048       ??_C@_0DJ@ONCCNOGN@StoredAttributes?4dwAlignment?5?$DN?$DN?5@ 0064ee88     xapilibd:xmem.obj
 0007:0000a08c       ??_C@_0DN@CNDPNPKF@StoredAttributes?4dwAllocatorId?5?$DN@ 0064eecc     xapilibd:xmem.obj
 0007:0000a0d8       ??_C@_0DJ@MBLICCAP@StoredAttributes?4dwFixedSize?5?$DN?$DN?5@ 0064ef18     xapilibd:xmem.obj
 0007:0000a11c       ??_C@_0DN@DFGBMBLN@StoredAttributes?4dwMustSucceed?5?$DN@ 0064ef5c     xapilibd:xmem.obj
 0007:0000a168       ??_C@_0EP@CCDAKDAJ@StoredAttributes?4dwHeapTracksAtt@ 0064efa8     xapilibd:xmem.obj
 0007:0000a1c8       ??_C@_0DL@LOMKDGBE@StoredAttributes?4dwObjectType?5?$DN?$DN@ 0064f008     xapilibd:xmem.obj
 0007:0000a210       ??_C@_08EPBDPDBC@XMemFree?$AA@ 0064f050     xapilibd:xmem.obj
 0007:0000a21c       ??_C@_0N@NIBDPAHF@pBaseAddress?$AA@ 0064f05c     xapilibd:xmem.obj
 0007:0000a22c       ??_C@_0BO@PGBGBHED@XMemFree?$CI?$CJ?3?5pAddress?5was?5NULL?$AA@ 0064f06c     xapilibd:xmem.obj
 0007:0000a250       ??_C@_0CF@KDKONCMK@d?3?2xbox?2private?2ntos?2xapi?2k32?2xm@ 0064f090     xapilibd:xmem.obj
 0007:0000a27c       ??_C@_0BC@IDGICDD@dwAllocAttributes?$AA@ 0064f0bc     xapilibd:xmem.obj
 0007:0000a294       ??_C@_0CK@GIPOCJNO@XMemFree?$CI?$CJ?5dwAllocAttributes?5can@ 0064f0d4     xapilibd:xmem.obj
 0007:0000a308       ??_C@_0BB@HBMEJKEL@?$CIShactx?5?$CB?$DN?5NULL?$CJ?$AA@ 0064f148     xapilibd:xcalcsig.obj
 0007:0000a31c       ??_C@_0BJ@LAFOKAAB@?$CIcbKey?5?$DO?$DN?5sizeof?$CIDWORD?$CJ?$CJ?$AA@ 0064f15c     xapilibd:xcalcsig.obj
 0007:0000a33c       ??_C@_0BA@FBFKFFLL@?$CIpbKey?5?$CB?$DN?5NULL?$CJ?$AA@ 0064f17c     xapilibd:xcalcsig.obj
 0007:0000a350       ??_C@_0BD@IAODMCFE@XShaHmacInitialize?$AA@ 0064f190     xapilibd:xcalcsig.obj
 0007:0000a368       ??_C@_0N@EOLCIMHG@?$CIcbData?5?$DO?50?$CJ?$AA@ 0064f1a8     xapilibd:xcalcsig.obj
 0007:0000a378       ??_C@_0BB@NEBMHBGC@?$CIpbData?5?$CB?$DN?5NULL?$CJ?$AA@ 0064f1b8     xapilibd:xcalcsig.obj
 0007:0000a38c       ??_C@_0P@FGCKIDDO@XShaHmacUpdate?$AA@ 0064f1cc     xapilibd:xcalcsig.obj
 0007:0000a3a0       ??_C@_0BB@KIIEHKJJ@?$CIpbHmac?5?$CB?$DN?5NULL?$CJ?$AA@ 0064f1e0     xapilibd:xcalcsig.obj
 0007:0000a3b4       ??_C@_0BF@NOKENBGL@XShaHmacComputeFinal?$AA@ 0064f1f4     xapilibd:xcalcsig.obj
 0007:0000a3d0       ??_C@_0CM@OPGJPOOP@err?5?$DN?$DN?5ERROR_SUCCESS?5?$CG?$CG?5cb?5?$DN?$DN?5si@ 0064f210     xapilibd:xcalcsig.obj
 0007:0000a404       ??_C@_0CJ@PPDHCAC@d?3?2xbox?2private?2ntos?2xapi?2k32?2xc@ 0064f244     xapilibd:xcalcsig.obj
 0007:0000a438       ??_C@_0CG@HDMGNDJA@i?5?$DM?5XBEIMAGE_ALTERNATE_TITLE_ID_@ 0064f278     xapilibd:xcalcsig.obj
 0007:0000a468       ??_C@_0CF@KPGNJPGN@XapipCalculateSaveGameSignatureB@ 0064f2a8     xapilibd:xcalcsig.obj
 0007:0000a494       ??_C@_0DB@ODIIOLII@?$CI?$CIdwFlags?5?$CG?5?$CI?$HOXCALCSIG_FLAG_NON_@ 0064f2d4     xapilibd:xcalcsig.obj
 0007:0000a4d0       ??_C@_0CG@EJOBKKGJ@XapipCalculateSaveGameSignatureU@ 0064f310     xapilibd:xcalcsig.obj
 0007:0000a500       ??_C@_0DL@ILPCBEFH@?$CI?$CIpCalcSig?9?$DOdwFlags?5?$CG?5XCALCSIG_F@ 0064f340     xapilibd:xcalcsig.obj
 0007:0000a548       ??_C@_0CD@NHKKDIJC@XapipCalculateSaveGameSignatureE@ 0064f388     xapilibd:xcalcsig.obj
 0007:0000a578       ??_C@_0GM@HKDPECO@XCalculateSignatureGetSize?3?5Unkn@ 0064f3b8     xapilibd:xcalcsig.obj
 0007:0000a600       ??_C@_0GL@DIBGNIJE@XCalculateSignatureBegin?3?5Invali@ 0064f440     xapilibd:xcalcsig.obj
 0007:0000a680       ??_C@_0DI@PBDPMOJ@You?5are?5required?5to?5link?5XONLINE@ 0064f4c0     xapilibd:xcalcsig.obj
 0007:0000a6c4       ??_C@_0BI@PADFJCHE@g_pfnxcsbOnline?5?$CB?$DN?5NULL?$AA@ 0064f504     xapilibd:xcalcsig.obj
 0007:0000a6e0       ??_C@_0GM@MFJONGHG@XCalculateSignatureUpdate?3?5Inval@ 0064f520     xapilibd:xcalcsig.obj
 0007:0000a764       ??_C@_0BI@OLOLFEJP@g_pfnxcsuOnline?5?$CB?$DN?5NULL?$AA@ 0064f5a4     xapilibd:xcalcsig.obj
 0007:0000a780       ??_C@_0CE@BADNCPHJ@?$CI?$CIpbData?5?$CB?$DN?5NULL?$CJ?5?$HM?$HM?5?$CIcbData?5?$DN?$DN?5@ 0064f5c0     xapilibd:xcalcsig.obj
 0007:0000a7ac       ??_C@_0BD@MOJJBMDO@?$CIhCalcSig?5?$CB?$DN?5NULL?$CJ?$AA@ 0064f5ec     xapilibd:xcalcsig.obj
 0007:0000a7c4       ??_C@_0BK@NNHICHIA@XCalculateSignatureUpdate?$AA@ 0064f604     xapilibd:xcalcsig.obj
 0007:0000a7e8       ??_C@_0GJ@CNMHEMD@XCalculateSignatureEnd?3?5Invalid?5@ 0064f628     xapilibd:xcalcsig.obj
 0007:0000a868       ??_C@_0BI@NMMGKAB@g_pfnxcseOnline?5?$CB?$DN?5NULL?$AA@ 0064f6a8     xapilibd:xcalcsig.obj
 0007:0000a884       ??_C@_0BH@PIGJMAPB@XCalculateSignatureEnd?$AA@ 0064f6c4     xapilibd:xcalcsig.obj
 0007:0000a8a0       ??_C@_07EOBCLJJ@pszPath?$AA@ 0064f6e0     xapilibd:xclndrv.obj
 0007:0000a8ac       ??_C@_0CI@DJCJNLJF@d?3?2xbox?2private?2ntos?2xapi?2k32?2xc@ 0064f6ec     xapilibd:xclndrv.obj
 0007:0000a8dc       ??_C@_0BG@LLHPGPNL@GetFileAttributesEx?$CI?$CJ?$AA@ 0064f71c     xapilibd:filemisc.obj
 0007:0000a8f8       ??_C@_0FA@ILHHAIFA@?$CIfInfoLevelId?5?$DM?5GetFileExMaxInfo@ 0064f738     xapilibd:filemisc.obj
 0007:0000a958       ??_C@_0CG@HLNJBDNE@?$CIBYTE_OFFSET?$CIulPhysicalAddress?$CJ?5@ 0064f798     xapilibd:physical.obj
 0007:0000a988       ??_C@_0FK@ECGJHBJM@?$CI?$CIflProtect?5?$CG?5?$HO?$CIPAGE_READWRITE?5?$HM@ 0064f7c8     xapilibd:physical.obj
 0007:0000a9f4       ??_C@_0CJ@LFPJDDCF@?$CI?$CIulAlignment?5?$CG?5?$CIulAlignment?5?9?51@ 0064f834     xapilibd:physical.obj
 0007:0000aa28       ??_C@_0O@OFCKANBD@?$CIdwSize?5?$CB?$DN?50?$CJ?$AA@ 0064f868     xapilibd:physical.obj
 0007:0000aa38       ??_C@_0BB@PCLPAAEF@XPhysicalAlloc?$CI?$CJ?$AA@ 0064f878     xapilibd:physical.obj
 0007:0000aa4c       ??_C@_0BA@NKPHFOEN@XPhysicalSize?$CI?$CJ?$AA@ 0064f88c     xapilibd:physical.obj
 0007:0000aa60       ??_C@_0CF@ELFJGKHK@?$CI?$CIULONG_PTR?$CJlpAddress?5?$DO?$DN?50x80000@ 0064f8a0     xapilibd:physical.obj
 0007:0000aa90       ??_C@_0FN@JPDCFPBJ@?$CI?$CIflNewProtect?5?$CG?5?$HO?$CIPAGE_READWRIT@ 0064f8d0     xapilibd:physical.obj
 0007:0000ab00       ??_C@_0BD@HIDDCAJE@XPhysicalProtect?$CI?$CJ?$AA@ 0064f940     xapilibd:physical.obj
 0007:0000ab18       ??_C@_0BA@GELABPCP@XPhysicalFree?$CI?$CJ?$AA@ 0064f958     xapilibd:physical.obj
 0007:0000ab40       __real@40490fdb            0064f980     d3d8d:d3dbase.obj
 0007:0000ab44       __real@3727c5ac            0064f984     d3d8d:d3dbase.obj
 0007:0000ab48       __real@4f800000            0064f988     d3d8d:d3dbase.obj
 0007:0000ab4c       __real@3f7fbe77            0064f98c     d3d8d:d3dbase.obj
 0007:0000ab50       __real@3fd532617c1bda51    0064f990     d3d8d:d3dbase.obj
 0007:0000ab60       __real@3fc597f62b6ae7d5    0064f9a0     d3d8d:d3dbase.obj
 0007:0000ab70       __real@3fe2c56d5cfaacda    0064f9b0     d3d8d:d3dbase.obj
 0007:0000ab80       __real@3fd3212d77318fc5    0064f9c0     d3d8d:d3dbase.obj
 0007:0000ab90       __real@3fbd4fdf3b645a1d    0064f9d0     d3d8d:d3dbase.obj
 0007:0000aba0       __real@3fb4e3bcd35a8588    0064f9e0     d3d8d:d3dbase.obj
 0007:0000abb0       __real@3fdac56d5cfaacda    0064f9f0     d3d8d:d3dbase.obj
 0007:0000abc0       __real@4060000000000000    0064fa00     d3d8d:d3dbase.obj
 0007:0000abd0       __real@41f0000000000000    0064fa10     d3d8d:d3dbase.obj
 0007:0000abdc       __real@40800000            0064fa1c     d3d8d:present.obj
 0007:0000abe0       __real@40000000            0064fa20     d3d8d:present.obj
 0007:0000abe8       __real@46293e5939a08cea    0064fa28     d3d8d:clear.obj
 0007:0000abf8       __real@407fff0000000000    0064fa38     d3d8d:clear.obj
 0007:0000ac04       __real@4b7fffff            0064fa44     d3d8d:clear.obj
 0007:0000ac08       __real@477fff00            0064fa48     d3d8d:clear.obj
 0007:0000ac0c       __real@bf000000            0064fa4c     d3d8d:state.obj
 0007:0000ac10       __real@41000000            0064fa50     d3d8d:state.obj
 0007:0000ac14       __real@3e800000            0064fa54     d3d8d:state.obj
 0007:0000ac18       __real@408a7fac            0064fa58     d3d8d:math.obj
 0007:0000ac1c       __real@c0851592            0064fa5c     d3d8d:math.obj
 0007:0000ac20       __real@40400000            0064fa60     d3d8d:math.obj
 0007:0000ac24       __real@40b00000            0064fa64     d3d8d:mpcore.obj
 0007:0000ac28       __real@3b808081            0064fa68     d3d8d:lazy.obj
 0007:0000ac2c       __real@3a83126f            0064fa6c     d3d8d:lazy.obj
 0007:0000ac30       __real@43800000            0064fa70     d3d8d:lazy.obj
 0007:0000ac34       __real@be596d0b            0064fa74     d3d8d:lazy.obj
 0007:0000ac38       __real@bdb8aa0a            0064fa78     d3d8d:lazy.obj
 0007:0000ac50       __real@41200000            0064fa90     d3d8d:rdi.obj
 0007:0000ac58       __real@3fa999999999999a    0064fa98     d3dx8d:pngrtran.obj
 0007:0000ac68       __real@40efffe000000000    0064faa8     d3dx8d:pngrtran.obj
 0007:0000ac78       __real@3ef0001000100010    0064fab8     d3dx8d:pngrtran.obj
 0007:0000ac88       __real@3f70000000000000    0064fac8     d3dx8d:pngrtran.obj
 0007:0000ac98       __real@406fe00000000000    0064fad8     d3dx8d:pngrtran.obj
 0007:0000aca8       __real@3f70101010101010    0064fae8     d3dx8d:pngrtran.obj
 0007:0000acb8       __real@3eb0c6f7a0b5ed8d    0064faf8     d3dx8d:pngrtran.obj
 0007:0000acc8       __real@407f400000000000    0064fb08     d3dx8d:pngrutil.obj
 0007:0000acd8       __real@40e631e000000000    0064fb18     d3dx8d:pngrutil.obj
 0007:0000ace4       __real@47c35000            0064fb24     d3dx8d:pngrutil.obj
 0007:0000ace8       __real@3fdd1758e0000000    0064fb28     d3dx8d:pngset.obj
 0007:0000acf4       ??_7CRefCount@DirectSound@@6B@ 0064fb34     dsoundd:dsapi.obj
 0007:0000ad08       __real@44fa0000            0064fb48     dsoundd:dsapi.obj
 0007:0000ad0c       __real@37aec33e            0064fb4c     dsoundd:dsapi.obj
 0007:0000ad10       __real@c160000000000000    0064fb50     dsoundd:dsapi.obj
 0007:0000ad20       __real@4160000000000000    0064fb60     dsoundd:dsapi.obj
 0007:0000ad30       __real@bff0000000000000    0064fb70     dsoundd:dsapi.obj
 0007:0000ad40       __real@c000000000000000    0064fb80     dsoundd:dsapi.obj
 0007:0000ad50       __real@3ef5d867c3ece2a5    0064fb90     dsoundd:dsapi.obj
 0007:0000ad60       __real@3f9999999999999a    0064fba0     dsoundd:dsapi.obj
 0007:0000ad70       __real@4024000000000000    0064fbb0     dsoundd:dsapi.obj
 0007:0000ad7c       ??_7CDirectSoundSettings@DirectSound@@6B@ 0064fbbc     dsoundd:dsapi.obj
 0007:0000ad90       ??_7CDirectSoundVoiceSettings@DirectSound@@6B@ 0064fbd0     dsoundd:dsapi.obj
 0007:0000ada4       ??_7CDirectSoundVoice@DirectSound@@6B@ 0064fbe4     dsoundd:dsapi.obj
 0007:0000adb8       ??_7?$CValidObject@$0EEFDEOEE@@DirectSound@@6B@ 0064fbf8     dsoundd:dsapi.obj
 0007:0000adbc       ??_7?$CValidObject@$0EEFDECCA@@DirectSound@@6B@ 0064fbfc     dsoundd:dsapi.obj
 0007:0000adc0       ??_7?$CValidObject@$0EEFDFDCA@@DirectSound@@6B@ 0064fc00     dsoundd:dsapi.obj
 0007:0000adc4       ??_7CDirectSound@DirectSound@@6BCRefCount@1@@ 0064fc04     dsoundd:dsapi.obj
 0007:0000add8       ??_7CDirectSound@DirectSound@@6B?$CValidObject@$0EEFDEOEE@@1@@ 0064fc18     dsoundd:dsapi.obj
 0007:0000addc       __real@447a0000            0064fc1c     dsoundd:dsapi.obj
 0007:0000ade0       __real@7f7fffff            0064fc20     dsoundd:dsapi.obj
 0007:0000ade4       __real@00800000            0064fc24     dsoundd:dsapi.obj
 0007:0000ade8       __real@021fffd9            0064fc28     dsoundd:dsapi.obj
 0007:0000adec       ??_7CDirectSoundBuffer@DirectSound@@6B?$CValidObject@$0EEFDECCA@@1@@ 0064fc2c     dsoundd:dsapi.obj
 0007:0000adf0       ??_7CDirectSoundBuffer@DirectSound@@6BCDirectSoundVoice@1@@ 0064fc30     dsoundd:dsapi.obj
 0007:0000ae04       ??_7CDirectSoundStream@DirectSound@@6BCDirectSoundVoice@1@@ 0064fc44     dsoundd:dsapi.obj
 0007:0000ae18       ??_7CDirectSoundStream@DirectSound@@6B?$CValidObject@$0EEFDFDCA@@1@@ 0064fc58     dsoundd:dsapi.obj
 0007:0000ae1c       ??_7CDirectSoundStream@DirectSound@@6BIDirectSoundStream@@@ 0064fc5c     dsoundd:dsapi.obj
 0007:0000ae40       __real@469c4000            0064fc80     dsoundd:dsapi.obj
 0007:0000ae44       __real@42c80000            0064fc84     dsoundd:dsapi.obj
 0007:0000ae48       __real@3e99999a            0064fc88     dsoundd:dsapi.obj
 0007:0000ae4c       __real@41a00000            0064fc8c     dsoundd:dsapi.obj
 0007:0000ae50       __real@3dcccccd            0064fc90     dsoundd:dsapi.obj
 0007:0000ae54       ??_7CDirectSoundBufferSettings@DirectSound@@6B@ 0064fc94     dsoundd:dsapi.obj
 0007:0000ae68       ??_7CDirectSoundStreamSettings@DirectSound@@6B@ 0064fca8     dsoundd:dsapi.obj
 0007:0000ae7c       ??_7CImaAdpcmCodec@DirectSound@@6B@ 0064fcbc     dsoundd:dscommon.obj
 0007:0000ae80       __real@c4fa0000            0064fcc0     dsoundd:hrtf.obj
 0007:0000ae84       __real@42b40000            0064fcc4     dsoundd:hrtf.obj
 0007:0000ae88       __real@42340000            0064fcc8     dsoundd:hrtf.obj
 0007:0000ae8c       __real@3c360b61            0064fccc     dsoundd:hrtf.obj
 0007:0000ae90       __real@3b3fa030            0064fcd0     dsoundd:hrtf.obj
 0007:0000ae94       __real@c3ab0000            0064fcd4     dsoundd:hrtf.obj
 0007:0000ae98       __real@3fc00000            0064fcd8     dsoundd:hrtf.obj
 0007:0000ae9c       __real@40c00000            0064fcdc     dsoundd:hrtf.obj
 0007:0000aea0       __real@c2b40000            0064fce0     dsoundd:hrtf.obj
 0007:0000aea4       __real@c3340000            0064fce4     dsoundd:hrtf.obj
 0007:0000aea8       ??_7CMcpxAPU@DirectSound@@6BCMcpxCore@1@@ 0064fce8     dsoundd:mcpapu.obj
 0007:0000aeac       ??_7CMcpxAPU@DirectSound@@6BCRefCount@1@@ 0064fcec     dsoundd:mcpapu.obj
 0007:0000aec0       ??_7CMcpxStream@DirectSound@@6B@ 0064fd00     dsoundd:mcpstrm.obj
 0007:0000aef0       __real@7fefffffffffffff    0064fd30     dsoundd:dsmath.obj
 0007:0000af00       __real@ffefffffffffffff    0064fd40     dsoundd:dsmath.obj
 0007:0000af0c       __real@ff7fffff            0064fd4c     dsoundd:dsmath.obj
 0007:0000af10       __real@47efffffe0000000    0064fd50     dsoundd:dsmath.obj
 0007:0000af1c       ??_7CMcpxVoiceClient@DirectSound@@6B@ 0064fd5c     dsoundd:mcpvoice.obj
 0007:0000af4c       __real@3a03126f            0064fd8c     dsoundd:i3dl2.obj
 0007:0000af50       __real@46bb8000            0064fd90     dsoundd:i3dl2.obj
 0007:0000af54       __real@3f169696            0064fd94     dsoundd:i3dl2.obj
 0007:0000af58       __real@3f4ccccd            0064fd98     dsoundd:i3dl2.obj
 0007:0000af5c       __real@40200000            0064fd9c     dsoundd:i3dl2.obj
 0007:0000af60       __real@49cccccd            0064fda0     dsoundd:i3dl2.obj
 0007:0000af68       __real@401921fb60000000    0064fda8     dsoundd:i3dl2.obj
 0007:0000af74       __real@40c90fdb            0064fdb4     dsoundd:i3dl2.obj
 0007:0000af78       __real@473b8000            0064fdb8     dsoundd:i3dl2.obj
 0007:0000af7c       __real@c5bb8000            0064fdbc     dsoundd:i3dl2.obj
 0007:0000af80       __real@382ec33e            0064fdc0     dsoundd:i3dl2.obj
 0007:0000af84       __real@40a00000            0064fdc4     dsoundd:i3dl2.obj
 0007:0000af88       __real@3c23d70a            0064fdc8     dsoundd:i3dl2.obj
 0007:0000af8c       ??_7CWaveFileMediaObject@DirectSound@@6BCRefCount@1@@ 0064fdcc     dsoundd:wavexmo.obj
 0007:0000afa0       ??_7CWaveFileMediaObject@DirectSound@@6BXWaveFileMediaObject@@@ 0064fde0     dsoundd:wavexmo.obj
 0007:0000afdc       ??_7CFileMediaObject@DirectSound@@6BCRefCount@1@@ 0064fe1c     dsoundd:wavexmo.obj
 0007:0000aff0       ??_7CFileMediaObject@DirectSound@@6BXFileMediaObject@@@ 0064fe30     dsoundd:wavexmo.obj
 0007:0000b020       ??_7?$CValidObject@$0EBEDDJDH@@DirectSound@@6B@ 0064fe60     dsoundd:ac97xmo.obj
 0007:0000b024       ??_7CAc97MediaObject@DirectSound@@6BCRefCount@1@@ 0064fe64     dsoundd:ac97xmo.obj
 0007:0000b038       ??_7CAc97MediaObject@DirectSound@@6B?$CValidObject@$0EBEDDJDH@@1@@ 0064fe78     dsoundd:ac97xmo.obj
 0007:0000b03c       ??_7CAc97MediaObject@DirectSound@@6BXAc97MediaObject@@@ 0064fe7c     dsoundd:ac97xmo.obj
 0007:0000b06c       ??_7CMcpxBufferSgeHeap@DirectSound@@6B@ 0064feac     dsoundd:heap.obj
 0007:0000b070       ??_7CMcpxSlopMemoryHeap@DirectSound@@6B@ 0064feb0     dsoundd:heap.obj
 0007:0000b084       ??_7CMcpxBuffer@DirectSound@@6B@ 0064fec4     dsoundd:mcpbuf.obj
 0007:0000b0b4       ??_7CMcpxCore@DirectSound@@6B@ 0064fef4     dsoundd:mcpxcore.obj
 0007:0000b0b8       _IID_IDirectMusicBandPrivate 0064fef8     dmusicd:xguids.obj
 0007:0000b0cc       _IID_IDirectMusicBandTrk   0064ff0c     dmusicd:xguids.obj
 0007:0000b0e0       _IID_CParamControlTrack    0064ff20     dmusicd:xguids.obj
 0007:0000b0f4       _GUID_TIME_SAMPLES         0064ff34     dmusicd:xguids.obj
 0007:0000b108       _GUID_TIME_MUSIC           0064ff48     dmusicd:xguids.obj
 0007:0000b11c       _GUID_TIME_REFERENCE       0064ff5c     dmusicd:xguids.obj
 0007:0000b130       _GUID_PrivateTempoParam    0064ff70     dmusicd:xguids.obj
 0007:0000b144       _IID_IPrivateWaveTrack     0064ff84     dmusicd:xguids.obj
 0007:0000b158       _IID_CBuffer               0064ff98     dmusicd:xguids.obj
 0007:0000b16c       _GUID_DMUS_PROP_SinkUsesDSound 0064ffac     dmusicd:xguids.obj
 0007:0000b180       _GUID_DMUS_PROP_SetSynthSink 0064ffc0     dmusicd:xguids.obj
 0007:0000b194       _IID_IDirectMusicSynthSink 0064ffd4     dmusicd:xguids.obj
 0007:0000b1a8       _IID_IDirectMusicSynth8    0064ffe8     dmusicd:xguids.obj
 0007:0000b1bc       _IID_IDirectMusicSynth     0064fffc     dmusicd:xguids.obj
 0007:0000b1d0       _KSDATAFORMAT_SUBTYPE_DIRECTMUSIC 00650010     dmusicd:xguids.obj
 0007:0000b1e4       _KSDATAFORMAT_SUBTYPE_MIDI 00650024     dmusicd:xguids.obj
 0007:0000b1f8       _IID_IKsControl            00650038     dmusicd:xguids.obj
 0007:0000b20c       _IID_IPrivateWave          0065004c     dmusicd:xguids.obj
 0007:0000b220       _IID_IRIFFStream           00650060     dmusicd:xguids.obj
 0007:0000b234       _GUID_IDirectMusicPatternStyle 00650074     dmusicd:xguids.obj
 0007:0000b248       _GUID_NOTIFICATION_PRIVATE_CHORD 00650088     dmusicd:xguids.obj
 0007:0000b25c       _GUID_MelodyFragmentRepeat 0065009c     dmusicd:xguids.obj
 0007:0000b270       _GUID_SegmentTimeSig       006500b0     dmusicd:xguids.obj
 0007:0000b284       _CLSID_DMSection           006500c4     dmusicd:xguids.obj
 0007:0000b298       _IID_IPrivatePatternTrack  006500d8     dmusicd:xguids.obj
 0007:0000b2ac       _IID_IMuteTrack            006500ec     dmusicd:xguids.obj
 0007:0000b2c0       _IID_IMotifTrack           00650100     dmusicd:xguids.obj
 0007:0000b2d4       _IID_IDMStyle              00650114     dmusicd:xguids.obj
 0007:0000b2e8       _IID_IStyleTrack           00650128     dmusicd:xguids.obj
 0007:0000b2fc       _IID_IDMSection            0065013c     dmusicd:xguids.obj
 0007:0000b310       _IID_IAuditionTrack        00650150     dmusicd:xguids.obj
 0007:0000b324       _IID_CPerformance          00650164     dmusicd:xguids.obj
 0007:0000b338       _IID_CSong                 00650178     dmusicd:xguids.obj
 0007:0000b34c       _IID_IGraphClone           0065018c     dmusicd:xguids.obj
 0007:0000b360       _IID_CGraph                006501a0     dmusicd:xguids.obj
 0007:0000b374       _IID_CSegment              006501b4     dmusicd:xguids.obj
 0007:0000b388       _GUID_Zombie               006501c8     dmusicd:xguids.obj
 0007:0000b39c       _GUID_EnableScriptTrackError 006501dc     dmusicd:xguids.obj
 0007:0000b3b0       _IID_CStream               006501f0     dmusicd:xguids.obj
 0007:0000b3c4       _IID_CMemStream            00650204     dmusicd:xguids.obj
 0007:0000b3d8       _IID_CFileStream           00650218     dmusicd:xguids.obj
 0007:0000b3ec       _IID_IDirectMusicPerformanceP 0065022c     dmusicd:xguids.obj
 0007:0000b400       _IID_IDirectMusicObjectP   00650240     dmusicd:xguids.obj
 0007:0000b414       _IID_IDirectMusicBandP     00650254     dmusicd:xguids.obj
 0007:0000b428       _IID_IDirectMusicLoader8P  00650268     dmusicd:xguids.obj
 0007:0000b43c       _IID_IDirectMusicStyle8P   0065027c     dmusicd:xguids.obj
 0007:0000b450       _IID_IDirectMusicComposer8P 00650290     dmusicd:xguids.obj
 0007:0000b464       _IID_IDirectMusicSegment8P 006502a4     dmusicd:xguids.obj
 0007:0000b478       _GUID_MelodyPlaymode       006502b8     dmusicd:xguids.obj
 0007:0000b48c       _IID_CScriptTrackEvent     006502cc     dmusicd:xguids.obj
 0007:0000b4a0       _IID_CSegState             006502e0     dmusicd:xguids.obj
 0007:0000b4b4       _IID_CAudioPathConfig      006502f4     dmusicd:xguids.obj
 0007:0000b4c8       _IID_CAudioPath            00650308     dmusicd:xguids.obj
 0007:0000b4dc       _GUID_Buffer_Primary       0065031c     dmusicd:xguids.obj
 0007:0000b4f0       _CLSID_AutDirectMusicAudioPath 00650330     dmusicd:xguids.obj
 0007:0000b504       _CLSID_AutDirectMusicAudioPathConfig 00650344     dmusicd:xguids.obj
 0007:0000b518       _CLSID_AutDirectMusicSegmentState 00650358     dmusicd:xguids.obj
 0007:0000b52c       _CLSID_AutDirectMusicSong  0065036c     dmusicd:xguids.obj
 0007:0000b540       _CLSID_AutDirectMusicSegment 00650380     dmusicd:xguids.obj
 0007:0000b554       _CLSID_AutDirectMusicPerformance 00650394     dmusicd:xguids.obj
 0007:0000b568       _IID_IDMStream             006503a8     dmusicd:xguids.obj
 0007:0000b57c       _IID_IDirectMusicSetParamHook 006503bc     dmusicd:xguids.obj
 0007:0000b590       _IID_IDirectMusicParamHook 006503d0     dmusicd:xguids.obj
 0007:0000b5a4       _IID_IDirectMusicPerformanceStats 006503e4     dmusicd:xguids.obj
 0007:0000b5b8       _CLSID_DirectMusicSynthSink 006503f8     dmusicd:xguids.obj
 0007:0000b5cc       _IID_IDirectMusicPortP     0065040c     dmusicd:xguids.obj
 0007:0000b5e0       _IID_IDirectSoundDownloadedWaveP 00650420     dmusicd:xguids.obj
 0007:0000b5f4       _IID_IDirectMusicVoiceP    00650434     dmusicd:xguids.obj
 0007:0000b608       _IID_IDirectMusicSynthX    00650448     dmusicd:xguids.obj
 0007:0000b61c       _IID_IDirectSoundWave      0065045c     dmusicd:xguids.obj
 0007:0000b630       _IID_IDirectSoundSource    00650470     dmusicd:xguids.obj
 0007:0000b644       _IID_IDirectSoundSinkSync  00650484     dmusicd:xguids.obj
 0007:0000b658       _IID_IDirectSoundConnect   00650498     dmusicd:xguids.obj
 0007:0000b66c       _IID_IDirectSoundSynthSink 006504ac     dmusicd:xguids.obj
 0007:0000b680       _IID_IDirectSoundBuffer    006504c0     dmusicd:xguids.obj
 0007:0000b694       _IID_IDirectSoundPrivate   006504d4     dmusicd:xguids.obj
 0007:0000b6a8       _GUID_DSFX_WAVES_REVERB    006504e8     dmusicd:xguids.obj
 0007:0000b6bc       _GUID_DSFX_STANDARD_I3DL2REVERB 006504fc     dmusicd:xguids.obj
 0007:0000b6d0       _GUID_DSFX_STANDARD_I3DL2SOURCE 00650510     dmusicd:xguids.obj
 0007:0000b6e4       _GUID_DMUS_PROP_Volume     00650524     dmusicd:xguids.obj
 0007:0000b6f8       _GUID_DMUS_PROP_LegacyCaps 00650538     dmusicd:xguids.obj
 0007:0000b70c       _GUID_DMUS_PROP_Effects    0065054c     dmusicd:xguids.obj
 0007:0000b720       _GUID_DMUS_PROP_WavesReverb 00650560     dmusicd:xguids.obj
 0007:0000b734       _GUID_DMUS_PROP_MemorySize 00650574     dmusicd:xguids.obj
 0007:0000b748       _GUID_DMUS_PROP_WritePeriod 00650588     dmusicd:xguids.obj
 0007:0000b75c       _GUID_DMUS_PROP_WriteLatency 0065059c     dmusicd:xguids.obj
 0007:0000b770       _GUID_DMUS_PROP_SamplePlaybackRate 006505b0     dmusicd:xguids.obj
 0007:0000b784       _GUID_DMUS_PROP_SampleMemorySize 006505c4     dmusicd:xguids.obj
 0007:0000b798       _GUID_DMUS_PROP_SynthSink_WAVE 006505d8     dmusicd:xguids.obj
 0007:0000b7ac       _GUID_DMUS_PROP_SynthSink_DSOUND 006505ec     dmusicd:xguids.obj
 0007:0000b7c0       _GUID_DMUS_PROP_INSTRUMENT2 00650600     dmusicd:xguids.obj
 0007:0000b7d4       _GUID_DMUS_PROP_DLS2       00650614     dmusicd:xguids.obj
 0007:0000b7e8       _GUID_DMUS_PROP_DLS1       00650628     dmusicd:xguids.obj
 0007:0000b7fc       _GUID_DMUS_PROP_GS_Capable 0065063c     dmusicd:xguids.obj
 0007:0000b810       _GUID_DMUS_PROP_XG_Capable 00650650     dmusicd:xguids.obj
 0007:0000b824       _GUID_DMUS_PROP_XG_Hardware 00650664     dmusicd:xguids.obj
 0007:0000b838       _GUID_DMUS_PROP_GS_Hardware 00650678     dmusicd:xguids.obj
 0007:0000b84c       _GUID_DMUS_PROP_GM_Hardware 0065068c     dmusicd:xguids.obj
 0007:0000b860       _IID_IDirectMusic8         006506a0     dmusicd:xguids.obj
 0007:0000b874       _IID_IDirectMusic2         006506b4     dmusicd:xguids.obj
 0007:0000b888       _IID_IDirectMusicDownloadedInstrument 006506c8     dmusicd:xguids.obj
 0007:0000b89c       _IID_IDirectMusicInstrument 006506dc     dmusicd:xguids.obj
 0007:0000b8b0       _IID_IDirectMusicCollection 006506f0     dmusicd:xguids.obj
 0007:0000b8c4       _IID_IDirectMusicDownload  00650704     dmusicd:xguids.obj
 0007:0000b8d8       _IID_IDirectMusicPortDownload 00650718     dmusicd:xguids.obj
 0007:0000b8ec       _IID_IDirectMusicThru      0065072c     dmusicd:xguids.obj
 0007:0000b900       _IID_IDirectMusicPort      00650740     dmusicd:xguids.obj
 0007:0000b914       _IID_IDirectMusicBuffer    00650754     dmusicd:xguids.obj
 0007:0000b928       _IID_IDirectMusic          00650768     dmusicd:xguids.obj
 0007:0000b93c       _CLSID_DirectMusicSynth    0065077c     dmusicd:xguids.obj
 0007:0000b950       _CLSID_DirectMusic         00650790     dmusicd:xguids.obj
 0007:0000b964       _IID_IReferenceClock       006507a4     dmusicd:xguids.obj
 0007:0000b978       _GUID_All_Objects          006507b8     dmusicd:xguids.obj
 0007:0000b98c       _IID_IDirectMusicAudioPath 006507cc     dmusicd:xguids.obj
 0007:0000b9a0       _IID_IDirectMusicSong      006507e0     dmusicd:xguids.obj
 0007:0000b9b4       _IID_IDirectMusicContainer 006507f4     dmusicd:xguids.obj
 0007:0000b9c8       _IID_IDirectMusicScript    00650808     dmusicd:xguids.obj
 0007:0000b9dc       _IID_IDirectMusicPatternTrack 0065081c     dmusicd:xguids.obj
 0007:0000b9f0       _IID_IDirectMusicComposer  00650830     dmusicd:xguids.obj
 0007:0000ba04       _IID_IDirectMusicChordMap  00650844     dmusicd:xguids.obj
 0007:0000ba18       _IID_IDirectMusicStyle     00650858     dmusicd:xguids.obj
 0007:0000ba2c       _IID_IDirectMusicBand      0065086c     dmusicd:xguids.obj
 0007:0000ba40       _IID_IDirectMusicTool      00650880     dmusicd:xguids.obj
 0007:0000ba54       _IID_IDirectMusicObject    00650894     dmusicd:xguids.obj
 0007:0000ba68       _IID_IDirectMusicGetLoader 006508a8     dmusicd:xguids.obj
 0007:0000ba7c       _IID_IDirectMusicGraph     006508bc     dmusicd:xguids.obj
 0007:0000ba90       _IID_IDirectMusicPerformance 006508d0     dmusicd:xguids.obj
 0007:0000baa4       _IID_IDirectMusicSegmentState 006508e4     dmusicd:xguids.obj
 0007:0000bab8       _IID_IDirectMusicSegment   006508f8     dmusicd:xguids.obj
 0007:0000bacc       _IID_IDirectMusicLoader    0065090c     dmusicd:xguids.obj
 0007:0000bae0       _GUID_Buffer_MixBins       00650920     dmusicd:xguids.obj
 0007:0000baf4       _GUID_Buffer_Chorus        00650934     dmusicd:xguids.obj
 0007:0000bb08       _GUID_Buffer_3D            00650948     dmusicd:xguids.obj
 0007:0000bb1c       _GUID_Buffer_Mono          0065095c     dmusicd:xguids.obj
 0007:0000bb30       _GUID_Buffer_3D_Dry        00650970     dmusicd:xguids.obj
 0007:0000bb44       _GUID_Buffer_Stereo        00650984     dmusicd:xguids.obj
 0007:0000bb58       _GUID_Buffer_EnvReverb     00650998     dmusicd:xguids.obj
 0007:0000bb6c       _GUID_Buffer_Reverb        006509ac     dmusicd:xguids.obj
 0007:0000bb80       _GUID_DefaultGMCollection  006509c0     dmusicd:xguids.obj
 0007:0000bb94       _GUID_Synth_Default        006509d4     dmusicd:xguids.obj
 0007:0000bba8       _GUID_PerfMasterGrooveLevel 006509e8     dmusicd:xguids.obj
 0007:0000bbbc       _GUID_PerfMasterVolume     006509fc     dmusicd:xguids.obj
 0007:0000bbd0       _GUID_PerfMasterTempo      00650a10     dmusicd:xguids.obj
 0007:0000bbe4       _GUID_WavePlayParams       00650a24     dmusicd:xguids.obj
 0007:0000bbf8       _GUID_UnloadFromAudioPath  00650a38     dmusicd:xguids.obj
 0007:0000bc0c       _GUID_DownloadToAudioPath  00650a4c     dmusicd:xguids.obj
 0007:0000bc20       _GUID_Variations           00650a60     dmusicd:xguids.obj
 0007:0000bc34       _GUID_Clear_All_MelodyFragments 00650a74     dmusicd:xguids.obj
 0007:0000bc48       _GUID_MelodyFragment       00650a88     dmusicd:xguids.obj
 0007:0000bc5c       _GUID_SeedVariations       00650a9c     dmusicd:xguids.obj
 0007:0000bc70       _GUID_Clear_All_Bands      00650ab0     dmusicd:xguids.obj
 0007:0000bc84       _GUID_Unload               00650ac4     dmusicd:xguids.obj
 0007:0000bc98       _GUID_Download             00650ad8     dmusicd:xguids.obj
 0007:0000bcac       _GUID_MuteParam            00650aec     dmusicd:xguids.obj
 0007:0000bcc0       _GUID_IDirectMusicChordMap 00650b00     dmusicd:xguids.obj
 0007:0000bcd4       _GUID_IDirectMusicBand     00650b14     dmusicd:xguids.obj
 0007:0000bce8       _GUID_BandParam            00650b28     dmusicd:xguids.obj
 0007:0000bcfc       _GUID_Play_Marker          00650b3c     dmusicd:xguids.obj
 0007:0000bd10       _GUID_Valid_Start_Time     00650b50     dmusicd:xguids.obj
 0007:0000bd24       _GUID_TempoParam           00650b64     dmusicd:xguids.obj
 0007:0000bd38       _GUID_TimeSignature        00650b78     dmusicd:xguids.obj
 0007:0000bd4c       _GUID_IDirectMusicStyle    00650b8c     dmusicd:xguids.obj
 0007:0000bd60       _GUID_RhythmParam          00650ba0     dmusicd:xguids.obj
 0007:0000bd74       _GUID_ChordParam           00650bb4     dmusicd:xguids.obj
 0007:0000bd88       _GUID_CommandParamNext     00650bc8     dmusicd:xguids.obj
 0007:0000bd9c       _GUID_CommandParam2        00650bdc     dmusicd:xguids.obj
 0007:0000bdb0       _GUID_CommandParam         00650bf0     dmusicd:xguids.obj
 0007:0000bdc4       _GUID_NOTIFICATION_RECOMPOSE 00650c04     dmusicd:xguids.obj
 0007:0000bdd8       _GUID_NOTIFICATION_COMMAND 00650c18     dmusicd:xguids.obj
 0007:0000bdec       _GUID_NOTIFICATION_CHORD   00650c2c     dmusicd:xguids.obj
 0007:0000be00       _GUID_NOTIFICATION_MEASUREANDBEAT 00650c40     dmusicd:xguids.obj
 0007:0000be14       _GUID_NOTIFICATION_PERFORMANCE 00650c54     dmusicd:xguids.obj
 0007:0000be28       _GUID_NOTIFICATION_SEGMENT 00650c68     dmusicd:xguids.obj
 0007:0000be3c       _GUID_DirectMusicAllTypes  00650c7c     dmusicd:xguids.obj
 0007:0000be50       _CLSID_DirectMusicFileStream 00650c90     dmusicd:xguids.obj
 0007:0000be64       _CLSID_DirectMusicMemStream 00650ca4     dmusicd:xguids.obj
 0007:0000be78       _CLSID_DirectMusicStreamStream 00650cb8     dmusicd:xguids.obj
 0007:0000be8c       _CLSID_DirectMusicSong     00650ccc     dmusicd:xguids.obj
 0007:0000bea0       _CLSID_DirectSoundWave     00650ce0     dmusicd:xguids.obj
 0007:0000beb4       _CLSID_DirectMusicPatternTrack 00650cf4     dmusicd:xguids.obj
 0007:0000bec8       _CLSID_DirectMusicAudioPathConfig 00650d08     dmusicd:xguids.obj
 0007:0000bedc       _CLSID_DirectMusicContainer 00650d1c     dmusicd:xguids.obj
 0007:0000bef0       _CLSID_DirectMusicScript   00650d30     dmusicd:xguids.obj
 0007:0000bf04       _CLSID_DirectMusicComposer 00650d44     dmusicd:xguids.obj
 0007:0000bf18       _CLSID_DirectMusicChordMap 00650d58     dmusicd:xguids.obj
 0007:0000bf2c       _CLSID_DirectMusicStyle    00650d6c     dmusicd:xguids.obj
 0007:0000bf40       _CLSID_DirectMusicGraph    00650d80     dmusicd:xguids.obj
 0007:0000bf54       _CLSID_DirectMusicSegmentState 00650d94     dmusicd:xguids.obj
 0007:0000bf68       _CLSID_DirectMusicCollection 00650da8     dmusicd:xguids.obj
 0007:0000bf7c       _CLSID_DirectMusicBand     00650dbc     dmusicd:xguids.obj
 0007:0000bf90       _CLSID_DirectMusicLoader   00650dd0     dmusicd:xguids.obj
 0007:0000bfa4       _CLSID_DirectMusicSegment  00650de4     dmusicd:xguids.obj
 0007:0000bfb8       _CLSID_DirectMusicPerformance 00650df8     dmusicd:xguids.obj
 0007:0000bfcc       _IID_IDirectMusicTrack8    00650e0c     dmusicd:xguids.obj
 0007:0000bfe0       _IID_IDirectMusicTool8     00650e20     dmusicd:xguids.obj
 0007:0000bff4       _IID_IDirectMusicTrack     00650e34     dmusicd:xguids.obj
 0007:0000c008       _CLSID_DirectMusicWaveTrack 00650e48     dmusicd:xguids.obj
 0007:0000c01c       _CLSID_DirectMusicMelodyFormulationTrack 00650e5c     dmusicd:xguids.obj
 0007:0000c030       _CLSID_DirectMusicParamControlTrack 00650e70     dmusicd:xguids.obj
 0007:0000c044       _CLSID_DirectMusicLyricsTrack 00650e84     dmusicd:xguids.obj
 0007:0000c058       _CLSID_DirectMusicSegmentTriggerTrack 00650e98     dmusicd:xguids.obj
 0007:0000c06c       _CLSID_DirectMusicMarkerTrack 00650eac     dmusicd:xguids.obj
 0007:0000c080       _CLSID_DirectMusicScriptTrack 00650ec0     dmusicd:xguids.obj
 0007:0000c094       _CLSID_DirectMusicMuteTrack 00650ed4     dmusicd:xguids.obj
 0007:0000c0a8       _CLSID_DirectMusicChordMapTrack 00650ee8     dmusicd:xguids.obj
 0007:0000c0bc       _CLSID_DirectMusicBandTrack 00650efc     dmusicd:xguids.obj
 0007:0000c0d0       _CLSID_DirectMusicSignPostTrack 00650f10     dmusicd:xguids.obj
 0007:0000c0e4       _CLSID_DirectMusicMotifTrack 00650f24     dmusicd:xguids.obj
 0007:0000c0f8       _CLSID_DirectMusicStyleTrack 00650f38     dmusicd:xguids.obj
 0007:0000c10c       _CLSID_DirectMusicCommandTrack 00650f4c     dmusicd:xguids.obj
 0007:0000c120       _CLSID_DirectMusicChordTrack 00650f60     dmusicd:xguids.obj
 0007:0000c134       _CLSID_DirectMusicTimeSigTrack 00650f74     dmusicd:xguids.obj
 0007:0000c148       _CLSID_DirectMusicSysExTrack 00650f88     dmusicd:xguids.obj
 0007:0000c15c       _CLSID_DirectMusicSeqTrack 00650f9c     dmusicd:xguids.obj
 0007:0000c170       _CLSID_DirectMusicTempoTrack 00650fb0     dmusicd:xguids.obj
 0007:0000c184       _GUID_NULL                 00650fc4     dmusicd:xguids.obj
 0007:0000c198       _IID_ID3DXEffect           00650fd8     dmusicd:xguids.obj
 0007:0000c1ac       _IID_ID3DXTechnique        00650fec     dmusicd:xguids.obj
 0007:0000c1c0       _IID_ID3DXSkinMesh         00651000     dmusicd:xguids.obj
 0007:0000c1d4       _IID_ID3DXSPMesh           00651014     dmusicd:xguids.obj
 0007:0000c1e8       _IID_ID3DXPMesh            00651028     dmusicd:xguids.obj
 0007:0000c1fc       _IID_ID3DXMesh             0065103c     dmusicd:xguids.obj
 0007:0000c210       _IID_ID3DXBaseMesh         00651050     dmusicd:xguids.obj
 0007:0000c224       _TID_DXFILEHeader          00651064     dmusicd:xguids.obj
 0007:0000c238       _IID_IDirectXFileBinary    00651078     dmusicd:xguids.obj
 0007:0000c24c       _IID_IDirectXFileDataReference 0065108c     dmusicd:xguids.obj
 0007:0000c260       _IID_IDirectXFileData      006510a0     dmusicd:xguids.obj
 0007:0000c274       _IID_IDirectXFileObject    006510b4     dmusicd:xguids.obj
 0007:0000c288       _IID_IDirectXFileSaveObject 006510c8     dmusicd:xguids.obj
 0007:0000c29c       _IID_IDirectXFileEnumObject 006510dc     dmusicd:xguids.obj
 0007:0000c2b0       _IID_IDirectXFile          006510f0     dmusicd:xguids.obj
 0007:0000c2c4       _CLSID_CDirectXFile        00651104     dmusicd:xguids.obj
 0007:0000c2d8       _IID_ID3DXRenderToEnvMap   00651118     dmusicd:xguids.obj
 0007:0000c2ec       _IID_ID3DXRenderToSurface  0065112c     dmusicd:xguids.obj
 0007:0000c300       _IID_ID3DXSprite           00651140     dmusicd:xguids.obj
 0007:0000c314       _IID_ID3DXBuffer           00651154     dmusicd:xguids.obj
 0007:0000c328       _IID_ID3DXMatrixStack      00651168     dmusicd:xguids.obj
 0007:0000c33c       ??_C@_0CP@CEKLGBGL@SDL_RWFromFile?$CI?$CJ?3?5No?5file?5or?5no?5@ 0065117c     libSDLx:SDL_rwops.obj
 0007:0000c374       ??_C@_0BB@MAHHKGJO@Couldn?8t?5open?5?$CFs?$AA@ 006511b4     libSDLx:SDL_rwops.obj
 0007:0000c388       ??_C@_0CG@ILLNKENC@Unable?5to?5convert?5filename?5to?5Un@ 006511c8     libSDLx:SDL_rwops.obj
 0007:0000c3b8       ??_C@_04MDAFHLBC@UCS2?$AA@ 006511f8     libSDLx:SDL_rwops.obj
 0007:0000c3c0       ??_C@_04OOMJJNCF@UTF8?$AA@ 00651200     libSDLx:SDL_rwops.obj
 0007:0000c3c8       ??_C@_0CM@JHDGCDDF@win32_file_seek?3?5Unknown?5value?5f@ 00651208     libSDLx:SDL_rwops.obj
 0007:0000c3fc       ??_C@_0DB@JPBKGOPC@win32_file_seek?3?5invalid?5context@ 0065123c     libSDLx:SDL_rwops.obj
 0007:0000c438       ??_C@_0BL@POAIIGEL@Unknown?5value?5for?5?8whence?8?$AA@ 00651278     libSDLx:SDL_rwops.obj
 0007:0000c458       ??_C@_0CA@JBFLDJAJ@Can?8t?5write?5to?5read?9only?5memory?$AA@ 00651298     libSDLx:SDL_rwops.obj
 0007:0000c480       ??_C@_05FPCKGDIJ@UCS?94?$AA@ 006512c0     libSDLx:SDL_iconv.obj
 0007:0000c488       ??_C@_04JFFPNMJE@UCS4?$AA@ 006512c8     libSDLx:SDL_iconv.obj
 0007:0000c490       ??_C@_05JHAMEAP@UCS?92?$AA@ 006512d0     libSDLx:SDL_iconv.obj
 0007:0000c498       ??_C@_08CEJLHJGH@UTF?932LE?$AA@ 006512d8     libSDLx:SDL_iconv.obj
 0007:0000c4a4       ??_C@_07MBKNMEHJ@UTF32LE?$AA@ 006512e4     libSDLx:SDL_iconv.obj
 0007:0000c4b0       ??_C@_08COAFFEGN@UTF?932BE?$AA@ 006512f0     libSDLx:SDL_iconv.obj
 0007:0000c4bc       ??_C@_07MLDDOJHD@UTF32BE?$AA@ 006512fc     libSDLx:SDL_iconv.obj
 0007:0000c4c8       ??_C@_06MKNHHJMC@UTF?932?$AA@ 00651308     libSDLx:SDL_iconv.obj
 0007:0000c4d0       ??_C@_05KKMPKGEK@UTF32?$AA@ 00651310     libSDLx:SDL_iconv.obj
 0007:0000c4d8       ??_C@_08NBDJLNFA@UTF?916LE?$AA@ 00651318     libSDLx:SDL_iconv.obj
 0007:0000c4e4       ??_C@_07DEAPAAEO@UTF16LE?$AA@ 00651324     libSDLx:SDL_iconv.obj
 0007:0000c4f0       ??_C@_08NLKHJAFK@UTF?916BE?$AA@ 00651330     libSDLx:SDL_iconv.obj
 0007:0000c4fc       ??_C@_07DOJBCNEE@UTF16BE?$AA@ 0065133c     libSDLx:SDL_iconv.obj
 0007:0000c508       ??_C@_06KNDPGIKI@UTF?916?$AA@ 00651348     libSDLx:SDL_iconv.obj
 0007:0000c510       ??_C@_05MNCHLHCA@UTF16?$AA@ 00651350     libSDLx:SDL_iconv.obj
 0007:0000c518       ??_C@_05EGJIMALK@UTF?98?$AA@ 00651358     libSDLx:SDL_iconv.obj
 0007:0000c520       ??_C@_0L@GJIJNDEK@ISO?98859?91?$AA@ 00651360     libSDLx:SDL_iconv.obj
 0007:0000c530       ??_C@_06DBMBMKI@8859?91?$AA@ 00651370     libSDLx:SDL_iconv.obj
 0007:0000c538       ??_C@_08DIBGJKBD@US?9ASCII?$AA@ 00651378     libSDLx:SDL_iconv.obj
 0007:0000c544       ??_C@_05CCNLIHFO@ASCII?$AA@ 00651384     libSDLx:SDL_iconv.obj
 0007:0000c54c       ??_C@_01GFHCPBMG@C?$AA@    0065138c     libSDLx:SDL_iconv.obj
 0007:0000c550       ??_C@_04ECEKPLPK@LANG?$AA@ 00651390     libSDLx:SDL_iconv.obj
 0007:0000c558       ??_C@_0M@OEOGJAKB@LC_MESSAGES?$AA@ 00651398     libSDLx:SDL_iconv.obj
 0007:0000c568       ??_C@_08EADHIDAD@LC_CTYPE?$AA@ 006513a8     libSDLx:SDL_iconv.obj
 0007:0000c574       ??_C@_06NEFDFEKB@LC_ALL?$AA@ 006513b4     libSDLx:SDL_iconv.obj
 0007:0000c57c       ??_C@_0DD@PKLLDBEK@d?3?2xbox?2private?2sdktools?2crt?2crt@ 006513bc     LIBCMTD:printf.obj
 0007:0000c5bc       ??_C@_0P@NHGFNCDP@format?5?$CB?$DN?5NULL?$AA@ 006513fc     LIBCMTD:printf.obj
 0007:0000c5e0       ??_C@_0DE@KGJMGKFP@d?3?2xbox?2private?2sdktools?2crt?2crt@ 00651420     LIBCMTD:fprintf.obj
 0007:0000c620       ??_C@_0M@CMNAFCJK@str?5?$CB?$DN?5NULL?$AA@ 00651460     LIBCMTD:fprintf.obj
 0007:0000c640       ??_C@_0DC@HKELFPHB@d?3?2xbox?2private?2sdktools?2crt?2crt@ 00651480     LIBCMTD:_file.obj
 0007:0000c67c       ??_C@_06PJIGMIJB@Client?$AA@ 006514bc     LIBCMTD:dbgheap.obj
 0007:0000c684       ??_C@_06KMEJCCGM@Ignore?$AA@ 006514c4     LIBCMTD:dbgheap.obj
 0007:0000c68c       ??_C@_03OGPFLFLO@CRT?$AA@  006514cc     LIBCMTD:dbgheap.obj
 0007:0000c690       ??_C@_06EFAGIKOH@Normal?$AA@ 006514d0     LIBCMTD:dbgheap.obj
 0007:0000c698       ??_C@_04HJMOFLDF@Free?$AA@ 006514d8     LIBCMTD:dbgheap.obj
 0007:0000c6b0       ??_C@_0DC@JEMAGEKG@Error?3?5memory?5allocation?3?5bad?5me@ 006514f0     LIBCMTD:dbgheap.obj
 0007:0000c6ec       ??_C@_0CF@BICKFLAF@Invalid?5allocation?5size?3?5?$CFIu?5byt@ 0065152c     LIBCMTD:dbgheap.obj
 0007:0000c718       ??_C@_0CB@CCLOLAHO@Client?5hook?5allocation?5failure?4?6@ 00651558     LIBCMTD:dbgheap.obj
 0007:0000c740       ??_C@_0DF@BBEGIFEK@Client?5hook?5allocation?5failure?5a@ 00651580     LIBCMTD:dbgheap.obj
 0007:0000c780       ??_C@_0DD@MMKCODAL@d?3?2xbox?2private?2sdktools?2crt?2crt@ 006515c0     LIBCMTD:dbgheap.obj
 0007:0000c7c0       ??_C@_0BC@FKEPGOPH@_CrtCheckMemory?$CI?$CJ?$AA@ 00651600     LIBCMTD:dbgheap.obj
 0007:0000c7e8       ??_C@_0BK@DJDKJKNJ@_pFirstBlock?5?$DN?$DN?5pOldBlock?$AA@ 00651628     LIBCMTD:dbgheap.obj
 0007:0000c808       ??_C@_0BJ@PGMLBCKP@_pLastBlock?5?$DN?$DN?5pOldBlock?$AA@ 00651648     LIBCMTD:dbgheap.obj
 0007:0000c828       ??_C@_0DC@LIEEBBFH@fRealloc?5?$HM?$HM?5?$CI?$CBfRealloc?5?$CG?$CG?5pNewBl@ 00651668     LIBCMTD:dbgheap.obj
 0007:0000c868       ??_C@_0EF@BKJNHFDP@pOldBlock?9?$DOnLine?5?$DN?$DN?5IGNORE_LINE?5@ 006516a8     LIBCMTD:dbgheap.obj
 0007:0000c8bc       ??_C@_0CC@MCCNOMLK@_CrtIsValidHeapPointer?$CIpUserData@ 006516fc     LIBCMTD:dbgheap.obj
 0007:0000c8e8       ??_C@_0EM@LGFLMAGJ@The?5Block?5at?50x?$CFp?5was?5allocated?5@ 00651728     LIBCMTD:dbgheap.obj
 0007:0000c944       ??_C@_0CO@KPNFNEPA@Allocation?5too?5large?5or?5negative@ 00651784     LIBCMTD:dbgheap.obj
 0007:0000c97c       ??_C@_0CE@DOFMDOL@Client?5hook?5re?9allocation?5failur@ 006517bc     LIBCMTD:dbgheap.obj
 0007:0000c9a8       ??_C@_0DI@KKJPDPGM@Client?5hook?5re?9allocation?5failur@ 006517e8     LIBCMTD:dbgheap.obj
 0007:0000ca10       ??_C@_0BG@JDINNDDC@_pFirstBlock?5?$DN?$DN?5pHead?$AA@ 00651850     LIBCMTD:dbgheap.obj
 0007:0000ca2c       ??_C@_0BF@LMGMGAEG@_pLastBlock?5?$DN?$DN?5pHead?$AA@ 0065186c     LIBCMTD:dbgheap.obj
 0007:0000ca48       ??_C@_0BO@LGCGBMOH@pHead?9?$DOnBlockUse?5?$DN?$DN?5nBlockUse?$AA@ 00651888     LIBCMTD:dbgheap.obj
 0007:0000ca6c       ??_C@_0DN@GKKPDMLN@pHead?9?$DOnLine?5?$DN?$DN?5IGNORE_LINE?5?$CG?$CG?5p@ 006518ac     LIBCMTD:dbgheap.obj
 0007:0000cab8       ??_C@_0CI@CMGHMNIC@DAMAGE?3?5after?5?$CFhs?5block?5?$CI?$CD?$CFd?$CJ?5at@ 006518f8     LIBCMTD:dbgheap.obj
 0007:0000cae8       ??_C@_0CJ@OHOOBLKI@DAMAGE?3?5before?5?$CFhs?5block?5?$CI?$CD?$CFd?$CJ?5a@ 00651928     LIBCMTD:dbgheap.obj
 0007:0000cb1c       ??_C@_0CH@IAGMNLOM@_BLOCK_TYPE_IS_VALID?$CIpHead?9?$DOnBlo@ 0065195c     LIBCMTD:dbgheap.obj
 0007:0000cb4c       ??_C@_0BL@KEIPLFAC@Client?5hook?5free?5failure?4?6?$AA@ 0065198c     LIBCMTD:dbgheap.obj
 0007:0000cb70       ??_C@_0EJ@HEIBCIMJ@The?5Block?5at?50x?$CFp?5was?5allocated?5@ 006519b0     LIBCMTD:dbgheap.obj
 0007:0000cbe8       ??_C@_0CI@JMLBEDHJ@?$CFhs?5located?5at?50x?$CFp?5is?5?$CFIu?5bytes@ 00651a28     LIBCMTD:dbgheap.obj
 0007:0000cc18       ??_C@_0CA@FGFAGAOM@?$CFhs?5allocated?5at?5file?5?$CFhs?$CI?$CFd?$CJ?4?6?$AA@ 00651a58     LIBCMTD:dbgheap.obj
 0007:0000cc40       ??_C@_0CH@JKKAOBEK@DAMAGE?3?5on?5top?5of?5Free?5block?5at?5@ 00651a80     LIBCMTD:dbgheap.obj
 0007:0000cc70       ??_C@_07OHKEFPKJ@DAMAGED?$AA@ 00651ab0     LIBCMTD:dbgheap.obj
 0007:0000cc7c       ??_C@_0CL@HNNNMKMJ@_heapchk?5fails?5with?5unknown?5retu@ 00651abc     LIBCMTD:dbgheap.obj
 0007:0000ccb0       ??_C@_0CC@MFFCHFHO@_heapchk?5fails?5with?5_HEAPBADPTR?4@ 00651af0     LIBCMTD:dbgheap.obj
 0007:0000ccd8       ??_C@_0CC@MJGLGBDG@_heapchk?5fails?5with?5_HEAPBADEND?4@ 00651b18     LIBCMTD:dbgheap.obj
 0007:0000cd00       ??_C@_0CD@CPKEAPBD@_heapchk?5fails?5with?5_HEAPBADNODE@ 00651b40     LIBCMTD:dbgheap.obj
 0007:0000cd2c       ??_C@_0CE@MKKHMBMK@_heapchk?5fails?5with?5_HEAPBADBEGI@ 00651b6c     LIBCMTD:dbgheap.obj
 0007:0000cd98       ??_C@_0CB@EAAIGELO@Bad?5memory?5block?5found?5at?50x?$CFp?4?6@ 00651bd8     LIBCMTD:dbgheap.obj
 0007:0000cdc0       ??_C@_0CI@KDKEAJEJ@_CrtMemCheckPoint?3?5NULL?5state?5po@ 00651c00     LIBCMTD:dbgheap.obj
 0007:0000ce00       ??_C@_0CI@ENCLCMLG@_CrtMemDifference?3?5NULL?5state?5po@ 00651c40     LIBCMTD:dbgheap.obj
 0007:0000ce30       ??_C@_0BH@GFGKJDCO@Object?5dump?5complete?4?6?$AA@ 00651c70     LIBCMTD:dbgheap.obj
 0007:0000ce4c       ??_C@_0DA@MDLBNIBM@crt?5block?5at?50x?$CFp?0?5subtype?5?$CFx?0?5?$CF@ 00651c8c     LIBCMTD:dbgheap.obj
 0007:0000ce88       ??_C@_0CH@FAGDDGPN@normal?5block?5at?50x?$CFp?0?5?$CFIu?5bytes?5@ 00651cc8     LIBCMTD:dbgheap.obj
 0007:0000ceb8       ??_C@_0DD@GHNAAKBB@client?5block?5at?50x?$CFp?0?5subtype?5?$CFx@ 00651cf8     LIBCMTD:dbgheap.obj
 0007:0000cef8       ??_C@_06PKLGBFGM@?$HL?$CFld?$HN?5?$AA@ 00651d38     LIBCMTD:dbgheap.obj
 0007:0000cf00       ??_C@_0L@JMEFFCCJ@?$CFhs?$CI?$CFd?$CJ?5?3?5?$AA@ 00651d40     LIBCMTD:dbgheap.obj
 0007:0000cf10       ??_C@_0BE@OIEFNFL@?$CDFile?5Error?$CD?$CI?$CFd?$CJ?5?3?5?$AA@ 00651d50     LIBCMTD:dbgheap.obj
 0007:0000cf28       ??_C@_0BE@KCIPKCIA@Dumping?5objects?5?9?$DO?6?$AA@ 00651d68     LIBCMTD:dbgheap.obj
 0007:0000cf50       ??_C@_0BA@HJBKCELP@?5Data?3?5?$DM?$CFs?$DO?5?$CFs?6?$AA@ 00651d90     LIBCMTD:dbgheap.obj
 0007:0000cf64       ??_C@_05MKKEDADM@?$CF?42X?5?$AA@ 00651da4     LIBCMTD:dbgheap.obj
 0007:0000cf6c       ??_C@_0BI@JBFPOEJA@Detected?5memory?5leaks?$CB?6?$AA@ 00651dac     LIBCMTD:dbgheap.obj
 0007:0000cf88       ??_C@_0BP@DEDHGGGI@Total?5allocations?3?5?$CFId?5bytes?4?6?$AA@ 00651dc8     LIBCMTD:dbgheap.obj
 0007:0000cfb0       ??_C@_0CB@BLHDAFNE@Largest?5number?5used?3?5?$CFId?5bytes?4?6@ 00651df0     LIBCMTD:dbgheap.obj
 0007:0000cfd8       ??_C@_0BO@DACNIABB@?$CFId?5bytes?5in?5?$CFId?5?$CFhs?5Blocks?4?6?$AA@ 00651e18     LIBCMTD:dbgheap.obj
 0007:0000cffc       ??_C@_0CC@GFBJAAAH@?$CI?$CCoffset?5must?5be?5within?5size?$CC?0?50@ 00651e3c     LIBCMTD:dbgheap.obj
 0007:0000d024       ??_C@_0CF@PGBEDOC@?$CI?$CCalignment?5must?5be?5a?5power?5of?52@ 00651e64     LIBCMTD:dbgheap.obj
 0007:0000d050       ??_C@_0DL@PGHMMKNE@Damage?5before?50x?$CFp?5which?5was?5all@ 00651e90     LIBCMTD:dbgheap.obj
 0007:0000d098       ??_C@_0EI@NDNJMAJK@The?5block?5at?50x?$CFp?5was?5not?5alloca@ 00651ed8     LIBCMTD:dbgheap.obj
 0007:0000d0f0       ??_C@_0EF@PGELACII@The?5block?5at?50x?$CFp?5was?5not?5alloca@ 00651f30     LIBCMTD:dbgheap.obj
 0007:0000d15c       ??_C@_0BO@GNIAFIKK@Unknown?5Runtime?5Check?5Error?6?$AN?$AA@ 00651f9c     LIBCMTD:error.obj
 0007:0000d180       ??_C@_0DG@HKJMLLLP@A?5local?5variable?5was?5used?5before@ 00651fc0     LIBCMTD:error.obj
 0007:0000d1c0       ??_C@_0BN@FFOINMNJ@Stack?5memory?5was?5corrupted?6?$AN?$AA@ 00652000     LIBCMTD:error.obj
 0007:0000d1e8       ??_C@_0BBN@GPMLNJCF@A?5cast?5to?5a?5smaller?5data?5type?5ha@ 00652028     LIBCMTD:error.obj
 0007:0000d340       ??_C@_0NN@NGPKDKPD@The?5value?5of?5ESP?5was?5not?5properl@ 00652180     LIBCMTD:error.obj
 0007:0000d44c       ??_C@_09IEDNJDJD@Undefined?$AA@ 0065228c     LIBCMTD:error.obj
 0007:0000d458       ??_C@_0CA@IODNCDPG@Run?9Time?5Check?5Failure?5?$CD?$CFd?5?9?5?$CFs?$AA@ 00652298     LIBCMTD:error.obj
 0007:0000d4a0       ??_C@_0L@CJCNHJJG@?6?$ANModule?3?7?$AA@ 006522e0     LIBCMTD:error.obj
 0007:0000d4b0       ??_C@_08GJEJCAJD@?6?$ANLine?3?7?$AA@ 006522f0     LIBCMTD:error.obj
 0007:0000d4bc       ??_C@_0CI@INCLAPNB@Invalid?5pointer?5was?5assigned?5at?6@ 006522fc     LIBCMTD:error.obj
 0007:0000d4ec       ??_C@_0BB@JEGFEAAM@?8?5was?5corrupted?4?$AA@ 0065232c     LIBCMTD:error.obj
 0007:0000d500       ??_C@_0BM@FGFAMDLF@Stack?5around?5the?5variable?5?8?$AA@ 00652340     LIBCMTD:error.obj
 0007:0000d524       ??_C@_0DA@BEGFPCGG@A?5variable?5is?5being?5used?5without@ 00652364     LIBCMTD:error.obj
 0007:0000d560       ??_C@_0CH@LOIIHGKM@?8?5is?5being?5used?5without?5being?5de@ 006523a0     LIBCMTD:error.obj
 0007:0000d590       ??_C@_0P@HLKMHJCG@The?5variable?5?8?$AA@ 006523d0     LIBCMTD:error.obj
 0007:0000d5a4       ??_C@_0P@NFGNABCI@string?5?$CB?$DN?5NULL?$AA@ 006523e4     LIBCMTD:sprintf.obj
 0007:0000d5b8       ??_C@_0DE@GHBLCAPD@d?3?2xbox?2private?2sdktools?2crt?2crt@ 006523f8     LIBCMTD:sprintf.obj
 0007:0000d5f8       ??_C@_0DD@HAOKGPKJ@d?3?2xbox?2private?2sdktools?2crt?2crt@ 00652438     LIBCMTD:sscanf.obj
 0007:0000d638       ??_C@_0BL@HKJJBNKI@exit?$CI?$CJ?5unsupported?5on?5Xbox?$AA@ 00652478     LIBCMTD:crt0dat.obj
 0007:0000d668       ??_C@_0DE@DDAFKKCN@d?3?2xbox?2private?2sdktools?2crt?2crt@ 006524a8     LIBCMTD:tmpfile.obj
 0007:0000d6c8       ??_C@_03EFPJLNDL@Z?3?2?$AA@ 00652508     LIBCMTD:tmpfile.obj
 0007:0000d6e0       ??_C@_0DC@EPCCHBHH@d?3?2xbox?2private?2sdktools?2crt?2crt@ 00652520     LIBCMTD:fseek.obj
 0007:0000d71c       ??_C@_0P@FELNCIKG@stream?5?$CB?$DN?5NULL?$AA@ 0065255c     LIBCMTD:fseek.obj
 0007:0000d750       ??_C@_0DD@KMIBLEPI@d?3?2xbox?2private?2sdktools?2crt?2crt@ 00652590     LIBCMTD:fclose.obj
 0007:0000d7a0       ??_C@_0DF@NMNACLLA@d?3?2xbox?2private?2sdktools?2crt?2crt@ 006525e0     LIBCMTD:snwprint.obj
 0007:0000d800       ??_C@_0DF@KEGMCHII@d?3?2xbox?2private?2sdktools?2crt?2crt@ 00652640     LIBCMTD:vsnprint.obj
 0007:0000d840       ??_C@_0DC@BKECBFDB@d?3?2xbox?2private?2sdktools?2crt?2crt@ 00652680     LIBCMTD:ftell.obj
 0007:0000d890       ??_C@_0DH@ILGJOKLL@d?3?2xbox?2private?2sdktools?2crt?2crt@ 006526d0     LIBCMTD:tidtable.obj
 0007:0000d8e8       ??_C@_0DE@LPKNNEHM@d?3?2xbox?2private?2sdktools?2crt?2crt@ 00652728     LIBCMTD:_sftbuf.obj
 0007:0000d928       ??_C@_0BH@HIGALIFJ@flag?5?$DN?$DN?50?5?$HM?$HM?5flag?5?$DN?$DN?51?$AA@ 00652768     LIBCMTD:_sftbuf.obj
 0007:0000d948       ___lookuptable             00652788     LIBCMTD:output.obj
 0007:0000d9b4       ___nullstring              006527f4     LIBCMTD:output.obj
 0007:0000d9bc       ___wnullstring             006527fc     LIBCMTD:output.obj
 0007:0000d9d0       ??_C@_0DD@HLKCJNLC@d?3?2xbox?2private?2sdktools?2crt?2crt@ 00652810     LIBCMTD:output.obj
 0007:0000da10       ??_C@_0P@LGFCLPDP@ch?5?$CB?$DN?5_T?$CI?8?20?8?$CJ?$AA@ 00652850     LIBCMTD:output.obj
 0007:0000da24       ??_C@_0BB@NAGLCMLI@Assertion?5Failed?$AA@ 00652864     LIBCMTD:dbgrpt.obj
 0007:0000da38       ??_C@_05NAOIJFC@Error?$AA@ 00652878     LIBCMTD:dbgrpt.obj
 0007:0000da40       ??_C@_07KGMMFLDN@Warning?$AA@ 00652880     LIBCMTD:dbgrpt.obj
 0007:0000da4c       ??_C@_0DC@DEFAACAG@d?3?2xbox?2private?2sdktools?2crt?2crt@ 0065288c     LIBCMTD:dbgrpt.obj
 0007:0000da98       ??_C@_0M@IPILFDFN@?$CFs?$CI?$CFd?$CJ?5?3?5?$CFs?$AA@ 006528d8     LIBCMTD:dbgrpt.obj
 0007:0000daa8       ??_C@_01LIIJDEN@?$AN?$AA@  006528e8     LIBCMTD:dbgrpt.obj
 0007:0000daac       ??_C@_0BC@LAIDCHCH@Assertion?5failed?$CB?$AA@ 006528ec     LIBCMTD:dbgrpt.obj
 0007:0000dac4       ??_C@_0BD@CAENFOHP@Assertion?5failed?3?5?$AA@ 00652904     LIBCMTD:dbgrpt.obj
 0007:0000dadc       ??_C@_0CL@EACFGMNB@_CrtDbgReport?3?5String?5too?5long?5o@ 0065291c     LIBCMTD:dbgrpt.obj
 0007:0000db10       ??_C@_07BHGABMGB@?0?5Line?5?$AA@ 00652950     LIBCMTD:dbgrpt.obj
 0007:0000db1c       ??_C@_0CG@BNGLOCEO@Second?5Chance?5Assertion?5Failed?3?5@ 0065295c     LIBCMTD:dbgrpt.obj
 0007:0000db60       ??_C@_0FD@IIKNDPHJ@Debug?5?$CFs?$CB?6?6Program?3?5?$CFs?$CFs?$CFs?$CFs?$CFs?$CFs@ 006529a0     LIBCMTD:dbgrpt.obj
 0007:0000dbc4       ??_C@_09OFBFHMBK@?6Module?3?5?$AA@ 00652a04     LIBCMTD:dbgrpt.obj
 0007:0000dbd0       ??_C@_07OPHPPLBG@?6File?3?5?$AA@ 00652a10     LIBCMTD:dbgrpt.obj
 0007:0000dbdc       ??_C@_07DBMPPHDI@?6Line?3?5?$AA@ 00652a1c     LIBCMTD:dbgrpt.obj
 0007:0000dbe8       ??_C@_02PHMGELLB@?6?6?$AA@ 00652a28     LIBCMTD:dbgrpt.obj
 0007:0000dbec       ??_C@_0N@MEECIJGN@Expression?3?5?$AA@ 00652a2c     LIBCMTD:dbgrpt.obj
 0007:0000dc00       ??_C@_0HD@GNBNFCCL@?6?6For?5information?5on?5how?5your?5pr@ 00652a40     LIBCMTD:dbgrpt.obj
 0007:0000dc8c       ??_C@_03KHICJKCI@?4?4?4?$AA@ 00652acc     LIBCMTD:dbgrpt.obj
 0007:0000dc90       ??_C@_0BG@IHOEIIEJ@szUserMessage?5?$CB?$DN?5NULL?$AA@ 00652ad0     LIBCMTD:dbgrpt.obj
 0007:0000dcac       ??_C@_0DD@EPKLLMPK@d?3?2xbox?2private?2sdktools?2crt?2crt@ 00652aec     LIBCMTD:ioinit.obj
 0007:0000dd2c       ??_C@_0DE@KDIKCJDJ@d?3?2xbox?2private?2sdktools?2crt?2crt@ 00652b6c     LIBCMTD:mlock.obj
 0007:0000dd80       ??_C@_05KLBDPFGC@e?$CL000?$AA@ 00652bc0     LIBCMTD:cvt.obj
 0007:0000dd88       ??_C@_0CK@CNLNOEPB@Local?5variable?5used?5before?5initi@ 00652bc8     LIBCMTD:userapi.obj
 0007:0000ddbc       ??_C@_0BI@CIGMDCBH@Stack?5memory?5corruption?$AA@ 00652bfc     LIBCMTD:userapi.obj
 0007:0000ddd8       ??_C@_0CK@FEGOIOPB@Cast?5to?5smaller?5type?5causing?5los@ 00652c18     LIBCMTD:userapi.obj
 0007:0000de0c       ??_C@_0BJ@HEGAHDFO@Stack?5pointer?5corruption?$AA@ 00652c4c     LIBCMTD:userapi.obj
 0007:0000de2c       ??_C@_0DH@JONGPNM@d?3?2xbox?2private?2sdktools?2crt?2crt@ 00652c6c     LIBCMTD:chkesp.obj
 0007:0000de70       ??_C@_0NM@DNEDKLDF@The?5value?5of?5ESP?5was?5not?5properl@ 00652cb0     LIBCMTD:chkesp.obj
 0007:0000df80       __DEFAULT_CW_in_mem        00652dc0     LIBCMTD:common.obj
 0007:0000df82       __pi_by_2_to_61            00652dc2     LIBCMTD:common.obj
 0007:0000e010       ??_C@_0DG@FOABMBPK@d?3?2xbox?2private?2sdktools?2crt?2crt@ 00652e50     LIBCMTD:isctype.obj
 0007:0000e050       ??_C@_0BJ@IAKBGELC@?$CIunsigned?$CJ?$CIc?5?$CL?51?$CJ?5?$DM?$DN?5256?$AA@ 00652e90     LIBCMTD:isctype.obj
 0007:0000e070       ??_C@_0DP@FICHPIPH@?$CI?$CCinconsistent?5IOB?5fields?$CC?0?5stre@ 00652eb0     LIBCMTD:_flsbuf.obj
 0007:0000e0bc       ??_C@_0DE@NJNPBAE@d?3?2xbox?2private?2sdktools?2crt?2crt@ 00652efc     LIBCMTD:_flsbuf.obj
 0007:0000e0fc       ??_C@_0DC@KLIKNNLG@d?3?2xbox?2private?2sdktools?2crt?2crt@ 00652f3c     LIBCMTD:input.obj
 0007:0000e188       ??_C@_0DD@HFEGKDAM@d?3?2xbox?2private?2sdktools?2crt?2crt@ 00652fc8     LIBCMTD:stream.obj
 0007:0000e1f4       ??_C@_0DE@NEOLBDEH@d?3?2xbox?2private?2sdktools?2crt?2crt@ 00653034     LIBCMTD:_filbuf.obj
 0007:0000e268       ??_C@_0DF@ENLAEPHN@d?3?2xbox?2private?2sdktools?2crt?2crt@ 006530a8     LIBCMTD:_freebuf.obj
 0007:0000e2e4       ??_C@_0L@KDOEJCKC@_nextafter?$AA@ 00653124     LIBCMTD:fpexcept.obj
 0007:0000e2f4       ??_C@_05JGDBENOH@_logb?$AA@ 00653134     LIBCMTD:fpexcept.obj
 0007:0000e2fc       ??_C@_03ONILCKOB@_yn?$AA@  0065313c     LIBCMTD:fpexcept.obj
 0007:0000e300       ??_C@_03NAKIGLHK@_y1?$AA@  00653140     LIBCMTD:fpexcept.obj
 0007:0000e304       ??_C@_03MJLDFKDL@_y0?$AA@  00653144     LIBCMTD:fpexcept.obj
 0007:0000e308       ??_C@_05GKKHEGJL@frexp?$AA@ 00653148     LIBCMTD:fpexcept.obj
 0007:0000e310       ??_C@_04KEPJIHGP@fmod?$AA@ 00653150     LIBCMTD:fpexcept.obj
 0007:0000e318       ??_C@_06MEIMCGCF@_hypot?$AA@ 00653158     LIBCMTD:fpexcept.obj
 0007:0000e320       ??_C@_05KBKMEMPO@_cabs?$AA@ 00653160     LIBCMTD:fpexcept.obj
 0007:0000e328       ??_C@_05CEJMAHNP@ldexp?$AA@ 00653168     LIBCMTD:fpexcept.obj
 0007:0000e330       ??_C@_04EHEDPDJG@modf?$AA@ 00653170     LIBCMTD:fpexcept.obj
 0007:0000e338       ??_C@_04ODHECPBC@fabs?$AA@ 00653178     LIBCMTD:fpexcept.obj
 0007:0000e340       ??_C@_05PBJFFIGL@floor?$AA@ 00653180     LIBCMTD:fpexcept.obj
 0007:0000e348       ??_C@_04GFPJNGEK@ceil?$AA@ 00653188     LIBCMTD:fpexcept.obj
 0007:0000e350       ??_C@_03IIINPABG@tan?$AA@  00653190     LIBCMTD:fpexcept.obj
 0007:0000e354       ??_C@_03LALBNOCG@cos?$AA@  00653194     LIBCMTD:fpexcept.obj
 0007:0000e358       ??_C@_03BLEJJJBH@sin?$AA@  00653198     LIBCMTD:fpexcept.obj
 0007:0000e35c       ??_C@_04EIAKFFMI@sqrt?$AA@ 0065319c     LIBCMTD:fpexcept.obj
 0007:0000e364       ??_C@_05KNGEOGJB@atan2?$AA@ 006531a4     LIBCMTD:fpexcept.obj
 0007:0000e36c       ??_C@_04MLLJIGOK@atan?$AA@ 006531ac     LIBCMTD:fpexcept.obj
 0007:0000e374       ??_C@_04PDIFKINK@acos?$AA@ 006531b4     LIBCMTD:fpexcept.obj
 0007:0000e37c       ??_C@_04FIHNOPOL@asin?$AA@ 006531bc     LIBCMTD:fpexcept.obj
 0007:0000e384       ??_C@_04FJHINJAO@tanh?$AA@ 006531c4     LIBCMTD:fpexcept.obj
 0007:0000e38c       ??_C@_04HPJJNFIM@cosh?$AA@ 006531cc     LIBCMTD:fpexcept.obj
 0007:0000e394       ??_C@_04COOMCNPB@sinh?$AA@ 006531d4     LIBCMTD:fpexcept.obj
 0007:0000e39c       ??_C@_05HGHHAHAP@log10?$AA@ 006531dc     LIBCMTD:fpexcept.obj
 0007:0000e3a4       ??_C@_03JGHBODFD@pow?$AA@  006531e4     LIBCMTD:fpexcept.obj
 0007:0000e3a8       ??_C@_0DF@IDFEGAON@d?3?2xbox?2private?2sdktools?2crt?2crt@ 006531e8     LIBCMTD:thread.obj
 0007:0000e408       ??_C@_0DH@DAKFLCNF@d?3?2xbox?2private?2sdktools?2crt?2crt@ 00653248     LIBCMTD:mbctype.obj
 0007:0000e460       ___newctype                006532a0     LIBCMTD:ctype.obj
 0007:0000e760       __wctype                   006535a0     LIBCMTD:ctype.obj
 0007:0000ea64       ??_C@_0DC@INOPPLBA@d?3?2xbox?2private?2sdktools?2crt?2crt@ 006538a4     LIBCMTD:winsig.obj
 0007:0000eae0       ??_C@_0DE@MAAOMAOC@d?3?2xbox?2private?2sdktools?2crt?2crt@ 00653920     LIBCMTD:_getbuf.obj
 0007:0000eb20       ??_C@_0DF@OJJCOBEC@d?3?2xbox?2private?2sdktools?2crt?2crt@ 00653960     LIBCMTD:mbtowc.obj
 0007:0000eb60       ??_C@_0CD@GKGBOFGL@MB_CUR_MAX?5?$DN?$DN?51?5?$HM?$HM?5MB_CUR_MAX?5?$DN?$DN@ 006539a0     LIBCMTD:mbtowc.obj
 0007:0000eb8c       ??_C@_0DD@JGBOCLMN@d?3?2xbox?2private?2sdktools?2crt?2crt@ 006539cc     LIBCMTD:ungetc.obj
 0007:0000ebe0       ??_C@_0DE@BEFFLAEL@d?3?2xbox?2private?2sdktools?2crt?2crt@ 00653a20     LIBCMTD:osfinfo.obj
 0007:0000ec70       ??_C@_0DD@MBAOBBON@d?3?2xbox?2private?2sdktools?2crt?2crt@ 00653ab0     LIBCMTD:chsize.obj
 0007:0000ecb0       ??_C@_09OJCCCDEJ@size?5?$DO?$DN?50?$AA@ 00653af0     LIBCMTD:chsize.obj
 0007:0000ecd0       ??_C@_0DD@BFAJFAGJ@d?3?2xbox?2private?2sdktools?2crt?2crt@ 00653b10     LIBCMTD:fputwc.obj
 0007:0000ed20       ??_C@_0P@GGKDKEEG@runtime?5error?5?$AA@ 00653b60     LIBCMTD:crt0msg.obj
 0007:0000ed34       ??_C@_0N@HLECBOKK@TLOSS?5error?6?$AA@ 00653b74     LIBCMTD:crt0msg.obj
 0007:0000ed44       ??_C@_0M@HDJFGCEL@SING?5error?6?$AA@ 00653b84     LIBCMTD:crt0msg.obj
 0007:0000ed54       ??_C@_0O@KIGJDBC@DOMAIN?5error?6?$AA@ 00653b94     LIBCMTD:crt0msg.obj
 0007:0000ed68       ??_C@_0KA@LCBCGMCJ@R6029?6?9?5This?5application?5cannot?5@ 00653ba8     LIBCMTD:crt0msg.obj
 0007:0000ee28       ??_C@_0CD@CBIHNGLM@R6028?6?9?5unable?5to?5initialize?5hea@ 00653c68     LIBCMTD:crt0msg.obj
 0007:0000ee54       ??_C@_0DD@ELMNFFL@R6027?6?9?5not?5enough?5space?5for?5low@ 00653c94     LIBCMTD:crt0msg.obj
 0007:0000ee94       ??_C@_0DD@ECMPPDKJ@R6026?6?9?5not?5enough?5space?5for?5std@ 00653cd4     LIBCMTD:crt0msg.obj
 0007:0000eed4       ??_C@_0CE@BNOBCALH@R6025?6?9?5pure?5virtual?5function?5ca@ 00653d14     LIBCMTD:crt0msg.obj
 0007:0000ef00       ??_C@_0DD@KDOBPJEN@R6024?6?9?5not?5enough?5space?5for?5_on@ 00653d40     LIBCMTD:crt0msg.obj
 0007:0000ef40       ??_C@_0CH@IJNGNKLN@R6019?6?9?5unable?5to?5open?5console?5d@ 00653d80     LIBCMTD:crt0msg.obj
 0007:0000ef70       ??_C@_0BP@BHAKIOHE@R6018?6?9?5unexpected?5heap?5error?6?$AA@ 00653db0     LIBCMTD:crt0msg.obj
 0007:0000ef98       ??_C@_0CL@LODECPDF@R6017?6?9?5unexpected?5multithread?5l@ 00653dd8     LIBCMTD:crt0msg.obj
 0007:0000efcc       ??_C@_0CK@NONBIDPM@R6016?6?9?5not?5enough?5space?5for?5thr@ 00653e0c     LIBCMTD:crt0msg.obj
 0007:0000f000       ??_C@_0JE@GCAJEKJH@?6This?5application?5has?5requested?5@ 00653e40     LIBCMTD:crt0msg.obj
 0007:0000f0b4       ??_C@_0CK@DGPNILPC@R6009?6?9?5not?5enough?5space?5for?5env@ 00653ef4     LIBCMTD:crt0msg.obj
 0007:0000f0e8       ??_C@_0CI@MOMFHLKF@R6008?6?9?5not?5enough?5space?5for?5arg@ 00653f28     LIBCMTD:crt0msg.obj
 0007:0000f118       ??_C@_0CD@IEKHEPMF@R6002?6?9?5floating?5point?5not?5loade@ 00653f58     LIBCMTD:crt0msg.obj
 0007:0000f144       ??_C@_06IMKFLFPG@1?$CDQNAN?$AA@ 00653f84     LIBCMTD:x10fout.obj
 0007:0000f14c       ??_C@_05DNEBIAHO@1?$CDINF?$AA@ 00653f8c     LIBCMTD:x10fout.obj
 0007:0000f154       ??_C@_05PHHOCPM@1?$CDIND?$AA@ 00653f94     LIBCMTD:x10fout.obj
 0007:0000f15c       ??_C@_06PGGFOGJG@1?$CDSNAN?$AA@ 00653f9c     LIBCMTD:x10fout.obj
 0007:0000f178       ??_C@_0CJ@NEKMJBFG@d?3?2xbox?2private?2ntos?2xapi?2k32?2ca@ 00653fb8     xapilibd:cancelio.obj
 0007:0000f1ac       ??_C@_0CA@JOFLIEJD@0?5?$CG?$CG?5?$CCCP_UTF7?5is?5not?5supported?$CC?$AA@ 00653fec     xapilibd:widechar.obj
 0007:0000f1d4       ??_C@_0CJ@OAFHFGFN@d?3?2xbox?2private?2ntos?2xapi?2k32?2wi@ 00654014     xapilibd:widechar.obj
 0007:0000f208       ??_C@_0CG@LKCFAPOM@0?5?$CG?$CG?5?$CClpDefaultChar?5is?5not?5suppo@ 00654048     xapilibd:widechar.obj
 0007:0000f278       ??_C@_0O@DMOADBJC@TlsGetValue?$CI?$CJ?$AA@ 006540b8     xapilibd:tls.obj
 0007:0000f288       ??_C@_0CF@GBEOLLOI@?$CIdwTlsIndex?5?$DM?5TLS_MINIMUM_AVAILA@ 006540c8     xapilibd:tls.obj
 0007:0000f2b4       ??_C@_0O@CCMPIGNL@TlsSetValue?$CI?$CJ?$AA@ 006540f4     xapilibd:tls.obj
 0007:0000f2c4       ??_C@_09HKABMOEO@TlsFree?$CI?$CJ?$AA@ 00654104     xapilibd:tls.obj
 0007:0000f2d0       ??_C@_0DF@CKLEKFIH@d?3?2xbox?2private?2sdktools?2crt?2crt@ 00654110     LIBCMTD:vswprint.obj
 0007:0000fa4c       ___rtc_iaa                 0065488c     LIBCMTD:initsect.obj
 0007:0000fdd4       ___rtc_izz                 00654c14     LIBCMTD:initsect.obj
 0007:0000fed8       ___rtc_taa                 00654d18     LIBCMTD:initsect.obj
 0007:00010260       ___rtc_tzz                 006550a0     LIBCMTD:initsect.obj
 0008:00000000       ___xri_a                   006551c0     xapilibd:xapi0dat.obj
 0008:00000104       ___pmtinit                 006552c4     LIBCMTD:tidtable.obj
 0008:00000208       ___rtc_init                006553c8     xapilibd:xapi0dat.obj
 0008:00000410       ___xri_z                   006555d0     xapilibd:xapi0dat.obj
 0008:00000514       ___xc_a                    006556d4     xapilibd:xapi0dat.obj
 0008:00000740       ___xc_z                    00655900     xapilibd:xapi0dat.obj
 0008:00000844       ___xi_a                    00655a04     xapilibd:xapi0dat.obj
 0008:00000a54       ___xi_z                    00655c14     xapilibd:xapi0dat.obj
 0008:00000b58       ___xp_a                    00655d18     LIBCMTD:crt0init.obj
 0008:00000d68       ___xp_z                    00655f28     LIBCMTD:crt0init.obj
 0008:00000e6c       ___xt_a                    0065602c     LIBCMTD:crt0init.obj
 0008:00000f70       ___xt_z                    00656130     LIBCMTD:crt0init.obj
 0008:0000132c       _g_PollingParameters       006564ec     libSDLx:SDL_sysjoystick.obj
 0008:00001330       _XBOX_bootstrap            006564f0     libSDLx:SDL_xboxvideo.obj
 0008:00001384       _SDL_cursorstate           00656544     libSDLx:SDL_cursor.obj
 0008:0000139c       _DSOUND_bootstrap          0065655c     libSDLx:SDL_xboxaudio.obj
 0008:0000153c       _XapiMmTimerCriticalSection 006566fc     xapilibd:mmtimer.obj
 0008:00001560       _XapiProcessLock           00656720     xapilibd:thread.obj
 0008:0000157c       _XapiThreadNotifyRoutineList 0065673c     xapilibd:thread.obj
 0008:0000158c       _DDrive                    0065674c     xapilibd:xapiinit.obj
 0008:00001594       _CdDevice                  00656754     xapilibd:xapiinit.obj
 0008:0000159c       _MainVol                   0065675c     xapilibd:xapiinit.obj
 0008:000015a4       _TDrive                    00656764     xapilibd:xapiinit.obj
 0008:000015ac       _TitleData                 0065676c     xapilibd:xapiinit.obj
 0008:000015b4       _UDrive                    00656774     xapilibd:xapiinit.obj
 0008:000015bc       _UserData                  0065677c     xapilibd:xapiinit.obj
 0008:000015d0       _XDebugOutLevel            00656790     xapilibd:outputdebugstringa.obj
 0008:000015d4       _XDebugBrkLevel            00656794     xapilibd:outputdebugstringa.obj
 0008:000015d8       _XDebugLevels              00656798     xapilibd:outputdebugstringa.obj
 0008:000015f8       _DashPartition             006567b8     xapilibd:bootutil.obj
 0008:00001618       _TitleRebootPath           006567d8     xapilibd:bootutil.obj
 0008:00001648       _YDrive                    00656808     xapilibd:bootutil.obj
 0008:00001674       _g_iZDriveDBIndex          00656834     xapilibd:pathmisc.obj
 0008:00001678       _g_iNDriveDBIndex          00656838     xapilibd:pathmisc.obj
 0008:00001680       _MmHeapSegmentReserve      00656840     xapilibd:heap.obj
 0008:00001684       _MmHeapSegmentCommit       00656844     xapilibd:heap.obj
 0008:00001688       _MmHeapDeCommitTotalFreeThreshold 00656848     xapilibd:heap.obj
 0008:0000168c       _MmHeapDeCommitFreeBlockThreshold 0065684c     xapilibd:heap.obj
 0008:00001690       _CheckHeapFillPattern      00656850     xapilibd:heap.obj
 0008:000016a8       _XapiShutdownRegistration  00656868     xapilibd:xapiterm.obj
 0008:000016b8       _XapiShutdownIrpCompleteEvent 00656878     xapilibd:xapiterm.obj
 0008:000016d0       _g_rgdwLoc                 00656890     xapilibd:compstra.obj
 0008:00001c34       ?g_StructureName@D3D@@3PAPBDA 00656df4     d3d8d:resource.obj
 0008:00001c58       ?g_DeviceCaps@D3D@@3U_D3DCAPS8@@B 00656e18     d3d8d:d3dbase.obj
 0008:00001d58       ?g_SlotMapping@D3D@@3PAEA  00656f18     d3d8d:state.obj
 0008:00001d80       _D3D__DeadlockTimeOutVal   00656f40     d3d8d:globals.obj
 0008:00001d88       ?g_PerfCounters@D3D@@3U_D3DPERF@1@A 00656f48     d3d8d:stats.obj
 0008:000360d0       ?g_CpuCyclesPerMsec@D3D@@3KA 0068b290     d3d8d:stats.obj
 0008:00040884       ?ostMovieBuffer@D3D@@3PADA 00695a44     d3d8d:shadersnapshot.obj
 0008:000408b4       ?ostMovie@D3D@@3U_STRING@@A 00695a74     d3d8d:shadersnapshot.obj
 0008:0004090c       ?g_InitialStackTrace0@D3D@@3P6IXPAXKPAK@ZA 00695acc     d3d8d:timing.obj
 0008:00040910       ?g_InitialStackTrace1@D3D@@3P6IKPAXK@ZA 00695ad0     d3d8d:timing.obj
 0008:000409a8       ?g_FixedFunctionConstantsMapping@D3D@@3PAUFixedFunctionConstantMapping@1@A 00695b68     d3d8d:recorder.obj
 0008:00040d68       ?z_errmsg@D3DX@@3PAPBDA    00695f28     d3dx8d:zutil.obj
 0008:00042208       ?inflate_mask@D3DX@@3PAIA  006973c8     d3dx8d:infutil.obj
 0008:00042338       __iob                      006974f8     LIBCMTD:_file.obj
 0008:00042638       __fltused                  006977f8     LIBCMTD:fpinit.obj
 0008:0004263c       __ldused                   006977fc     LIBCMTD:fpinit.obj
 0008:00042640       __FPinit                   00697800     LIBCMTD:fpinit.obj
 0008:00042644       __FPmtinit                 00697804     LIBCMTD:fpinit.obj
 0008:00042648       __FPmtterm                 00697808     LIBCMTD:fpinit.obj
 0008:00042660       __crtDbgFlag               00697820     LIBCMTD:dbgheap.obj
 0008:00042668       __crtBreakAlloc            00697828     LIBCMTD:dbgheap.obj
 0008:00042690       ?_RTC_ErrorLevels@@3PAHA   00697850     LIBCMTD:error.obj
 0008:000426b4       ?g_szTempModName@@3PADA    00697874     LIBCMTD:error.obj
 0008:000426d0       __NLG_Destination          00697890     LIBCMTD:exsup.obj
 0008:000426f0       __half                     006978b0     LIBCMTD:pow.obj
 0008:00042700       __crtAssertBusy            006978c0     LIBCMTD:dbgrpt.obj
 0008:00042704       __CrtDbgMode               006978c4     LIBCMTD:dbgrpt.obj
 0008:00042710       __CrtDbgFile               006978d0     LIBCMTD:dbgrpt.obj
 0008:00042730       ___badioinfo               006978f0     LIBCMTD:ioinit.obj
 0008:000428bc       __cfltcvt_tab              00697a7c     LIBCMTD:cmiscdat.obj
 0008:000428ec       __indefinite               00697aac     LIBCMTD:87disp.obj
 0008:000428f6       __piby2                    00697ab6     LIBCMTD:87disp.obj
 0008:00042920       __pfnAllocHook             00697ae0     LIBCMTD:dbghook.obj
 0008:00042924       __amblksiz                 00697ae4     LIBCMTD:heapinit.obj
 0008:00042928       ___mb_cur_max              00697ae8     LIBCMTD:nlsdata1.obj
 0008:0004292c       ___decimal_point           00697aec     LIBCMTD:nlsdata1.obj
 0008:00042930       ___decimal_point_length    00697af0     LIBCMTD:nlsdata1.obj
 0008:00042af0       ___lc_clike                00697cb0     LIBCMTD:nlsdata2.obj
 0008:00042af4       __tmpoff                   00697cb4     LIBCMTD:rmtmp.obj
 0008:00042af8       __tempoff                  00697cb8     LIBCMTD:rmtmp.obj
 0008:00042b00       __infinity                 00697cc0     LIBCMTD:87tran.obj
 0008:00042b0a       __minfinity                00697cca     LIBCMTD:87tran.obj
 0008:00042b14       __logemax                  00697cd4     LIBCMTD:87tran.obj
 0008:00042b3a       __OP_EXPjmptab             00697cfa     LIBCMTD:87tran.obj
 0008:00042b76       __OP_SINHjmptab            00697d36     LIBCMTD:87trigh.obj
 0008:00042b96       __OP_COSHjmptab            00697d56     LIBCMTD:87trigh.obj
 0008:00042bb6       __OP_TANHjmptab            00697d76     LIBCMTD:87trigh.obj
 0008:00042bf0       __d_inf                    00697db0     LIBCMTD:util.obj
 0008:00042bf8       __d_ind                    00697db8     LIBCMTD:util.obj
 0008:00042c00       __d_max                    00697dc0     LIBCMTD:util.obj
 0008:00042c08       __d_min                    00697dc8     LIBCMTD:util.obj
 0008:00042c10       __d_mzero                  00697dd0     LIBCMTD:util.obj
 0008:00042d54       __aexit_rtn                00697f14     LIBCMTD:crt0.obj
 0008:00042d58       __XcptActTab               00697f18     LIBCMTD:winxfltr.obj
 0008:00042dd0       __First_FPE_Indx           00697f90     LIBCMTD:winxfltr.obj
 0008:00042dd4       __Num_FPE                  00697f94     LIBCMTD:winxfltr.obj
 0008:00042dd8       __XcptActTabSize           00697f98     LIBCMTD:winxfltr.obj
 0008:00042ddc       __XcptActTabCount          00697f9c     LIBCMTD:winxfltr.obj
 0008:00042f74       __pctype                   00698134     LIBCMTD:ctype.obj
 0008:00042f78       __pwctype                  00698138     LIBCMTD:ctype.obj
 0008:00042fbc       __matherr_flag             0069817c     LIBCMTD:matherr.obj
 0008:00043078       __pow10pos                 00698238     LIBCMTD:constpow.obj
 0008:000431d8       __pow10neg                 00698398     LIBCMTD:constpow.obj
 0008:000433c0       _offsetsFromUTF8           00698580     xapilibd:widechar.obj
 0008:000433d8       _bytesFromUTF8             00698598     xapilibd:widechar.obj
 0008:000434d8       _kReplacementCharacter     00698698     xapilibd:widechar.obj
 0008:000434dc       _kMaximumSimpleUniChar     0069869c     xapilibd:widechar.obj
 0008:000434e0       _kMaximumUniChar           006986a0     xapilibd:widechar.obj
 0008:000434e4       _halfShift                 006986a4     xapilibd:widechar.obj
 0008:000434e8       _halfBase                  006986a8     xapilibd:widechar.obj
 0008:000434ec       _halfMask                  006986ac     xapilibd:widechar.obj
 0008:000434f0       _kSurrogateHighStart       006986b0     xapilibd:widechar.obj
 0008:000434f4       _kSurrogateLowStart        006986b4     xapilibd:widechar.obj
 0008:00043538       _XapiTlsAllocBitmap        006986f8     xapilibd:tls.obj
 0008:000436ac       _SDL_numjoysticks          0069886c     libSDLx:SDL_joystick.obj
 0008:000436b0       _SDL_allocatedjoysticks    00698870     libSDLx:SDL_joystick.obj
 0008:000436b4       _SDL_joysticks             00698874     libSDLx:SDL_joystick.obj
 0008:000436bc       _current_video             0069887c     libSDLx:SDL_video.obj
 0008:000444e4       _SDL_EventOK               006996a4     libSDLx:SDL_events.obj
 0008:00044e1c       _SDL_TranslateUNICODE      00699fdc     libSDLx:SDL_keyboard.obj
 0008:0004543c       _SDL_CDcaps                0069a5fc     libSDLx:SDL_cdrom.obj
 0008:00045478       _current_audio             0069a638     libSDLx:SDL_audio.obj
 0008:00045488       _SDL_timer_started         0069a648     libSDLx:SDL_timer.obj
 0008:0004548c       _SDL_timer_running         0069a64c     libSDLx:SDL_timer.obj
 0008:00045490       _SDL_alarm_interval        0069a650     libSDLx:SDL_timer.obj
 0008:00045500       _cal_xoffset               0069a6c0     libSDLx:SDL_xboxvideo.obj
 0008:00045504       _cal_yoffset               0069a6c4     libSDLx:SDL_xboxvideo.obj
 0008:00045508       _cal_xstretch              0069a6c8     libSDLx:SDL_xboxvideo.obj
 0008:0004550c       _cal_ystretch              0069a6cc     libSDLx:SDL_xboxvideo.obj
 0008:00045510       _have_vertexbuffer         0069a6d0     libSDLx:SDL_xboxvideo.obj
 0008:00045514       _have_direct3dtexture      0069a6d4     libSDLx:SDL_xboxvideo.obj
 0008:0004552c       _SDL_cursor                0069a6ec     libSDLx:SDL_cursor.obj
 0008:00045534       _SDL_cursorlock            0069a6f4     libSDLx:SDL_cursor.obj
 0008:0004624c       _g_bDevicesInitialized     0069b40c     libSDLx:SDL_xboxevents.obj
 0008:00059db4       __tls_index                006aef74     xapilibd:xapitls.obj
 0008:00059db8       ?XID_Globals@@3U_XID_GLOBALS@@A 006aef78     xapilibd:xid.obj
 0008:00059e78       ?GLOBAL_HostControllerCount@@3EA 006af038     xapilibd:usbd.obj
 0008:00059e7c       _XapiMuInfo                006af03c     xapilibd:pathmisc.obj
 0008:00059e84       _g_fMountedUtilityDrive    006af044     xapilibd:pathmisc.obj
 0008:00059e8a       _RtlpValidateHeapHdrsEnable 006af04a     xapilibd:heap.obj
 0008:00059e90       ?g_DeviceTree@@3VCDeviceTree@@A 006af050     xapilibd:tree.obj
 0008:00059fa8       ?GLOBAL_HubEnum@@3U_USBHUB_ENUM_BLOCK@@A 006af168     xapilibd:hub.obj
 0008:0005a060       ?GLOBAL_HubInfo@@3U_USBHUB_INFO@@A 006af220     xapilibd:hub.obj
 0008:0005a094       _IsrEntryCount             006af254     xapilibd:isr.obj
 0008:0005a098       _g_pfnxcsbOnline           006af258     xapilibd:xcalcsig.obj
 0008:0005a09c       _g_pfnxcsuOnline           006af25c     xapilibd:xcalcsig.obj
 0008:0005a0a0       _g_pfnxcseOnline           006af260     xapilibd:xcalcsig.obj
 0008:0005a0ac       ?g_pD3DPerfEventBeginEnd@D3D@@3PAU_D3DPERFEvent@1@A 006af26c     d3d8d:drawprim.obj
 0008:0005a0b0       ___@@_PchSym_@00@UcylcUkirezgvUdrmwldhUwrivxgcUwctUwDwIUhvUfhviUlyqUrDIGUkivxlnkOlyq@d3d8d 006af270     d3d8d:precomp.obj
 0008:0005a0b8       _g_ToggleVTXStatesOnReset  006af278     d3d8d:stats.obj
 0008:0005a0e8       __cflush                   006af2a8     LIBCMTD:_file.obj
 0008:0005a0ec       ___fastflag                006af2ac     LIBCMTD:fpinit.obj
 0008:0005a0f0       __adjust_fdiv              006af2b0     LIBCMTD:fpinit.obj
 0008:0005a130       __umaskval                 006af2f0     LIBCMTD:crt0dat.obj
 0008:0005a134       __exitflag                 006af2f4     LIBCMTD:crt0dat.obj
 0008:0005a138       __C_Termination_Done       006af2f8     LIBCMTD:crt0dat.obj
 0008:0005a13c       __C_Exit_Done              006af2fc     LIBCMTD:crt0dat.obj
 0008:0005a170       ___pPurecall               006af330     LIBCMTD:purevirt.obj
 0008:0005a180       _gpFlsAlloc                006af340     LIBCMTD:tidtable.obj
 0008:0005a184       _gpFlsGetValue             006af344     LIBCMTD:tidtable.obj
 0008:0005a188       _gpFlsSetValue             006af348     LIBCMTD:tidtable.obj
 0008:0005a18c       _gpFlsFree                 006af34c     LIBCMTD:tidtable.obj
 0008:0005a198       __stdbuf                   006af358     LIBCMTD:_sftbuf.obj
 0008:0005a384       __newmode                  006af544     LIBCMTD:_newmode.obj
 0008:0005a388       ?_pnhHeap@@3P6AHI@ZA       006af548     LIBCMTD:handler.obj
 0008:0005a38c       ___lc_handle               006af54c     LIBCMTD:nlsdata2.obj
 0008:0005a3a4       ___lc_codepage             006af564     LIBCMTD:nlsdata2.obj
 0008:0005a3a8       ___lc_collate_cp           006af568     LIBCMTD:nlsdata2.obj
 0008:0005a3b4       __commode                  006af574     LIBCMTD:ncommode.obj
 0008:0005a3b8       __old_pfxlen               006af578     LIBCMTD:rmtmp.obj
 0008:0005a3d8       __fmode                    006af598     LIBCMTD:txtmode.obj
 0008:0005a3dc       __adbgmsg                  006af59c     LIBCMTD:crt0msg.obj
 0008:0005a3e0       _g_MouseStates             006af5a0     <common>
 0008:0005a454       _g_sound                   006af614     <common>
 0008:0005a460       _m_currentSector           006af620     <common>
 0008:0005a4dc       _m_bDanger                 006af69c     <common>
 0008:0005a4e0       _upper_thresh              006af6a0     <common>
 0008:0005a4e4       _pvBuffer                  006af6a4     <common>
 0008:0005a4e8       _ThreadID                  006af6a8     <common>
 0008:0005a500       _TrackAddr                 006af6c0     <common>
 0008:0005a690       _m_bPaused                 006af850     <common>
 0008:0005a694       _m_sectorTo                006af854     <common>
 0008:0005a698       _current_adjustment        006af858     <common>
 0008:0005a6a0       _samples_left_over         006af860     <common>
 0008:0005a6a8       _m_bDone                   006af868     <common>
 0008:0005a6ac       _m_dwWritePos              006af86c     <common>
 0008:0005a6b0       _samples_this_frame        006af870     <common>
 0008:0005a6b4       _LastTrack                 006af874     <common>
 0008:0005a6b8       _stream_buffer             006af878     <common>
 0008:0005a6bc       _samples_to_read           006af87c     <common>
 0008:0005a6c0       _dwStartPosition           006af880     <common>
 0008:0005a6c4       _m_pSoundBufferData        006af884     <common>
 0008:0005a6c8       _attenuation               006af888     <common>
 0008:0005a6e0       _stream_desc               006af8a0     <common>
 0008:0005a6f8       _dwStopPosition            006af8b8     <common>
 0008:0005a6fc       _stream_buffer_in          006af8bc     <common>
 0008:0005a700       _m_totalBytesWritten       006af8c0     <common>
 0008:0005a704       _lower_thresh              006af8c4     <common>
 0008:0005a708       _m_mixbuf                  006af8c8     <common>
 0008:0005a720       _stream_format             006af8e0     <common>
 0008:0005a734       _m_nVolume                 006af8f4     <common>
 0008:0005a738       _stream_buffer_size        006af8f8     <common>
 0008:0005a73c       _m_repeat                  006af8fc     <common>
 0008:0005a740       _samples_per_frame         006af900     <common>
 0008:0005a748       _m_sectorFrom              006af908     <common>
 0008:0005a74c       _D3D_Palette               006af90c     <common>
 0008:0005a838       _SDL_vertexbuffer          006af9f8     <common>
 0008:0005a840       _SDL_colors                006afa00     <common>
 0008:0005ac40       _D3D                       006afe00     <common>
 0008:0005ac44       _D3D_Device                006afe04     <common>
 0008:0005ac60       _D3D_PP                    006afe20     <common>
 0008:0005acc0       _g_InputStates             006afe80     <common>
 0008:0005ae00       _g_Gamepads                006affc0     <common>
 0008:0005b170       _SDL_alarm_callback        006b0330     <common>
 0008:0005b17c       _SDL_numcds                006b033c     <common>
 0008:0005b1a0       _SDL_KeyRepeat             006b0360     <common>
 0008:0005b1e0       _SDL_ProcessEvents         006b03a0     <common>
 0008:0005b220       _OHCD_GlobalPool           006b03e0     <common>
 0008:0005b280       _OHCD_InterruptObject      006b0440     <common>
 0008:0005b30e       _RtlpValidateHeapTagsEnable 006b04ce     <common>
 0008:0005b31c       _NtGlobalFlag              006b04dc     <common>
 0008:0005b320       _RtlpHeapStopOn            006b04e0     <common>
 0008:0005b338       _XapiProcessHeap           006b04f8     <common>
 0008:0005b344       ___@@_PchSym_@00@UcylcUkirezgvUmglhUczkrUpDCUoryUlyqUrDIGUyzhvwooOlyq@Xapi_k32 006b0504     <common>
 0008:0005b350       _XapiOriginalCodeSelectorEntry 006b0510     <common>
 0008:0005b380       _XapiAutoPowerDownGlobals  006b0540     <common>
 0008:0005b3f4       _XapiCurrentTopLevelFilter 006b05b4     <common>
 0008:0005b404       _XapiTlsSize               006b05c4     <common>
 0008:0005b408       _XapiMmTimerThreadState    006b05c8     <common>
 0008:0005b416       _XapiMmTimerSerialNumber   006b05d6     <common>
 0008:0005b418       ___@@_PchSym_@00@UcylcUkirezgvUdrmwldhUwrivxgcUwhlfmwUwhlfmwUlyqUrDIGUwhlfmwrOlyq@dsoundd 006b05d8     <common>
 0008:0005b424       ___mblcid                  006b05e4     <common>
 0008:0005b4a0       ___ptmbcinfo               006b0660     <common>
 0008:0005b4a4       ___ismbcodepage            006b0664     <common>
 0008:0005b4c0       __mbctype                  006b0680     <common>
 0008:0005b5c4       ___mbcodepage              006b0784     <common>
 0008:0005b5e0       ___mbulinfo                006b07a0     <common>
 0008:0005b600       __mbcasemap                006b07c0     <common>
 0008:0005b700       ___active_heap             006b08c0     <common>
 0008:0005b70c       __nhandle                  006b08cc     <common>
 0008:0005b760       ___pioinfo                 006b0920     <common>
 0008:0005b860       __pfnReportHook            006b0a20     <common>
 0008:0005b870       __pReportHookList          006b0a30     <common>
 0008:0005b874       ___ptd_glob                006b0a34     <common>
 0008:0005b880       ___env_initialized         006b0a40     <common>
 0008:0005b890       ___onexitend               006b0a50     <common>
 0008:0005b894       ___onexitbegin             006b0a54     <common>
 0008:0005b898       ___mbctype_initialized     006b0a58     <common>
 0008:0005b89c       __setjmpexused             006b0a5c     <common>
 0008:0005b8a8       __pfnDumpClient            006b0a68     <common>
 0008:0005b8b4       ___piob                    006b0a74     <common>
 0008:0005b8c4       __nstream                  006b0a84     <common>
 0009:00000000       __IMPORT_DESCRIPTOR_xboxkrnl 006b0aa0     xboxkrnl:xboxkrnl.exe
 0009:00000014       __NULL_IMPORT_DESCRIPTOR   006b0ab4     xboxkrnl:xboxkrnl.exe
 0009:00000344       __imp__HalWriteSMBusValue@16 006b0de4     xboxkrnl:xboxkrnl.exe
 0009:00000348       __imp__NtCreateFile@36     006b0de8     xboxkrnl:xboxkrnl.exe
 0009:0000034c       __imp__RtlInitAnsiString@8 006b0dec     xboxkrnl:xboxkrnl.exe
 0009:00000350       __imp__IoCreateSymbolicLink@8 006b0df0     xboxkrnl:xboxkrnl.exe
 0009:00000354       __imp__IoDeleteSymbolicLink@4 006b0df4     xboxkrnl:xboxkrnl.exe
 0009:00000358       __imp_@KfLowerIrql@4       006b0df8     xboxkrnl:xboxkrnl.exe
 0009:0000035c       __imp__KeRaiseIrqlToDpcLevel@0 006b0dfc     xboxkrnl:xboxkrnl.exe
 0009:00000360       __imp__ExAllocatePoolWithTag@8 006b0e00     xboxkrnl:xboxkrnl.exe
 0009:00000364       __imp__RtlRip@12           006b0e04     xboxkrnl:xboxkrnl.exe
 0009:00000368       __imp__RtlTimeToTimeFields@8 006b0e08     xboxkrnl:xboxkrnl.exe
 0009:0000036c       __imp__KeQuerySystemTime@4 006b0e0c     xboxkrnl:xboxkrnl.exe
 0009:00000370       __imp__KeTickCount         006b0e10     xboxkrnl:xboxkrnl.exe
 0009:00000370       _KeTickCount               006b0e10     xboxkrnl:xboxkrnl.exe
 0009:00000374       __imp__RtlTimeFieldsToTime@8 006b0e14     xboxkrnl:xboxkrnl.exe
 0009:00000378       __imp__NtCreateEvent@16    006b0e18     xboxkrnl:xboxkrnl.exe
 0009:0000037c       __imp__ObOpenObjectByName@16 006b0e1c     xboxkrnl:xboxkrnl.exe
 0009:00000380       _ExEventObjectType         006b0e20     xboxkrnl:xboxkrnl.exe
 0009:00000380       __imp__ExEventObjectType   006b0e20     xboxkrnl:xboxkrnl.exe
 0009:00000384       __imp__NtSetEvent@8        006b0e24     xboxkrnl:xboxkrnl.exe
 0009:00000388       __imp__NtClearEvent@4      006b0e28     xboxkrnl:xboxkrnl.exe
 0009:0000038c       __imp__NtPulseEvent@8      006b0e2c     xboxkrnl:xboxkrnl.exe
 0009:00000390       __imp__NtCreateSemaphore@16 006b0e30     xboxkrnl:xboxkrnl.exe
 0009:00000394       _ExSemaphoreObjectType     006b0e34     xboxkrnl:xboxkrnl.exe
 0009:00000394       __imp__ExSemaphoreObjectType 006b0e34     xboxkrnl:xboxkrnl.exe
 0009:00000398       __imp__NtReleaseSemaphore@12 006b0e38     xboxkrnl:xboxkrnl.exe
 0009:0000039c       __imp__NtCreateMutant@12   006b0e3c     xboxkrnl:xboxkrnl.exe
 0009:000003a0       __imp__ExMutantObjectType  006b0e40     xboxkrnl:xboxkrnl.exe
 0009:000003a0       _ExMutantObjectType        006b0e40     xboxkrnl:xboxkrnl.exe
 0009:000003a4       __imp__NtReleaseMutant@8   006b0e44     xboxkrnl:xboxkrnl.exe
 0009:000003a8       __imp__NtWaitForSingleObjectEx@16 006b0e48     xboxkrnl:xboxkrnl.exe
 0009:000003ac       __imp__NtSignalAndWaitForSingleObjectEx@20 006b0e4c     xboxkrnl:xboxkrnl.exe
 0009:000003b0       __imp__NtWaitForMultipleObjectsEx@24 006b0e50     xboxkrnl:xboxkrnl.exe
 0009:000003b4       __imp__KeDelayExecutionThread@12 006b0e54     xboxkrnl:xboxkrnl.exe
 0009:000003b8       __imp__NtCreateTimer@12    006b0e58     xboxkrnl:xboxkrnl.exe
 0009:000003bc       _ExTimerObjectType         006b0e5c     xboxkrnl:xboxkrnl.exe
 0009:000003bc       __imp__ExTimerObjectType   006b0e5c     xboxkrnl:xboxkrnl.exe
 0009:000003c0       __imp__NtSetTimerEx@32     006b0e60     xboxkrnl:xboxkrnl.exe
 0009:000003c4       __imp__NtCancelTimer@8     006b0e64     xboxkrnl:xboxkrnl.exe
 0009:000003c8       __imp__KeSetTimerEx@20     006b0e68     xboxkrnl:xboxkrnl.exe
 0009:000003cc       __imp__KeQueryInterruptTime@0 006b0e6c     xboxkrnl:xboxkrnl.exe
 0009:000003d0       __imp__RtlLeaveCriticalSection@4 006b0e70     xboxkrnl:xboxkrnl.exe
 0009:000003d4       __imp__RtlEnterCriticalSection@4 006b0e74     xboxkrnl:xboxkrnl.exe
 0009:000003d8       __imp__KeWaitForMultipleObjects@32 006b0e78     xboxkrnl:xboxkrnl.exe
 0009:000003dc       __imp__KeSetEvent@12       006b0e7c     xboxkrnl:xboxkrnl.exe
 0009:000003e0       __imp__KeInitializeTimerEx@8 006b0e80     xboxkrnl:xboxkrnl.exe
 0009:000003e4       __imp__RtlAssert@16        006b0e84     xboxkrnl:xboxkrnl.exe
 0009:000003e8       __imp__KeWaitForSingleObject@20 006b0e88     xboxkrnl:xboxkrnl.exe
 0009:000003ec       __imp__KeCancelTimer@4     006b0e8c     xboxkrnl:xboxkrnl.exe
 0009:000003f0       __imp_@KfRaiseIrql@4       006b0e90     xboxkrnl:xboxkrnl.exe
 0009:000003f4       __imp__DbgBreakPoint@0     006b0e94     xboxkrnl:xboxkrnl.exe
 0009:000003f8       __imp__DbgPrint            006b0e98     xboxkrnl:xboxkrnl.exe
 0009:000003fc       __imp__ExQueryNonVolatileSetting@20 006b0e9c     xboxkrnl:xboxkrnl.exe
 0009:00000400       __imp__NtClose@4           006b0ea0     xboxkrnl:xboxkrnl.exe
 0009:00000404       __imp__NtDuplicateObject@12 006b0ea4     xboxkrnl:xboxkrnl.exe
 0009:00000408       __imp_@ObfDereferenceObject@4 006b0ea8     xboxkrnl:xboxkrnl.exe
 0009:0000040c       __imp__KeSetBasePriorityThread@8 006b0eac     xboxkrnl:xboxkrnl.exe
 0009:00000410       __imp__ObReferenceObjectByHandle@12 006b0eb0     xboxkrnl:xboxkrnl.exe
 0009:00000414       _PsThreadObjectType        006b0eb4     xboxkrnl:xboxkrnl.exe
 0009:00000414       __imp__PsThreadObjectType  006b0eb4     xboxkrnl:xboxkrnl.exe
 0009:00000418       __imp__KeQueryBasePriorityThread@4 006b0eb8     xboxkrnl:xboxkrnl.exe
 0009:0000041c       __imp__KeSetDisableBoostThread@8 006b0ebc     xboxkrnl:xboxkrnl.exe
 0009:00000420       __imp__NtSuspendThread@8   006b0ec0     xboxkrnl:xboxkrnl.exe
 0009:00000424       __imp__NtResumeThread@8    006b0ec4     xboxkrnl:xboxkrnl.exe
 0009:00000428       __imp__RtlRaiseException@4 006b0ec8     xboxkrnl:xboxkrnl.exe
 0009:0000042c       __imp__NtQueueApcThread@20 006b0ecc     xboxkrnl:xboxkrnl.exe
 0009:00000430       __imp__NtYieldExecution@0  006b0ed0     xboxkrnl:xboxkrnl.exe
 0009:00000434       __imp__PsTerminateSystemThread@4 006b0ed4     xboxkrnl:xboxkrnl.exe
 0009:00000438       __imp__KeTimeIncrement     006b0ed8     xboxkrnl:xboxkrnl.exe
 0009:00000438       _KeTimeIncrement           006b0ed8     xboxkrnl:xboxkrnl.exe
 0009:0000043c       __imp__PsCreateSystemThreadEx@40 006b0edc     xboxkrnl:xboxkrnl.exe
 0009:00000440       __imp__NtWaitForSingleObject@12 006b0ee0     xboxkrnl:xboxkrnl.exe
 0009:00000444       __imp__NtReadFile@32       006b0ee4     xboxkrnl:xboxkrnl.exe
 0009:00000448       __imp__NtWriteFile@32      006b0ee8     xboxkrnl:xboxkrnl.exe
 0009:0000044c       __imp__NtSetInformationFile@20 006b0eec     xboxkrnl:xboxkrnl.exe
 0009:00000450       __imp__NtQueryInformationFile@20 006b0ef0     xboxkrnl:xboxkrnl.exe
 0009:00000454       __imp__NtQueryVolumeInformationFile@20 006b0ef4     xboxkrnl:xboxkrnl.exe
 0009:00000458       __imp__NtFlushBuffersFile@8 006b0ef8     xboxkrnl:xboxkrnl.exe
 0009:0000045c       __imp__NtUserIoApcDispatcher@12 006b0efc     xboxkrnl:xboxkrnl.exe
 0009:00000460       __imp__NtFsControlFile@40  006b0f00     xboxkrnl:xboxkrnl.exe
 0009:00000464       __imp__NtDeviceIoControlFile@40 006b0f04     xboxkrnl:xboxkrnl.exe
 0009:00000468       __imp__NtReadFileScatter@32 006b0f08     xboxkrnl:xboxkrnl.exe
 0009:0000046c       __imp__NtWriteFileGather@32 006b0f0c     xboxkrnl:xboxkrnl.exe
 0009:00000470       __imp__IoQueryVolumeInformation@20 006b0f10     xboxkrnl:xboxkrnl.exe
 0009:00000474       _IoFileObjectType          006b0f14     xboxkrnl:xboxkrnl.exe
 0009:00000474       __imp__IoFileObjectType    006b0f14     xboxkrnl:xboxkrnl.exe
 0009:00000478       __imp__KeSetTimer@16       006b0f18     xboxkrnl:xboxkrnl.exe
 0009:0000047c       __imp__HalInitiateShutdown@0 006b0f1c     xboxkrnl:xboxkrnl.exe
 0009:00000480       _XboxHardwareInfo          006b0f20     xboxkrnl:xboxkrnl.exe
 0009:00000480       __imp__XboxHardwareInfo    006b0f20     xboxkrnl:xboxkrnl.exe
 0009:00000484       __imp__KeInitializeDpc@12  006b0f24     xboxkrnl:xboxkrnl.exe
 0009:00000488       __imp__NtOpenFile@24       006b0f28     xboxkrnl:xboxkrnl.exe
 0009:0000048c       __imp__HalReturnToFirmware@4 006b0f2c     xboxkrnl:xboxkrnl.exe
 0009:00000490       __imp__MmFreeContiguousMemory@4 006b0f30     xboxkrnl:xboxkrnl.exe
 0009:00000494       _LaunchDataPage            006b0f34     xboxkrnl:xboxkrnl.exe
 0009:00000494       __imp__LaunchDataPage      006b0f34     xboxkrnl:xboxkrnl.exe
 0009:00000498       __imp__HalRegisterShutdownNotification@8 006b0f38     xboxkrnl:xboxkrnl.exe
 0009:0000049c       __imp__RtlNtStatusToDosError@4 006b0f3c     xboxkrnl:xboxkrnl.exe
 0009:000004a0       __imp__NtCreateIoCompletion@16 006b0f40     xboxkrnl:xboxkrnl.exe
 0009:000004a4       __imp__NtSetIoCompletion@20 006b0f44     xboxkrnl:xboxkrnl.exe
 0009:000004a8       __imp__NtRemoveIoCompletion@20 006b0f48     xboxkrnl:xboxkrnl.exe
 0009:000004ac       __imp__MmSetAddressProtect@12 006b0f4c     xboxkrnl:xboxkrnl.exe
 0009:000004b0       __imp__MmQueryAddressProtect@4 006b0f50     xboxkrnl:xboxkrnl.exe
 0009:000004b4       _XboxKrnlVersion           006b0f54     xboxkrnl:xboxkrnl.exe
 0009:000004b4       __imp__XboxKrnlVersion     006b0f54     xboxkrnl:xboxkrnl.exe
 0009:000004b8       __imp__HalBootSMCVideoMode 006b0f58     xboxkrnl:xboxkrnl.exe
 0009:000004b8       _HalBootSMCVideoMode       006b0f58     xboxkrnl:xboxkrnl.exe
 0009:000004bc       __imp__RtlEqualString@12   006b0f5c     xboxkrnl:xboxkrnl.exe
 0009:000004c0       __imp__XeLoadSection@4     006b0f60     xboxkrnl:xboxkrnl.exe
 0009:000004c4       __imp__XeUnloadSection@4   006b0f64     xboxkrnl:xboxkrnl.exe
 0009:000004c8       __imp__MmPersistContiguousMemory@12 006b0f68     xboxkrnl:xboxkrnl.exe
 0009:000004cc       __imp__MmAllocateContiguousMemory@4 006b0f6c     xboxkrnl:xboxkrnl.exe
 0009:000004d0       _IdexChannelObject         006b0f70     xboxkrnl:xboxkrnl.exe
 0009:000004d0       __imp__IdexChannelObject   006b0f70     xboxkrnl:xboxkrnl.exe
 0009:000004d4       __imp__NtQuerySymbolicLinkObject@12 006b0f74     xboxkrnl:xboxkrnl.exe
 0009:000004d8       __imp__NtOpenSymbolicLinkObject@8 006b0f78     xboxkrnl:xboxkrnl.exe
 0009:000004dc       __imp__XcSHAFinal@8        006b0f7c     xboxkrnl:xboxkrnl.exe
 0009:000004e0       __imp__XcSHAUpdate@12      006b0f80     xboxkrnl:xboxkrnl.exe
 0009:000004e4       __imp__XcSHAInit@4         006b0f84     xboxkrnl:xboxkrnl.exe
 0009:000004e8       _XeImageFileName           006b0f88     xboxkrnl:xboxkrnl.exe
 0009:000004e8       __imp__XeImageFileName     006b0f88     xboxkrnl:xboxkrnl.exe
 0009:000004ec       __imp__HalDiskCachePartitionCount 006b0f8c     xboxkrnl:xboxkrnl.exe
 0009:000004ec       _HalDiskCachePartitionCount 006b0f8c     xboxkrnl:xboxkrnl.exe
 0009:000004f0       __imp__RtlFillMemoryUlong@12 006b0f90     xboxkrnl:xboxkrnl.exe
 0009:000004f4       __imp__NtFreeVirtualMemory@12 006b0f94     xboxkrnl:xboxkrnl.exe
 0009:000004f8       __imp__NtAllocateVirtualMemory@20 006b0f98     xboxkrnl:xboxkrnl.exe
 0009:000004fc       _KdDebuggerEnabled         006b0f9c     xboxkrnl:xboxkrnl.exe
 0009:000004fc       __imp__KdDebuggerEnabled   006b0f9c     xboxkrnl:xboxkrnl.exe
 0009:00000500       __imp__RtlCompareMemoryUlong@12 006b0fa0     xboxkrnl:xboxkrnl.exe
 0009:00000504       __imp__RtlCompareMemory@12 006b0fa4     xboxkrnl:xboxkrnl.exe
 0009:00000508       __imp__RtlInitializeCriticalSection@4 006b0fa8     xboxkrnl:xboxkrnl.exe
 0009:0000050c       __imp__NtQueryVirtualMemory@8 006b0fac     xboxkrnl:xboxkrnl.exe
 0009:00000510       __imp__ExFreePool@4        006b0fb0     xboxkrnl:xboxkrnl.exe
 0009:00000514       __imp__HalGetInterruptVector@8 006b0fb4     xboxkrnl:xboxkrnl.exe
 0009:00000518       __imp__KeConnectInterrupt@4 006b0fb8     xboxkrnl:xboxkrnl.exe
 0009:0000051c       __imp__KeInitializeInterrupt@28 006b0fbc     xboxkrnl:xboxkrnl.exe
 0009:00000520       __imp__KeStallExecutionProcessor@4 006b0fc0     xboxkrnl:xboxkrnl.exe
 0009:00000524       __imp__MmFreeSystemMemory@8 006b0fc4     xboxkrnl:xboxkrnl.exe
 0009:00000528       __imp__MmAllocateSystemMemory@8 006b0fc8     xboxkrnl:xboxkrnl.exe
 0009:0000052c       __imp__XcHMAC@28           006b0fcc     xboxkrnl:xboxkrnl.exe
 0009:00000530       _XboxHDKey                 006b0fd0     xboxkrnl:xboxkrnl.exe
 0009:00000530       __imp__XboxHDKey           006b0fd0     xboxkrnl:xboxkrnl.exe
 0009:00000534       __imp__RtlCompareString@12 006b0fd4     xboxkrnl:xboxkrnl.exe
 0009:00000538       __imp__MmGetPhysicalAddress@4 006b0fd8     xboxkrnl:xboxkrnl.exe
 0009:0000053c       __imp__MmLockUnlockBufferPages@12 006b0fdc     xboxkrnl:xboxkrnl.exe
 0009:00000540       __imp__KeInsertQueueDpc@12 006b0fe0     xboxkrnl:xboxkrnl.exe
 0009:00000544       __imp__MmLockUnlockPhysicalPage@8 006b0fe4     xboxkrnl:xboxkrnl.exe
 0009:00000548       _XboxSignatureKey          006b0fe8     xboxkrnl:xboxkrnl.exe
 0009:00000548       __imp__XboxSignatureKey    006b0fe8     xboxkrnl:xboxkrnl.exe
 0009:0000054c       __imp__XboxAlternateSignatureKeys 006b0fec     xboxkrnl:xboxkrnl.exe
 0009:0000054c       _XboxAlternateSignatureKeys 006b0fec     xboxkrnl:xboxkrnl.exe
 0009:00000550       __imp__NtQueryDirectoryFile@40 006b0ff0     xboxkrnl:xboxkrnl.exe
 0009:00000554       __imp__NtQueryFullAttributesFile@8 006b0ff4     xboxkrnl:xboxkrnl.exe
 0009:00000558       __imp__FscSetCacheSize@4   006b0ff8     xboxkrnl:xboxkrnl.exe
 0009:0000055c       __imp__FscGetCacheSize@0   006b0ffc     xboxkrnl:xboxkrnl.exe
 0009:00000560       __imp__MmAllocateContiguousMemoryEx@20 006b1000     xboxkrnl:xboxkrnl.exe
 0009:00000564       __imp__MmQueryAllocationSize@4 006b1004     xboxkrnl:xboxkrnl.exe
 0009:00000568       __imp__AvGetSavedDataAddress@0 006b1008     xboxkrnl:xboxkrnl.exe
 0009:0000056c       __imp__AvSendTVEncoderOption@16 006b100c     xboxkrnl:xboxkrnl.exe
 0009:00000570       __imp__AvSetDisplayMode@24 006b1010     xboxkrnl:xboxkrnl.exe
 0009:00000574       __imp__AvSetSavedDataAddress@4 006b1014     xboxkrnl:xboxkrnl.exe
 0009:00000578       __imp__MmQueryStatistics@4 006b1018     xboxkrnl:xboxkrnl.exe
 0009:0000057c       __imp__RtlWalkFrameChain@12 006b101c     xboxkrnl:xboxkrnl.exe
 0009:00000580       __imp__NtDeleteFile@4      006b1020     xboxkrnl:xboxkrnl.exe
 0009:00000584       __imp__HalReadWritePCISpace@24 006b1024     xboxkrnl:xboxkrnl.exe
 0009:00000588       __imp__KeDisconnectInterrupt@4 006b1028     xboxkrnl:xboxkrnl.exe
 0009:0000058c       __imp__MmClaimGpuInstanceMemory@8 006b102c     xboxkrnl:xboxkrnl.exe
 0009:00000590       __imp__KeSaveFloatingPointState@4 006b1030     xboxkrnl:xboxkrnl.exe
 0009:00000594       __imp__KeRestoreFloatingPointState@4 006b1034     xboxkrnl:xboxkrnl.exe
 0009:00000598       __imp__ExQueryPoolBlockSize@4 006b1038     xboxkrnl:xboxkrnl.exe
 0009:0000059c       __imp__KeRemoveQueueDpc@4  006b103c     xboxkrnl:xboxkrnl.exe
 0009:000005a0       __imp__KeSynchronizeExecution@12 006b1040     xboxkrnl:xboxkrnl.exe
 0009:000005a4       __imp__KeBugCheck@4        006b1044     xboxkrnl:xboxkrnl.exe
 0009:000005a8       __imp__RtlUnwind@16        006b1048     xboxkrnl:xboxkrnl.exe
 0009:000005ac       __imp_@IofCompleteRequest@8 006b104c     xboxkrnl:xboxkrnl.exe
 0009:000005b0       __imp__RtlAnsiStringToUnicodeString@12 006b1050     xboxkrnl:xboxkrnl.exe
 0009:000005b4       __imp__RtlUnicodeStringToAnsiString@12 006b1054     xboxkrnl:xboxkrnl.exe
 0009:000005b8       \177xboxkrnl_NULL_THUNK_DATA 006b1058     xboxkrnl:xboxkrnl.exe
 000b:00000000       _XapiBuildNumberD          006b9b60     xapilibd:xapi0.obj
 000b:00000114       ?XKbdBuildNumber@@3PAGA    006b9c74     libSDLx:queue.obj
 000b:00000128       ?XMouseBuildNumber@@3PAGA  006b9c88     xapilibd:mouse.obj
 000b:0000013c       _D3D8BuildNumberD          006b9c9c     d3d8d:precomp.obj
 000b:00000150       _D3DX8BuildNumberD         006b9cb0     d3dx8d:png.obj
 000b:00000164       _DSoundBuildNumberD        006b9cc4     dsoundd:dsapi.obj
 000b:00000178       _DMusicBuildNumberD        006b9cd8     dmusicd:xguids.obj
 000b:0000018c       _XboxKrnlBuildNumber       006b9cec     xboxkrnl:bldnum.obj
 000b:000001a0       ___DebugCrtBuildNumberMT   006b9d00     LIBCMTD:rand.obj
 000c:00000000       __tls_start                006b9e20     xapilibd:xapitls.obj
 000c:00000108       _XapiLastErrorCode         006b9f28     xapilibd:error.obj
 000c:0000010c       ___ptd_cur                 006b9f2c     LIBCMTD:tidtable.obj
 000c:00000110       _XapiTlsSlots              006b9f30     xapilibd:tls.obj
 000c:000002ab       __tls_end                  006ba0cb     xapilibd:xapitls.obj

 entry point at        0002:00003f2a

